
objs/l1/l2/l3//tests/7-button-loop.elf:     file format elf32-littlearm


Disassembly of section .text:

00008000 <__code_start__>:
    8000:	e3a00013 	mov	r0, #19, 0
    8004:	e3800080 	orr	r0, r0, #128, 0	; 0x80
    8008:	e129f000 	msr	CPSR_fc, r0
    800c:	e3a01000 	mov	r1, #0, 0
    8010:	ee071f95 	mcr	15, 0, r1, cr7, cr5, {4}
    8014:	e3a0d302 	mov	sp, #134217728	; 0x8000000
    8018:	e3a0b000 	mov	fp, #0, 0
    801c:	eb00213d 	bl	10518 <_cstart>
    8020:	eb00215b 	bl	10594 <rpi_reboot>

00008024 <PUT32>:
    8024:	e5801000 	str	r1, [r0]
    8028:	e12fff1e 	bx	lr

0000802c <GET32>:
    802c:	e5900000 	ldr	r0, [r0]
    8030:	e12fff1e 	bx	lr

00008034 <BRANCHTO>:
    8034:	e12fff10 	bx	r0

00008038 <make_filename>:
    8038:	e92d4010 	push	{r4, lr}
    803c:	e3a03046 	mov	r3, #70, 0	; 0x46
    8040:	e5c03000 	strb	r3, [r0]
    8044:	e3a0c052 	mov	ip, #82, 0	; 0x52
    8048:	e5c0c001 	strb	ip, [r0, #1]
    804c:	e3a0304d 	mov	r3, #77, 0	; 0x4d
    8050:	e5c03002 	strb	r3, [r0, #2]
    8054:	e59fe09c 	ldr	lr, [pc, #156]	; 80f8 <make_filename+0xc0>
    8058:	e08e319e 	umull	r3, lr, lr, r1
    805c:	e1a0e32e 	lsr	lr, lr, #6
    8060:	e59f3094 	ldr	r3, [pc, #148]	; 80fc <make_filename+0xc4>
    8064:	e0824e93 	umull	r4, r2, r3, lr
    8068:	e1a021a2 	lsr	r2, r2, #3
    806c:	e0822102 	add	r2, r2, r2, lsl #2
    8070:	e04e2082 	sub	r2, lr, r2, lsl #1
    8074:	e2822030 	add	r2, r2, #48, 0	; 0x30
    8078:	e5c02003 	strb	r2, [r0, #3]
    807c:	e59fe07c 	ldr	lr, [pc, #124]	; 8100 <make_filename+0xc8>
    8080:	e08e219e 	umull	r2, lr, lr, r1
    8084:	e1a0e2ae 	lsr	lr, lr, #5
    8088:	e0824e93 	umull	r4, r2, r3, lr
    808c:	e1a021a2 	lsr	r2, r2, #3
    8090:	e0822102 	add	r2, r2, r2, lsl #2
    8094:	e04e2082 	sub	r2, lr, r2, lsl #1
    8098:	e2822030 	add	r2, r2, #48, 0	; 0x30
    809c:	e5c02004 	strb	r2, [r0, #4]
    80a0:	e082e193 	umull	lr, r2, r3, r1
    80a4:	e1a021a2 	lsr	r2, r2, #3
    80a8:	e083e293 	umull	lr, r3, r3, r2
    80ac:	e1a031a3 	lsr	r3, r3, #3
    80b0:	e0833103 	add	r3, r3, r3, lsl #2
    80b4:	e0423083 	sub	r3, r2, r3, lsl #1
    80b8:	e2833030 	add	r3, r3, #48, 0	; 0x30
    80bc:	e5c03005 	strb	r3, [r0, #5]
    80c0:	e0822102 	add	r2, r2, r2, lsl #2
    80c4:	e0411082 	sub	r1, r1, r2, lsl #1
    80c8:	e2811030 	add	r1, r1, #48, 0	; 0x30
    80cc:	e5c01006 	strb	r1, [r0, #6]
    80d0:	e3a0302e 	mov	r3, #46, 0	; 0x2e
    80d4:	e5c03007 	strb	r3, [r0, #7]
    80d8:	e5c0c008 	strb	ip, [r0, #8]
    80dc:	e3a03041 	mov	r3, #65, 0	; 0x41
    80e0:	e5c03009 	strb	r3, [r0, #9]
    80e4:	e3a03057 	mov	r3, #87, 0	; 0x57
    80e8:	e5c0300a 	strb	r3, [r0, #10]
    80ec:	e3a03000 	mov	r3, #0, 0
    80f0:	e5c0300b 	strb	r3, [r0, #11]
    80f4:	e8bd8010 	pop	{r4, pc}
    80f8:	10624dd3 	.word	0x10624dd3
    80fc:	cccccccd 	.word	0xcccccccd
    8100:	51eb851f 	.word	0x51eb851f

00008104 <interrupt_vector>:
    8104:	e92d4010 	push	{r4, lr}
    8108:	eb00211b 	bl	1057c <dev_barrier>
    810c:	e3a0001b 	mov	r0, #27, 0
    8110:	eb002321 	bl	10d9c <gpio_event_detected>
    8114:	e3500000 	cmp	r0, #0, 0
    8118:	1a000001 	bne	8124 <interrupt_vector+0x20>
    811c:	eb002116 	bl	1057c <dev_barrier>
    8120:	e8bd8010 	pop	{r4, pc}
    8124:	e59f3010 	ldr	r3, [pc, #16]	; 813c <interrupt_vector+0x38>
    8128:	e3a02001 	mov	r2, #1, 0
    812c:	e5832000 	str	r2, [r3]
    8130:	e3a0001b 	mov	r0, #27, 0
    8134:	eb00232f 	bl	10df8 <gpio_event_clear>
    8138:	eafffff7 	b	811c <interrupt_vector+0x18>
    813c:	00014c48 	.word	0x00014c48

00008140 <notmain>:
    8140:	e92d4010 	push	{r4, lr}
    8144:	e24dd028 	sub	sp, sp, #40, 0	; 0x28
    8148:	e59f01e0 	ldr	r0, [pc, #480]	; 8330 <notmain+0x1f0>
    814c:	eb001fac 	bl	10004 <printk>
    8150:	e28d0014 	add	r0, sp, #20, 0
    8154:	eb00086f 	bl	a318 <frame_init>
    8158:	eb000936 	bl	a638 <frame_sd_init>
    815c:	e3a0001b 	mov	r0, #27, 0
    8160:	eb001f06 	bl	fd80 <gpio_set_input>
    8164:	e3a0001b 	mov	r0, #27, 0
    8168:	eb0021b8 	bl	10850 <gpio_set_pulldown>
    816c:	e10f3000 	mrs	r3, CPSR
    8170:	e3833080 	orr	r3, r3, #128, 0	; 0x80
    8174:	e129f003 	msr	CPSR_fc, r3
    8178:	eb0020ff 	bl	1057c <dev_barrier>
    817c:	e3e01000 	mvn	r1, #0, 0
    8180:	e59f01ac 	ldr	r0, [pc, #428]	; 8334 <notmain+0x1f4>
    8184:	ebffffa6 	bl	8024 <PUT32>
    8188:	e3e01000 	mvn	r1, #0, 0
    818c:	e59f01a4 	ldr	r0, [pc, #420]	; 8338 <notmain+0x1f8>
    8190:	ebffffa3 	bl	8024 <PUT32>
    8194:	eb0020f8 	bl	1057c <dev_barrier>
    8198:	ee1c3f10 	mrc	15, 0, r3, cr12, cr0, {0}
    819c:	e59f2198 	ldr	r2, [pc, #408]	; 833c <notmain+0x1fc>
    81a0:	e1530002 	cmp	r3, r2
    81a4:	0a00000a 	beq	81d4 <notmain+0x94>
    81a8:	e3530000 	cmp	r3, #0, 0
    81ac:	1a000014 	bne	8204 <notmain+0xc4>
    81b0:	e59f3184 	ldr	r3, [pc, #388]	; 833c <notmain+0x1fc>
    81b4:	e3130005 	tst	r3, #5, 0
    81b8:	1a000018 	bne	8220 <notmain+0xe0>
    81bc:	ee1c2f10 	mrc	15, 0, r2, cr12, cr0, {0}
    81c0:	ee070f95 	mcr	15, 0, r0, cr7, cr5, {4}
    81c4:	ee0c3f10 	mcr	15, 0, r3, cr12, cr0, {0}
    81c8:	ee1c2f10 	mrc	15, 0, r2, cr12, cr0, {0}
    81cc:	e1520003 	cmp	r2, r3
    81d0:	1a00001a 	bne	8240 <notmain+0x100>
    81d4:	e3a0001b 	mov	r0, #27, 0
    81d8:	eb0021e0 	bl	10960 <gpio_int_rising_edge>
    81dc:	e3a0001b 	mov	r0, #27, 0
    81e0:	eb002304 	bl	10df8 <gpio_event_clear>
    81e4:	e10f3000 	mrs	r3, CPSR
    81e8:	e3c33080 	bic	r3, r3, #128, 0	; 0x80
    81ec:	e129f003 	msr	CPSR_fc, r3
    81f0:	e3a01064 	mov	r1, #100, 0	; 0x64
    81f4:	e59f0144 	ldr	r0, [pc, #324]	; 8340 <notmain+0x200>
    81f8:	eb001f81 	bl	10004 <printk>
    81fc:	e3a04000 	mov	r4, #0, 0
    8200:	ea000021 	b	828c <notmain+0x14c>
    8204:	e58d3000 	str	r3, [sp]
    8208:	e3a03053 	mov	r3, #83, 0	; 0x53
    820c:	e59f2130 	ldr	r2, [pc, #304]	; 8344 <notmain+0x204>
    8210:	e59f1130 	ldr	r1, [pc, #304]	; 8348 <notmain+0x208>
    8214:	e59f0130 	ldr	r0, [pc, #304]	; 834c <notmain+0x20c>
    8218:	eb001f79 	bl	10004 <printk>
    821c:	eb0020b2 	bl	104ec <clean_reboot>
    8220:	e59f3114 	ldr	r3, [pc, #276]	; 833c <notmain+0x1fc>
    8224:	e58d3000 	str	r3, [sp]
    8228:	e3a0303a 	mov	r3, #58, 0	; 0x3a
    822c:	e59f211c 	ldr	r2, [pc, #284]	; 8350 <notmain+0x210>
    8230:	e59f1110 	ldr	r1, [pc, #272]	; 8348 <notmain+0x208>
    8234:	e59f0118 	ldr	r0, [pc, #280]	; 8354 <notmain+0x214>
    8238:	eb001f71 	bl	10004 <printk>
    823c:	eb0020aa 	bl	104ec <clean_reboot>
    8240:	e59f3110 	ldr	r3, [pc, #272]	; 8358 <notmain+0x218>
    8244:	e58d3000 	str	r3, [sp]
    8248:	e3a03046 	mov	r3, #70, 0	; 0x46
    824c:	e59f20fc 	ldr	r2, [pc, #252]	; 8350 <notmain+0x210>
    8250:	e59f10f0 	ldr	r1, [pc, #240]	; 8348 <notmain+0x208>
    8254:	e59f0100 	ldr	r0, [pc, #256]	; 835c <notmain+0x21c>
    8258:	eb001f69 	bl	10004 <printk>
    825c:	eb0020a2 	bl	104ec <clean_reboot>
    8260:	e28d1008 	add	r1, sp, #8, 0
    8264:	e59f00f4 	ldr	r0, [pc, #244]	; 8360 <notmain+0x220>
    8268:	eb001f65 	bl	10004 <printk>
    826c:	ea000001 	b	8278 <notmain+0x138>
    8270:	e59f00ec 	ldr	r0, [pc, #236]	; 8364 <notmain+0x224>
    8274:	eb001f62 	bl	10004 <printk>
    8278:	e3a000c8 	mov	r0, #200, 0	; 0xc8
    827c:	eb0020e9 	bl	10628 <delay_ms>
    8280:	e3a0001b 	mov	r0, #27, 0
    8284:	eb0022db 	bl	10df8 <gpio_event_clear>
    8288:	e2844001 	add	r4, r4, #1, 0
    828c:	e3540063 	cmp	r4, #99, 0	; 0x63
    8290:	8a000020 	bhi	8318 <notmain+0x1d8>
    8294:	e59f30cc 	ldr	r3, [pc, #204]	; 8368 <notmain+0x228>
    8298:	e5933000 	ldr	r3, [r3]
    829c:	e3530000 	cmp	r3, #0, 0
    82a0:	0afffffb 	beq	8294 <notmain+0x154>
    82a4:	e59f30bc 	ldr	r3, [pc, #188]	; 8368 <notmain+0x228>
    82a8:	e3a02000 	mov	r2, #0, 0
    82ac:	e5832000 	str	r2, [r3]
    82b0:	e1a01004 	mov	r1, r4
    82b4:	e59f00b0 	ldr	r0, [pc, #176]	; 836c <notmain+0x22c>
    82b8:	eb001f51 	bl	10004 <printk>
    82bc:	e28d0014 	add	r0, sp, #20, 0
    82c0:	eb0008c8 	bl	a5e8 <frame_capture>
    82c4:	e1a01000 	mov	r1, r0
    82c8:	e3700003 	cmn	r0, #3, 0
    82cc:	13a03000 	movne	r3, #0, 0
    82d0:	03a03001 	moveq	r3, #1, 0
    82d4:	e3500000 	cmp	r0, #0, 0
    82d8:	03a03001 	moveq	r3, #1, 0
    82dc:	e3530000 	cmp	r3, #0, 0
    82e0:	0affffe2 	beq	8270 <notmain+0x130>
    82e4:	e1a01004 	mov	r1, r4
    82e8:	e28d0008 	add	r0, sp, #8, 0
    82ec:	ebffff51 	bl	8038 <make_filename>
    82f0:	e28d1008 	add	r1, sp, #8, 0
    82f4:	e28d0014 	add	r0, sp, #20, 0
    82f8:	eb0008f7 	bl	a6dc <frame_save>
    82fc:	e3500000 	cmp	r0, #0, 0
    8300:	0affffd6 	beq	8260 <notmain+0x120>
    8304:	e59f2064 	ldr	r2, [pc, #100]	; 8370 <notmain+0x230>
    8308:	e28d1008 	add	r1, sp, #8, 0
    830c:	e59f0060 	ldr	r0, [pc, #96]	; 8374 <notmain+0x234>
    8310:	eb001f3b 	bl	10004 <printk>
    8314:	eaffffd7 	b	8278 <notmain+0x138>
    8318:	e3a01064 	mov	r1, #100, 0	; 0x64
    831c:	e59f0054 	ldr	r0, [pc, #84]	; 8378 <notmain+0x238>
    8320:	eb001f37 	bl	10004 <printk>
    8324:	e28d0014 	add	r0, sp, #20, 0
    8328:	eb00091d 	bl	a7a4 <frame_cleanup>
    832c:	eb00206e 	bl	104ec <clean_reboot>
    8330:	00011380 	.word	0x00011380
    8334:	2000b21c 	.word	0x2000b21c
    8338:	2000b220 	.word	0x2000b220
    833c:	00008380 	.word	0x00008380
    8340:	000114a4 	.word	0x000114a4
    8344:	00011558 	.word	0x00011558
    8348:	000113a8 	.word	0x000113a8
    834c:	000113f8 	.word	0x000113f8
    8350:	00011568 	.word	0x00011568
    8354:	00011430 	.word	0x00011430
    8358:	00011488 	.word	0x00011488
    835c:	00011458 	.word	0x00011458
    8360:	00011500 	.word	0x00011500
    8364:	0001151c 	.word	0x0001151c
    8368:	00014c48 	.word	0x00014c48
    836c:	000114d0 	.word	0x000114d0
    8370:	0046e100 	.word	0x0046e100
    8374:	000114e8 	.word	0x000114e8
    8378:	0001153c 	.word	0x0001153c
    837c:	00000000 	.word	0x00000000

00008380 <interrupt_vec>:
    8380:	e59ff02c 	ldr	pc, [pc, #44]	; 83b4 <interrupt_asm+0x1c>
    8384:	e59ff02c 	ldr	pc, [pc, #44]	; 83b8 <interrupt_asm+0x20>
    8388:	e59ff02c 	ldr	pc, [pc, #44]	; 83bc <interrupt_asm+0x24>
    838c:	e59ff02c 	ldr	pc, [pc, #44]	; 83c0 <interrupt_asm+0x28>
    8390:	e59ff02c 	ldr	pc, [pc, #44]	; 83c4 <interrupt_asm+0x2c>
    8394:	e59ff02c 	ldr	pc, [pc, #44]	; 83c8 <interrupt_asm+0x30>

00008398 <interrupt_asm>:
    8398:	e3a0d409 	mov	sp, #150994944	; 0x9000000
    839c:	e24ee004 	sub	lr, lr, #4, 0
    83a0:	e92d5fff 	push	{r0, r1, r2, r3, r4, r5, r6, r7, r8, r9, sl, fp, ip, lr}
    83a4:	e1a0000e 	mov	r0, lr
    83a8:	ebffff55 	bl	8104 <interrupt_vector>
    83ac:	e8bd5fff 	pop	{r0, r1, r2, r3, r4, r5, r6, r7, r8, r9, sl, fp, ip, lr}
    83b0:	e1b0f00e 	movs	pc, lr
    83b4:	00010658 	.word	0x00010658
    83b8:	00010674 	.word	0x00010674
    83bc:	000106e4 	.word	0x000106e4
    83c0:	00010690 	.word	0x00010690
    83c4:	000106ac 	.word	0x000106ac
    83c8:	00008398 	.word	0x00008398

000083cc <msg_dump>:
    83cc:	e92d4070 	push	{r4, r5, r6, lr}
    83d0:	e1a06001 	mov	r6, r1
    83d4:	e1a05002 	mov	r5, r2
    83d8:	e1a01000 	mov	r1, r0
    83dc:	e59f0024 	ldr	r0, [pc, #36]	; 8408 <msg_dump+0x3c>
    83e0:	eb001f07 	bl	10004 <printk>
    83e4:	e3a04000 	mov	r4, #0, 0
    83e8:	e1540005 	cmp	r4, r5
    83ec:	28bd8070 	popcs	{r4, r5, r6, pc}
    83f0:	e7962104 	ldr	r2, [r6, r4, lsl #2]
    83f4:	e1a01004 	mov	r1, r4
    83f8:	e59f000c 	ldr	r0, [pc, #12]	; 840c <msg_dump+0x40>
    83fc:	eb001f00 	bl	10004 <printk>
    8400:	e2844001 	add	r4, r4, #1, 0
    8404:	eafffff7 	b	83e8 <msg_dump+0x1c>
    8408:	0001157c 	.word	0x0001157c
    840c:	00011580 	.word	0x00011580

00008410 <rpi_get_serialnum>:
    8410:	e92d4010 	push	{r4, lr}
    8414:	e24dd030 	sub	sp, sp, #48, 0	; 0x30
    8418:	e28d4017 	add	r4, sp, #23, 0
    841c:	e3c4400f 	bic	r4, r4, #15, 0
    8420:	e3a03020 	mov	r3, #32, 0
    8424:	e5843000 	str	r3, [r4]
    8428:	e3a03000 	mov	r3, #0, 0
    842c:	e5843004 	str	r3, [r4, #4]
    8430:	e59f213c 	ldr	r2, [pc, #316]	; 8574 <rpi_get_serialnum+0x164>
    8434:	e5842008 	str	r2, [r4, #8]
    8438:	e3a02008 	mov	r2, #8, 0
    843c:	e584200c 	str	r2, [r4, #12]
    8440:	e5843010 	str	r3, [r4, #16]
    8444:	e5843014 	str	r3, [r4, #20]
    8448:	e5843018 	str	r3, [r4, #24]
    844c:	e584301c 	str	r3, [r4, #28]
    8450:	eb002049 	bl	1057c <dev_barrier>
    8454:	e59f011c 	ldr	r0, [pc, #284]	; 8578 <rpi_get_serialnum+0x168>
    8458:	ebfffef3 	bl	802c <GET32>
    845c:	e3500000 	cmp	r0, #0, 0
    8460:	bafffffb 	blt	8454 <rpi_get_serialnum+0x44>
    8464:	e3841121 	orr	r1, r4, #1073741832	; 0x40000008
    8468:	e59f010c 	ldr	r0, [pc, #268]	; 857c <rpi_get_serialnum+0x16c>
    846c:	ebfffeec 	bl	8024 <PUT32>
    8470:	eb002041 	bl	1057c <dev_barrier>
    8474:	eb002040 	bl	1057c <dev_barrier>
    8478:	e59f00f8 	ldr	r0, [pc, #248]	; 8578 <rpi_get_serialnum+0x168>
    847c:	ebfffeea 	bl	802c <GET32>
    8480:	e3100101 	tst	r0, #1073741824	; 0x40000000
    8484:	1afffffb 	bne	8478 <rpi_get_serialnum+0x68>
    8488:	e59f00f0 	ldr	r0, [pc, #240]	; 8580 <rpi_get_serialnum+0x170>
    848c:	ebfffee6 	bl	802c <GET32>
    8490:	e200000f 	and	r0, r0, #15, 0
    8494:	e3500008 	cmp	r0, #8, 0
    8498:	1a00000f 	bne	84dc <rpi_get_serialnum+0xcc>
    849c:	e5943004 	ldr	r3, [r4, #4]
    84a0:	e3530102 	cmp	r3, #-2147483648	; 0x80000000
    84a4:	1a000012 	bne	84f4 <rpi_get_serialnum+0xe4>
    84a8:	e5943004 	ldr	r3, [r4, #4]
    84ac:	e3530102 	cmp	r3, #-2147483648	; 0x80000000
    84b0:	1a000017 	bne	8514 <rpi_get_serialnum+0x104>
    84b4:	e5943010 	ldr	r3, [r4, #16]
    84b8:	e3530122 	cmp	r3, #-2147483640	; 0x80000008
    84bc:	1a00001c 	bne	8534 <rpi_get_serialnum+0x124>
    84c0:	e5943018 	ldr	r3, [r4, #24]
    84c4:	e3530000 	cmp	r3, #0, 0
    84c8:	1a000021 	bne	8554 <rpi_get_serialnum+0x144>
    84cc:	e5940014 	ldr	r0, [r4, #20]
    84d0:	e3a01000 	mov	r1, #0, 0
    84d4:	e28dd030 	add	sp, sp, #48, 0	; 0x30
    84d8:	e8bd8010 	pop	{r4, pc}
    84dc:	e3a03056 	mov	r3, #86, 0	; 0x56
    84e0:	e59f209c 	ldr	r2, [pc, #156]	; 8584 <rpi_get_serialnum+0x174>
    84e4:	e59f109c 	ldr	r1, [pc, #156]	; 8588 <rpi_get_serialnum+0x178>
    84e8:	e59f009c 	ldr	r0, [pc, #156]	; 858c <rpi_get_serialnum+0x17c>
    84ec:	eb001ec4 	bl	10004 <printk>
    84f0:	eb001ffd 	bl	104ec <clean_reboot>
    84f4:	e5943004 	ldr	r3, [r4, #4]
    84f8:	e58d3000 	str	r3, [sp]
    84fc:	e3a03067 	mov	r3, #103, 0	; 0x67
    8500:	e59f2088 	ldr	r2, [pc, #136]	; 8590 <rpi_get_serialnum+0x180>
    8504:	e59f107c 	ldr	r1, [pc, #124]	; 8588 <rpi_get_serialnum+0x178>
    8508:	e59f0084 	ldr	r0, [pc, #132]	; 8594 <rpi_get_serialnum+0x184>
    850c:	eb001ebc 	bl	10004 <printk>
    8510:	eb001ff5 	bl	104ec <clean_reboot>
    8514:	e5943004 	ldr	r3, [r4, #4]
    8518:	e58d3000 	str	r3, [sp]
    851c:	e3a03030 	mov	r3, #48, 0	; 0x30
    8520:	e59f2070 	ldr	r2, [pc, #112]	; 8598 <rpi_get_serialnum+0x188>
    8524:	e59f1070 	ldr	r1, [pc, #112]	; 859c <rpi_get_serialnum+0x18c>
    8528:	e59f0064 	ldr	r0, [pc, #100]	; 8594 <rpi_get_serialnum+0x184>
    852c:	eb001eb4 	bl	10004 <printk>
    8530:	eb001fed 	bl	104ec <clean_reboot>
    8534:	e59f3064 	ldr	r3, [pc, #100]	; 85a0 <rpi_get_serialnum+0x190>
    8538:	e58d3000 	str	r3, [sp]
    853c:	e3a03033 	mov	r3, #51, 0	; 0x33
    8540:	e59f2050 	ldr	r2, [pc, #80]	; 8598 <rpi_get_serialnum+0x188>
    8544:	e59f1050 	ldr	r1, [pc, #80]	; 859c <rpi_get_serialnum+0x18c>
    8548:	e59f0054 	ldr	r0, [pc, #84]	; 85a4 <rpi_get_serialnum+0x194>
    854c:	eb001eac 	bl	10004 <printk>
    8550:	eb001fe5 	bl	104ec <clean_reboot>
    8554:	e59f304c 	ldr	r3, [pc, #76]	; 85a8 <rpi_get_serialnum+0x198>
    8558:	e58d3000 	str	r3, [sp]
    855c:	e3a03037 	mov	r3, #55, 0	; 0x37
    8560:	e59f2030 	ldr	r2, [pc, #48]	; 8598 <rpi_get_serialnum+0x188>
    8564:	e59f1030 	ldr	r1, [pc, #48]	; 859c <rpi_get_serialnum+0x18c>
    8568:	e59f0034 	ldr	r0, [pc, #52]	; 85a4 <rpi_get_serialnum+0x194>
    856c:	eb001ea4 	bl	10004 <printk>
    8570:	eb001fdd 	bl	104ec <clean_reboot>
    8574:	00010004 	.word	0x00010004
    8578:	2000b898 	.word	0x2000b898
    857c:	2000b8a0 	.word	0x2000b8a0
    8580:	2000b880 	.word	0x2000b880
    8584:	00011668 	.word	0x00011668
    8588:	0001158c 	.word	0x0001158c
    858c:	00011594 	.word	0x00011594
    8590:	00011674 	.word	0x00011674
    8594:	000115dc 	.word	0x000115dc
    8598:	00011680 	.word	0x00011680
    859c:	00011608 	.word	0x00011608
    85a0:	00011610 	.word	0x00011610
    85a4:	00011458 	.word	0x00011458
    85a8:	00011628 	.word	0x00011628

000085ac <rpi_get_memsize>:
    85ac:	e92d4010 	push	{r4, lr}
    85b0:	e24dd030 	sub	sp, sp, #48, 0	; 0x30
    85b4:	e28d4017 	add	r4, sp, #23, 0
    85b8:	e3c4400f 	bic	r4, r4, #15, 0
    85bc:	e3a03020 	mov	r3, #32, 0
    85c0:	e5843000 	str	r3, [r4]
    85c4:	e3a03000 	mov	r3, #0, 0
    85c8:	e5843004 	str	r3, [r4, #4]
    85cc:	e59f210c 	ldr	r2, [pc, #268]	; 86e0 <rpi_get_memsize+0x134>
    85d0:	e5842008 	str	r2, [r4, #8]
    85d4:	e3a02008 	mov	r2, #8, 0
    85d8:	e584200c 	str	r2, [r4, #12]
    85dc:	e5843010 	str	r3, [r4, #16]
    85e0:	e5843014 	str	r3, [r4, #20]
    85e4:	e5843018 	str	r3, [r4, #24]
    85e8:	e584301c 	str	r3, [r4, #28]
    85ec:	eb001fe2 	bl	1057c <dev_barrier>
    85f0:	e59f00ec 	ldr	r0, [pc, #236]	; 86e4 <rpi_get_memsize+0x138>
    85f4:	ebfffe8c 	bl	802c <GET32>
    85f8:	e3500000 	cmp	r0, #0, 0
    85fc:	bafffffb 	blt	85f0 <rpi_get_memsize+0x44>
    8600:	e3841121 	orr	r1, r4, #1073741832	; 0x40000008
    8604:	e59f00dc 	ldr	r0, [pc, #220]	; 86e8 <rpi_get_memsize+0x13c>
    8608:	ebfffe85 	bl	8024 <PUT32>
    860c:	eb001fda 	bl	1057c <dev_barrier>
    8610:	eb001fd9 	bl	1057c <dev_barrier>
    8614:	e59f00c8 	ldr	r0, [pc, #200]	; 86e4 <rpi_get_memsize+0x138>
    8618:	ebfffe83 	bl	802c <GET32>
    861c:	e3100101 	tst	r0, #1073741824	; 0x40000000
    8620:	1afffffb 	bne	8614 <rpi_get_memsize+0x68>
    8624:	e59f00c0 	ldr	r0, [pc, #192]	; 86ec <rpi_get_memsize+0x140>
    8628:	ebfffe7f 	bl	802c <GET32>
    862c:	e200000f 	and	r0, r0, #15, 0
    8630:	e3500008 	cmp	r0, #8, 0
    8634:	1a00000b 	bne	8668 <rpi_get_memsize+0xbc>
    8638:	e5943004 	ldr	r3, [r4, #4]
    863c:	e3530102 	cmp	r3, #-2147483648	; 0x80000000
    8640:	1a00000e 	bne	8680 <rpi_get_memsize+0xd4>
    8644:	e5943004 	ldr	r3, [r4, #4]
    8648:	e3530102 	cmp	r3, #-2147483648	; 0x80000000
    864c:	1a000013 	bne	86a0 <rpi_get_memsize+0xf4>
    8650:	e5943010 	ldr	r3, [r4, #16]
    8654:	e3530122 	cmp	r3, #-2147483640	; 0x80000008
    8658:	1a000018 	bne	86c0 <rpi_get_memsize+0x114>
    865c:	e5940018 	ldr	r0, [r4, #24]
    8660:	e28dd030 	add	sp, sp, #48, 0	; 0x30
    8664:	e8bd8010 	pop	{r4, pc}
    8668:	e3a03056 	mov	r3, #86, 0	; 0x56
    866c:	e59f207c 	ldr	r2, [pc, #124]	; 86f0 <rpi_get_memsize+0x144>
    8670:	e59f107c 	ldr	r1, [pc, #124]	; 86f4 <rpi_get_memsize+0x148>
    8674:	e59f007c 	ldr	r0, [pc, #124]	; 86f8 <rpi_get_memsize+0x14c>
    8678:	eb001e61 	bl	10004 <printk>
    867c:	eb001f9a 	bl	104ec <clean_reboot>
    8680:	e5943004 	ldr	r3, [r4, #4]
    8684:	e58d3000 	str	r3, [sp]
    8688:	e3a03067 	mov	r3, #103, 0	; 0x67
    868c:	e59f2068 	ldr	r2, [pc, #104]	; 86fc <rpi_get_memsize+0x150>
    8690:	e59f105c 	ldr	r1, [pc, #92]	; 86f4 <rpi_get_memsize+0x148>
    8694:	e59f0064 	ldr	r0, [pc, #100]	; 8700 <rpi_get_memsize+0x154>
    8698:	eb001e59 	bl	10004 <printk>
    869c:	eb001f92 	bl	104ec <clean_reboot>
    86a0:	e5943004 	ldr	r3, [r4, #4]
    86a4:	e58d3000 	str	r3, [sp]
    86a8:	e3a03057 	mov	r3, #87, 0	; 0x57
    86ac:	e59f2050 	ldr	r2, [pc, #80]	; 8704 <rpi_get_memsize+0x158>
    86b0:	e59f1050 	ldr	r1, [pc, #80]	; 8708 <rpi_get_memsize+0x15c>
    86b4:	e59f0044 	ldr	r0, [pc, #68]	; 8700 <rpi_get_memsize+0x154>
    86b8:	eb001e51 	bl	10004 <printk>
    86bc:	eb001f8a 	bl	104ec <clean_reboot>
    86c0:	e59f3044 	ldr	r3, [pc, #68]	; 870c <rpi_get_memsize+0x160>
    86c4:	e58d3000 	str	r3, [sp]
    86c8:	e3a0305a 	mov	r3, #90, 0	; 0x5a
    86cc:	e59f2030 	ldr	r2, [pc, #48]	; 8704 <rpi_get_memsize+0x158>
    86d0:	e59f1030 	ldr	r1, [pc, #48]	; 8708 <rpi_get_memsize+0x15c>
    86d4:	e59f0034 	ldr	r0, [pc, #52]	; 8710 <rpi_get_memsize+0x164>
    86d8:	eb001e49 	bl	10004 <printk>
    86dc:	eb001f82 	bl	104ec <clean_reboot>
    86e0:	00010005 	.word	0x00010005
    86e4:	2000b898 	.word	0x2000b898
    86e8:	2000b8a0 	.word	0x2000b8a0
    86ec:	2000b880 	.word	0x2000b880
    86f0:	00011668 	.word	0x00011668
    86f4:	0001158c 	.word	0x0001158c
    86f8:	00011594 	.word	0x00011594
    86fc:	00011674 	.word	0x00011674
    8700:	000115dc 	.word	0x000115dc
    8704:	00011694 	.word	0x00011694
    8708:	00011608 	.word	0x00011608
    870c:	00011610 	.word	0x00011610
    8710:	00011458 	.word	0x00011458

00008714 <rpi_get_model>:
    8714:	e92d4010 	push	{r4, lr}
    8718:	e24dd030 	sub	sp, sp, #48, 0	; 0x30
    871c:	e28d4017 	add	r4, sp, #23, 0
    8720:	e3c4400f 	bic	r4, r4, #15, 0
    8724:	e3a03020 	mov	r3, #32, 0
    8728:	e5843000 	str	r3, [r4]
    872c:	e3a03000 	mov	r3, #0, 0
    8730:	e5843004 	str	r3, [r4, #4]
    8734:	e59f210c 	ldr	r2, [pc, #268]	; 8848 <rpi_get_model+0x134>
    8738:	e5842008 	str	r2, [r4, #8]
    873c:	e3a02004 	mov	r2, #4, 0
    8740:	e584200c 	str	r2, [r4, #12]
    8744:	e5843010 	str	r3, [r4, #16]
    8748:	e5843014 	str	r3, [r4, #20]
    874c:	e5843018 	str	r3, [r4, #24]
    8750:	e584301c 	str	r3, [r4, #28]
    8754:	eb001f88 	bl	1057c <dev_barrier>
    8758:	e59f00ec 	ldr	r0, [pc, #236]	; 884c <rpi_get_model+0x138>
    875c:	ebfffe32 	bl	802c <GET32>
    8760:	e3500000 	cmp	r0, #0, 0
    8764:	bafffffb 	blt	8758 <rpi_get_model+0x44>
    8768:	e3841121 	orr	r1, r4, #1073741832	; 0x40000008
    876c:	e59f00dc 	ldr	r0, [pc, #220]	; 8850 <rpi_get_model+0x13c>
    8770:	ebfffe2b 	bl	8024 <PUT32>
    8774:	eb001f80 	bl	1057c <dev_barrier>
    8778:	eb001f7f 	bl	1057c <dev_barrier>
    877c:	e59f00c8 	ldr	r0, [pc, #200]	; 884c <rpi_get_model+0x138>
    8780:	ebfffe29 	bl	802c <GET32>
    8784:	e3100101 	tst	r0, #1073741824	; 0x40000000
    8788:	1afffffb 	bne	877c <rpi_get_model+0x68>
    878c:	e59f00c0 	ldr	r0, [pc, #192]	; 8854 <rpi_get_model+0x140>
    8790:	ebfffe25 	bl	802c <GET32>
    8794:	e200000f 	and	r0, r0, #15, 0
    8798:	e3500008 	cmp	r0, #8, 0
    879c:	1a00000b 	bne	87d0 <rpi_get_model+0xbc>
    87a0:	e5943004 	ldr	r3, [r4, #4]
    87a4:	e3530102 	cmp	r3, #-2147483648	; 0x80000000
    87a8:	1a00000e 	bne	87e8 <rpi_get_model+0xd4>
    87ac:	e5943004 	ldr	r3, [r4, #4]
    87b0:	e3530102 	cmp	r3, #-2147483648	; 0x80000000
    87b4:	1a000013 	bne	8808 <rpi_get_model+0xf4>
    87b8:	e5943010 	ldr	r3, [r4, #16]
    87bc:	e3530112 	cmp	r3, #-2147483644	; 0x80000004
    87c0:	1a000018 	bne	8828 <rpi_get_model+0x114>
    87c4:	e5940014 	ldr	r0, [r4, #20]
    87c8:	e28dd030 	add	sp, sp, #48, 0	; 0x30
    87cc:	e8bd8010 	pop	{r4, pc}
    87d0:	e3a03056 	mov	r3, #86, 0	; 0x56
    87d4:	e59f207c 	ldr	r2, [pc, #124]	; 8858 <rpi_get_model+0x144>
    87d8:	e59f107c 	ldr	r1, [pc, #124]	; 885c <rpi_get_model+0x148>
    87dc:	e59f007c 	ldr	r0, [pc, #124]	; 8860 <rpi_get_model+0x14c>
    87e0:	eb001e07 	bl	10004 <printk>
    87e4:	eb001f40 	bl	104ec <clean_reboot>
    87e8:	e5943004 	ldr	r3, [r4, #4]
    87ec:	e58d3000 	str	r3, [sp]
    87f0:	e3a03067 	mov	r3, #103, 0	; 0x67
    87f4:	e59f2068 	ldr	r2, [pc, #104]	; 8864 <rpi_get_model+0x150>
    87f8:	e59f105c 	ldr	r1, [pc, #92]	; 885c <rpi_get_model+0x148>
    87fc:	e59f0064 	ldr	r0, [pc, #100]	; 8868 <rpi_get_model+0x154>
    8800:	eb001dff 	bl	10004 <printk>
    8804:	eb001f38 	bl	104ec <clean_reboot>
    8808:	e5943004 	ldr	r3, [r4, #4]
    880c:	e58d3000 	str	r3, [sp]
    8810:	e3a0307b 	mov	r3, #123, 0	; 0x7b
    8814:	e59f2050 	ldr	r2, [pc, #80]	; 886c <rpi_get_model+0x158>
    8818:	e59f1050 	ldr	r1, [pc, #80]	; 8870 <rpi_get_model+0x15c>
    881c:	e59f0044 	ldr	r0, [pc, #68]	; 8868 <rpi_get_model+0x154>
    8820:	eb001df7 	bl	10004 <printk>
    8824:	eb001f30 	bl	104ec <clean_reboot>
    8828:	e59f3044 	ldr	r3, [pc, #68]	; 8874 <rpi_get_model+0x160>
    882c:	e58d3000 	str	r3, [sp]
    8830:	e3a0307e 	mov	r3, #126, 0	; 0x7e
    8834:	e59f2030 	ldr	r2, [pc, #48]	; 886c <rpi_get_model+0x158>
    8838:	e59f1030 	ldr	r1, [pc, #48]	; 8870 <rpi_get_model+0x15c>
    883c:	e59f0034 	ldr	r0, [pc, #52]	; 8878 <rpi_get_model+0x164>
    8840:	eb001def 	bl	10004 <printk>
    8844:	eb001f28 	bl	104ec <clean_reboot>
    8848:	00010001 	.word	0x00010001
    884c:	2000b898 	.word	0x2000b898
    8850:	2000b8a0 	.word	0x2000b8a0
    8854:	2000b880 	.word	0x2000b880
    8858:	00011668 	.word	0x00011668
    885c:	0001158c 	.word	0x0001158c
    8860:	00011594 	.word	0x00011594
    8864:	00011674 	.word	0x00011674
    8868:	000115dc 	.word	0x000115dc
    886c:	000116a4 	.word	0x000116a4
    8870:	00011608 	.word	0x00011608
    8874:	00011634 	.word	0x00011634
    8878:	00011458 	.word	0x00011458

0000887c <rpi_get_revision>:
    887c:	e92d4010 	push	{r4, lr}
    8880:	e24dd030 	sub	sp, sp, #48, 0	; 0x30
    8884:	e28d4017 	add	r4, sp, #23, 0
    8888:	e3c4400f 	bic	r4, r4, #15, 0
    888c:	e3a03020 	mov	r3, #32, 0
    8890:	e5843000 	str	r3, [r4]
    8894:	e3a03000 	mov	r3, #0, 0
    8898:	e5843004 	str	r3, [r4, #4]
    889c:	e59f210c 	ldr	r2, [pc, #268]	; 89b0 <rpi_get_revision+0x134>
    88a0:	e5842008 	str	r2, [r4, #8]
    88a4:	e3a02004 	mov	r2, #4, 0
    88a8:	e584200c 	str	r2, [r4, #12]
    88ac:	e5843010 	str	r3, [r4, #16]
    88b0:	e5843014 	str	r3, [r4, #20]
    88b4:	e5843018 	str	r3, [r4, #24]
    88b8:	e584301c 	str	r3, [r4, #28]
    88bc:	eb001f2e 	bl	1057c <dev_barrier>
    88c0:	e59f00ec 	ldr	r0, [pc, #236]	; 89b4 <rpi_get_revision+0x138>
    88c4:	ebfffdd8 	bl	802c <GET32>
    88c8:	e3500000 	cmp	r0, #0, 0
    88cc:	bafffffb 	blt	88c0 <rpi_get_revision+0x44>
    88d0:	e3841121 	orr	r1, r4, #1073741832	; 0x40000008
    88d4:	e59f00dc 	ldr	r0, [pc, #220]	; 89b8 <rpi_get_revision+0x13c>
    88d8:	ebfffdd1 	bl	8024 <PUT32>
    88dc:	eb001f26 	bl	1057c <dev_barrier>
    88e0:	eb001f25 	bl	1057c <dev_barrier>
    88e4:	e59f00c8 	ldr	r0, [pc, #200]	; 89b4 <rpi_get_revision+0x138>
    88e8:	ebfffdcf 	bl	802c <GET32>
    88ec:	e3100101 	tst	r0, #1073741824	; 0x40000000
    88f0:	1afffffb 	bne	88e4 <rpi_get_revision+0x68>
    88f4:	e59f00c0 	ldr	r0, [pc, #192]	; 89bc <rpi_get_revision+0x140>
    88f8:	ebfffdcb 	bl	802c <GET32>
    88fc:	e200000f 	and	r0, r0, #15, 0
    8900:	e3500008 	cmp	r0, #8, 0
    8904:	1a00000b 	bne	8938 <rpi_get_revision+0xbc>
    8908:	e5943004 	ldr	r3, [r4, #4]
    890c:	e3530102 	cmp	r3, #-2147483648	; 0x80000000
    8910:	1a00000e 	bne	8950 <rpi_get_revision+0xd4>
    8914:	e5943004 	ldr	r3, [r4, #4]
    8918:	e3530102 	cmp	r3, #-2147483648	; 0x80000000
    891c:	1a000013 	bne	8970 <rpi_get_revision+0xf4>
    8920:	e5943010 	ldr	r3, [r4, #16]
    8924:	e3530112 	cmp	r3, #-2147483644	; 0x80000004
    8928:	1a000018 	bne	8990 <rpi_get_revision+0x114>
    892c:	e5940014 	ldr	r0, [r4, #20]
    8930:	e28dd030 	add	sp, sp, #48, 0	; 0x30
    8934:	e8bd8010 	pop	{r4, pc}
    8938:	e3a03056 	mov	r3, #86, 0	; 0x56
    893c:	e59f207c 	ldr	r2, [pc, #124]	; 89c0 <rpi_get_revision+0x144>
    8940:	e59f107c 	ldr	r1, [pc, #124]	; 89c4 <rpi_get_revision+0x148>
    8944:	e59f007c 	ldr	r0, [pc, #124]	; 89c8 <rpi_get_revision+0x14c>
    8948:	eb001dad 	bl	10004 <printk>
    894c:	eb001ee6 	bl	104ec <clean_reboot>
    8950:	e5943004 	ldr	r3, [r4, #4]
    8954:	e58d3000 	str	r3, [sp]
    8958:	e3a03067 	mov	r3, #103, 0	; 0x67
    895c:	e59f2068 	ldr	r2, [pc, #104]	; 89cc <rpi_get_revision+0x150>
    8960:	e59f105c 	ldr	r1, [pc, #92]	; 89c4 <rpi_get_revision+0x148>
    8964:	e59f0064 	ldr	r0, [pc, #100]	; 89d0 <rpi_get_revision+0x154>
    8968:	eb001da5 	bl	10004 <printk>
    896c:	eb001ede 	bl	104ec <clean_reboot>
    8970:	e5943004 	ldr	r3, [r4, #4]
    8974:	e58d3000 	str	r3, [sp]
    8978:	e3a0309f 	mov	r3, #159, 0	; 0x9f
    897c:	e59f2050 	ldr	r2, [pc, #80]	; 89d4 <rpi_get_revision+0x158>
    8980:	e59f1050 	ldr	r1, [pc, #80]	; 89d8 <rpi_get_revision+0x15c>
    8984:	e59f0044 	ldr	r0, [pc, #68]	; 89d0 <rpi_get_revision+0x154>
    8988:	eb001d9d 	bl	10004 <printk>
    898c:	eb001ed6 	bl	104ec <clean_reboot>
    8990:	e59f3044 	ldr	r3, [pc, #68]	; 89dc <rpi_get_revision+0x160>
    8994:	e58d3000 	str	r3, [sp]
    8998:	e3a030a2 	mov	r3, #162, 0	; 0xa2
    899c:	e59f2030 	ldr	r2, [pc, #48]	; 89d4 <rpi_get_revision+0x158>
    89a0:	e59f1030 	ldr	r1, [pc, #48]	; 89d8 <rpi_get_revision+0x15c>
    89a4:	e59f0034 	ldr	r0, [pc, #52]	; 89e0 <rpi_get_revision+0x164>
    89a8:	eb001d95 	bl	10004 <printk>
    89ac:	eb001ece 	bl	104ec <clean_reboot>
    89b0:	00010002 	.word	0x00010002
    89b4:	2000b898 	.word	0x2000b898
    89b8:	2000b8a0 	.word	0x2000b8a0
    89bc:	2000b880 	.word	0x2000b880
    89c0:	00011668 	.word	0x00011668
    89c4:	0001158c 	.word	0x0001158c
    89c8:	00011594 	.word	0x00011594
    89cc:	00011674 	.word	0x00011674
    89d0:	000115dc 	.word	0x000115dc
    89d4:	000116b4 	.word	0x000116b4
    89d8:	00011608 	.word	0x00011608
    89dc:	00011634 	.word	0x00011634
    89e0:	00011458 	.word	0x00011458

000089e4 <rpi_temp_get>:
    89e4:	e92d4010 	push	{r4, lr}
    89e8:	e24dd030 	sub	sp, sp, #48, 0	; 0x30
    89ec:	e28d4017 	add	r4, sp, #23, 0
    89f0:	e3c4400f 	bic	r4, r4, #15, 0
    89f4:	e3a03020 	mov	r3, #32, 0
    89f8:	e5843000 	str	r3, [r4]
    89fc:	e3a03000 	mov	r3, #0, 0
    8a00:	e5843004 	str	r3, [r4, #4]
    8a04:	e59f2138 	ldr	r2, [pc, #312]	; 8b44 <rpi_temp_get+0x160>
    8a08:	e5842008 	str	r2, [r4, #8]
    8a0c:	e3a02008 	mov	r2, #8, 0
    8a10:	e584200c 	str	r2, [r4, #12]
    8a14:	e5843010 	str	r3, [r4, #16]
    8a18:	e5843014 	str	r3, [r4, #20]
    8a1c:	e5843018 	str	r3, [r4, #24]
    8a20:	e584301c 	str	r3, [r4, #28]
    8a24:	eb001ed4 	bl	1057c <dev_barrier>
    8a28:	e59f0118 	ldr	r0, [pc, #280]	; 8b48 <rpi_temp_get+0x164>
    8a2c:	ebfffd7e 	bl	802c <GET32>
    8a30:	e3500000 	cmp	r0, #0, 0
    8a34:	bafffffb 	blt	8a28 <rpi_temp_get+0x44>
    8a38:	e3841121 	orr	r1, r4, #1073741832	; 0x40000008
    8a3c:	e59f0108 	ldr	r0, [pc, #264]	; 8b4c <rpi_temp_get+0x168>
    8a40:	ebfffd77 	bl	8024 <PUT32>
    8a44:	eb001ecc 	bl	1057c <dev_barrier>
    8a48:	eb001ecb 	bl	1057c <dev_barrier>
    8a4c:	e59f00f4 	ldr	r0, [pc, #244]	; 8b48 <rpi_temp_get+0x164>
    8a50:	ebfffd75 	bl	802c <GET32>
    8a54:	e3100101 	tst	r0, #1073741824	; 0x40000000
    8a58:	1afffffb 	bne	8a4c <rpi_temp_get+0x68>
    8a5c:	e59f00ec 	ldr	r0, [pc, #236]	; 8b50 <rpi_temp_get+0x16c>
    8a60:	ebfffd71 	bl	802c <GET32>
    8a64:	e200000f 	and	r0, r0, #15, 0
    8a68:	e3500008 	cmp	r0, #8, 0
    8a6c:	1a00000e 	bne	8aac <rpi_temp_get+0xc8>
    8a70:	e5943004 	ldr	r3, [r4, #4]
    8a74:	e3530102 	cmp	r3, #-2147483648	; 0x80000000
    8a78:	1a000011 	bne	8ac4 <rpi_temp_get+0xe0>
    8a7c:	e5943004 	ldr	r3, [r4, #4]
    8a80:	e3530102 	cmp	r3, #-2147483648	; 0x80000000
    8a84:	1a000016 	bne	8ae4 <rpi_temp_get+0x100>
    8a88:	e5943010 	ldr	r3, [r4, #16]
    8a8c:	e3530122 	cmp	r3, #-2147483640	; 0x80000008
    8a90:	1a00001b 	bne	8b04 <rpi_temp_get+0x120>
    8a94:	e5943014 	ldr	r3, [r4, #20]
    8a98:	e3530000 	cmp	r3, #0, 0
    8a9c:	1a000020 	bne	8b24 <rpi_temp_get+0x140>
    8aa0:	e5940018 	ldr	r0, [r4, #24]
    8aa4:	e28dd030 	add	sp, sp, #48, 0	; 0x30
    8aa8:	e8bd8010 	pop	{r4, pc}
    8aac:	e3a03056 	mov	r3, #86, 0	; 0x56
    8ab0:	e59f209c 	ldr	r2, [pc, #156]	; 8b54 <rpi_temp_get+0x170>
    8ab4:	e59f109c 	ldr	r1, [pc, #156]	; 8b58 <rpi_temp_get+0x174>
    8ab8:	e59f009c 	ldr	r0, [pc, #156]	; 8b5c <rpi_temp_get+0x178>
    8abc:	eb001d50 	bl	10004 <printk>
    8ac0:	eb001e89 	bl	104ec <clean_reboot>
    8ac4:	e5943004 	ldr	r3, [r4, #4]
    8ac8:	e58d3000 	str	r3, [sp]
    8acc:	e3a03067 	mov	r3, #103, 0	; 0x67
    8ad0:	e59f2088 	ldr	r2, [pc, #136]	; 8b60 <rpi_temp_get+0x17c>
    8ad4:	e59f107c 	ldr	r1, [pc, #124]	; 8b58 <rpi_temp_get+0x174>
    8ad8:	e59f0084 	ldr	r0, [pc, #132]	; 8b64 <rpi_temp_get+0x180>
    8adc:	eb001d48 	bl	10004 <printk>
    8ae0:	eb001e81 	bl	104ec <clean_reboot>
    8ae4:	e5943004 	ldr	r3, [r4, #4]
    8ae8:	e58d3000 	str	r3, [sp]
    8aec:	e3a030c2 	mov	r3, #194, 0	; 0xc2
    8af0:	e59f2070 	ldr	r2, [pc, #112]	; 8b68 <rpi_temp_get+0x184>
    8af4:	e59f1070 	ldr	r1, [pc, #112]	; 8b6c <rpi_temp_get+0x188>
    8af8:	e59f0064 	ldr	r0, [pc, #100]	; 8b64 <rpi_temp_get+0x180>
    8afc:	eb001d40 	bl	10004 <printk>
    8b00:	eb001e79 	bl	104ec <clean_reboot>
    8b04:	e59f3064 	ldr	r3, [pc, #100]	; 8b70 <rpi_temp_get+0x18c>
    8b08:	e58d3000 	str	r3, [sp]
    8b0c:	e3a030c5 	mov	r3, #197, 0	; 0xc5
    8b10:	e59f2050 	ldr	r2, [pc, #80]	; 8b68 <rpi_temp_get+0x184>
    8b14:	e59f1050 	ldr	r1, [pc, #80]	; 8b6c <rpi_temp_get+0x188>
    8b18:	e59f0054 	ldr	r0, [pc, #84]	; 8b74 <rpi_temp_get+0x190>
    8b1c:	eb001d38 	bl	10004 <printk>
    8b20:	eb001e71 	bl	104ec <clean_reboot>
    8b24:	e59f304c 	ldr	r3, [pc, #76]	; 8b78 <rpi_temp_get+0x194>
    8b28:	e58d3000 	str	r3, [sp]
    8b2c:	e3a030c6 	mov	r3, #198, 0	; 0xc6
    8b30:	e59f2030 	ldr	r2, [pc, #48]	; 8b68 <rpi_temp_get+0x184>
    8b34:	e59f1030 	ldr	r1, [pc, #48]	; 8b6c <rpi_temp_get+0x188>
    8b38:	e59f0034 	ldr	r0, [pc, #52]	; 8b74 <rpi_temp_get+0x190>
    8b3c:	eb001d30 	bl	10004 <printk>
    8b40:	eb001e69 	bl	104ec <clean_reboot>
    8b44:	00030006 	.word	0x00030006
    8b48:	2000b898 	.word	0x2000b898
    8b4c:	2000b8a0 	.word	0x2000b8a0
    8b50:	2000b880 	.word	0x2000b880
    8b54:	00011668 	.word	0x00011668
    8b58:	0001158c 	.word	0x0001158c
    8b5c:	00011594 	.word	0x00011594
    8b60:	00011674 	.word	0x00011674
    8b64:	000115dc 	.word	0x000115dc
    8b68:	000116c8 	.word	0x000116c8
    8b6c:	00011608 	.word	0x00011608
    8b70:	00011610 	.word	0x00011610
    8b74:	00011458 	.word	0x00011458
    8b78:	0001164c 	.word	0x0001164c

00008b7c <rpi_clock_curhz_get>:
    8b7c:	e92d4030 	push	{r4, r5, lr}
    8b80:	e24dd034 	sub	sp, sp, #52, 0	; 0x34
    8b84:	e1a05000 	mov	r5, r0
    8b88:	e28d4017 	add	r4, sp, #23, 0
    8b8c:	e3c4400f 	bic	r4, r4, #15, 0
    8b90:	e3a03020 	mov	r3, #32, 0
    8b94:	e5843000 	str	r3, [r4]
    8b98:	e3a03000 	mov	r3, #0, 0
    8b9c:	e5843004 	str	r3, [r4, #4]
    8ba0:	e59f2138 	ldr	r2, [pc, #312]	; 8ce0 <rpi_clock_curhz_get+0x164>
    8ba4:	e5842008 	str	r2, [r4, #8]
    8ba8:	e3a02008 	mov	r2, #8, 0
    8bac:	e584200c 	str	r2, [r4, #12]
    8bb0:	e5843010 	str	r3, [r4, #16]
    8bb4:	e5840014 	str	r0, [r4, #20]
    8bb8:	e5843018 	str	r3, [r4, #24]
    8bbc:	e584301c 	str	r3, [r4, #28]
    8bc0:	eb001e6d 	bl	1057c <dev_barrier>
    8bc4:	e59f0118 	ldr	r0, [pc, #280]	; 8ce4 <rpi_clock_curhz_get+0x168>
    8bc8:	ebfffd17 	bl	802c <GET32>
    8bcc:	e3500000 	cmp	r0, #0, 0
    8bd0:	bafffffb 	blt	8bc4 <rpi_clock_curhz_get+0x48>
    8bd4:	e3841121 	orr	r1, r4, #1073741832	; 0x40000008
    8bd8:	e59f0108 	ldr	r0, [pc, #264]	; 8ce8 <rpi_clock_curhz_get+0x16c>
    8bdc:	ebfffd10 	bl	8024 <PUT32>
    8be0:	eb001e65 	bl	1057c <dev_barrier>
    8be4:	eb001e64 	bl	1057c <dev_barrier>
    8be8:	e59f00f4 	ldr	r0, [pc, #244]	; 8ce4 <rpi_clock_curhz_get+0x168>
    8bec:	ebfffd0e 	bl	802c <GET32>
    8bf0:	e3100101 	tst	r0, #1073741824	; 0x40000000
    8bf4:	1afffffb 	bne	8be8 <rpi_clock_curhz_get+0x6c>
    8bf8:	e59f00ec 	ldr	r0, [pc, #236]	; 8cec <rpi_clock_curhz_get+0x170>
    8bfc:	ebfffd0a 	bl	802c <GET32>
    8c00:	e200000f 	and	r0, r0, #15, 0
    8c04:	e3500008 	cmp	r0, #8, 0
    8c08:	1a00000e 	bne	8c48 <rpi_clock_curhz_get+0xcc>
    8c0c:	e5943004 	ldr	r3, [r4, #4]
    8c10:	e3530102 	cmp	r3, #-2147483648	; 0x80000000
    8c14:	1a000011 	bne	8c60 <rpi_clock_curhz_get+0xe4>
    8c18:	e5943004 	ldr	r3, [r4, #4]
    8c1c:	e3530102 	cmp	r3, #-2147483648	; 0x80000000
    8c20:	1a000016 	bne	8c80 <rpi_clock_curhz_get+0x104>
    8c24:	e5943010 	ldr	r3, [r4, #16]
    8c28:	e3530122 	cmp	r3, #-2147483640	; 0x80000008
    8c2c:	1a00001b 	bne	8ca0 <rpi_clock_curhz_get+0x124>
    8c30:	e5943014 	ldr	r3, [r4, #20]
    8c34:	e1530005 	cmp	r3, r5
    8c38:	1a000020 	bne	8cc0 <rpi_clock_curhz_get+0x144>
    8c3c:	e5940018 	ldr	r0, [r4, #24]
    8c40:	e28dd034 	add	sp, sp, #52, 0	; 0x34
    8c44:	e8bd8030 	pop	{r4, r5, pc}
    8c48:	e3a03056 	mov	r3, #86, 0	; 0x56
    8c4c:	e59f209c 	ldr	r2, [pc, #156]	; 8cf0 <rpi_clock_curhz_get+0x174>
    8c50:	e59f109c 	ldr	r1, [pc, #156]	; 8cf4 <rpi_clock_curhz_get+0x178>
    8c54:	e59f009c 	ldr	r0, [pc, #156]	; 8cf8 <rpi_clock_curhz_get+0x17c>
    8c58:	eb001ce9 	bl	10004 <printk>
    8c5c:	eb001e22 	bl	104ec <clean_reboot>
    8c60:	e5943004 	ldr	r3, [r4, #4]
    8c64:	e58d3000 	str	r3, [sp]
    8c68:	e3a03067 	mov	r3, #103, 0	; 0x67
    8c6c:	e59f2088 	ldr	r2, [pc, #136]	; 8cfc <rpi_clock_curhz_get+0x180>
    8c70:	e59f107c 	ldr	r1, [pc, #124]	; 8cf4 <rpi_clock_curhz_get+0x178>
    8c74:	e59f0084 	ldr	r0, [pc, #132]	; 8d00 <rpi_clock_curhz_get+0x184>
    8c78:	eb001ce1 	bl	10004 <printk>
    8c7c:	eb001e1a 	bl	104ec <clean_reboot>
    8c80:	e5943004 	ldr	r3, [r4, #4]
    8c84:	e58d3000 	str	r3, [sp]
    8c88:	e3a030e6 	mov	r3, #230, 0	; 0xe6
    8c8c:	e59f2070 	ldr	r2, [pc, #112]	; 8d04 <rpi_clock_curhz_get+0x188>
    8c90:	e59f1070 	ldr	r1, [pc, #112]	; 8d08 <rpi_clock_curhz_get+0x18c>
    8c94:	e59f0064 	ldr	r0, [pc, #100]	; 8d00 <rpi_clock_curhz_get+0x184>
    8c98:	eb001cd9 	bl	10004 <printk>
    8c9c:	eb001e12 	bl	104ec <clean_reboot>
    8ca0:	e59f3064 	ldr	r3, [pc, #100]	; 8d0c <rpi_clock_curhz_get+0x190>
    8ca4:	e58d3000 	str	r3, [sp]
    8ca8:	e3a030e9 	mov	r3, #233, 0	; 0xe9
    8cac:	e59f2050 	ldr	r2, [pc, #80]	; 8d04 <rpi_clock_curhz_get+0x188>
    8cb0:	e59f1050 	ldr	r1, [pc, #80]	; 8d08 <rpi_clock_curhz_get+0x18c>
    8cb4:	e59f0054 	ldr	r0, [pc, #84]	; 8d10 <rpi_clock_curhz_get+0x194>
    8cb8:	eb001cd1 	bl	10004 <printk>
    8cbc:	eb001e0a 	bl	104ec <clean_reboot>
    8cc0:	e59f304c 	ldr	r3, [pc, #76]	; 8d14 <rpi_clock_curhz_get+0x198>
    8cc4:	e58d3000 	str	r3, [sp]
    8cc8:	e3a030ea 	mov	r3, #234, 0	; 0xea
    8ccc:	e59f2030 	ldr	r2, [pc, #48]	; 8d04 <rpi_clock_curhz_get+0x188>
    8cd0:	e59f1030 	ldr	r1, [pc, #48]	; 8d08 <rpi_clock_curhz_get+0x18c>
    8cd4:	e59f0034 	ldr	r0, [pc, #52]	; 8d10 <rpi_clock_curhz_get+0x194>
    8cd8:	eb001cc9 	bl	10004 <printk>
    8cdc:	eb001e02 	bl	104ec <clean_reboot>
    8ce0:	00030002 	.word	0x00030002
    8ce4:	2000b898 	.word	0x2000b898
    8ce8:	2000b8a0 	.word	0x2000b8a0
    8cec:	2000b880 	.word	0x2000b880
    8cf0:	00011668 	.word	0x00011668
    8cf4:	0001158c 	.word	0x0001158c
    8cf8:	00011594 	.word	0x00011594
    8cfc:	00011674 	.word	0x00011674
    8d00:	000115dc 	.word	0x000115dc
    8d04:	000116d8 	.word	0x000116d8
    8d08:	00011608 	.word	0x00011608
    8d0c:	00011610 	.word	0x00011610
    8d10:	00011458 	.word	0x00011458
    8d14:	00011658 	.word	0x00011658

00008d18 <rpi_clock_maxhz_get>:
    8d18:	e92d4030 	push	{r4, r5, lr}
    8d1c:	e24dd034 	sub	sp, sp, #52, 0	; 0x34
    8d20:	e1a05000 	mov	r5, r0
    8d24:	e28d4017 	add	r4, sp, #23, 0
    8d28:	e3c4400f 	bic	r4, r4, #15, 0
    8d2c:	e3a03020 	mov	r3, #32, 0
    8d30:	e5843000 	str	r3, [r4]
    8d34:	e3a03000 	mov	r3, #0, 0
    8d38:	e5843004 	str	r3, [r4, #4]
    8d3c:	e59f2138 	ldr	r2, [pc, #312]	; 8e7c <rpi_clock_maxhz_get+0x164>
    8d40:	e5842008 	str	r2, [r4, #8]
    8d44:	e3a02008 	mov	r2, #8, 0
    8d48:	e584200c 	str	r2, [r4, #12]
    8d4c:	e5843010 	str	r3, [r4, #16]
    8d50:	e5840014 	str	r0, [r4, #20]
    8d54:	e5843018 	str	r3, [r4, #24]
    8d58:	e584301c 	str	r3, [r4, #28]
    8d5c:	eb001e06 	bl	1057c <dev_barrier>
    8d60:	e59f0118 	ldr	r0, [pc, #280]	; 8e80 <rpi_clock_maxhz_get+0x168>
    8d64:	ebfffcb0 	bl	802c <GET32>
    8d68:	e3500000 	cmp	r0, #0, 0
    8d6c:	bafffffb 	blt	8d60 <rpi_clock_maxhz_get+0x48>
    8d70:	e3841121 	orr	r1, r4, #1073741832	; 0x40000008
    8d74:	e59f0108 	ldr	r0, [pc, #264]	; 8e84 <rpi_clock_maxhz_get+0x16c>
    8d78:	ebfffca9 	bl	8024 <PUT32>
    8d7c:	eb001dfe 	bl	1057c <dev_barrier>
    8d80:	eb001dfd 	bl	1057c <dev_barrier>
    8d84:	e59f00f4 	ldr	r0, [pc, #244]	; 8e80 <rpi_clock_maxhz_get+0x168>
    8d88:	ebfffca7 	bl	802c <GET32>
    8d8c:	e3100101 	tst	r0, #1073741824	; 0x40000000
    8d90:	1afffffb 	bne	8d84 <rpi_clock_maxhz_get+0x6c>
    8d94:	e59f00ec 	ldr	r0, [pc, #236]	; 8e88 <rpi_clock_maxhz_get+0x170>
    8d98:	ebfffca3 	bl	802c <GET32>
    8d9c:	e200000f 	and	r0, r0, #15, 0
    8da0:	e3500008 	cmp	r0, #8, 0
    8da4:	1a00000e 	bne	8de4 <rpi_clock_maxhz_get+0xcc>
    8da8:	e5943004 	ldr	r3, [r4, #4]
    8dac:	e3530102 	cmp	r3, #-2147483648	; 0x80000000
    8db0:	1a000011 	bne	8dfc <rpi_clock_maxhz_get+0xe4>
    8db4:	e5943004 	ldr	r3, [r4, #4]
    8db8:	e3530102 	cmp	r3, #-2147483648	; 0x80000000
    8dbc:	1a000016 	bne	8e1c <rpi_clock_maxhz_get+0x104>
    8dc0:	e5943010 	ldr	r3, [r4, #16]
    8dc4:	e3530122 	cmp	r3, #-2147483640	; 0x80000008
    8dc8:	1a00001b 	bne	8e3c <rpi_clock_maxhz_get+0x124>
    8dcc:	e5943014 	ldr	r3, [r4, #20]
    8dd0:	e1530005 	cmp	r3, r5
    8dd4:	1a000020 	bne	8e5c <rpi_clock_maxhz_get+0x144>
    8dd8:	e5940018 	ldr	r0, [r4, #24]
    8ddc:	e28dd034 	add	sp, sp, #52, 0	; 0x34
    8de0:	e8bd8030 	pop	{r4, r5, pc}
    8de4:	e3a03056 	mov	r3, #86, 0	; 0x56
    8de8:	e59f209c 	ldr	r2, [pc, #156]	; 8e8c <rpi_clock_maxhz_get+0x174>
    8dec:	e59f109c 	ldr	r1, [pc, #156]	; 8e90 <rpi_clock_maxhz_get+0x178>
    8df0:	e59f009c 	ldr	r0, [pc, #156]	; 8e94 <rpi_clock_maxhz_get+0x17c>
    8df4:	eb001c82 	bl	10004 <printk>
    8df8:	eb001dbb 	bl	104ec <clean_reboot>
    8dfc:	e5943004 	ldr	r3, [r4, #4]
    8e00:	e58d3000 	str	r3, [sp]
    8e04:	e3a03067 	mov	r3, #103, 0	; 0x67
    8e08:	e59f2088 	ldr	r2, [pc, #136]	; 8e98 <rpi_clock_maxhz_get+0x180>
    8e0c:	e59f107c 	ldr	r1, [pc, #124]	; 8e90 <rpi_clock_maxhz_get+0x178>
    8e10:	e59f0084 	ldr	r0, [pc, #132]	; 8e9c <rpi_clock_maxhz_get+0x184>
    8e14:	eb001c7a 	bl	10004 <printk>
    8e18:	eb001db3 	bl	104ec <clean_reboot>
    8e1c:	e5943004 	ldr	r3, [r4, #4]
    8e20:	e58d3000 	str	r3, [sp]
    8e24:	e59f3074 	ldr	r3, [pc, #116]	; 8ea0 <rpi_clock_maxhz_get+0x188>
    8e28:	e59f2074 	ldr	r2, [pc, #116]	; 8ea4 <rpi_clock_maxhz_get+0x18c>
    8e2c:	e59f1074 	ldr	r1, [pc, #116]	; 8ea8 <rpi_clock_maxhz_get+0x190>
    8e30:	e59f0064 	ldr	r0, [pc, #100]	; 8e9c <rpi_clock_maxhz_get+0x184>
    8e34:	eb001c72 	bl	10004 <printk>
    8e38:	eb001dab 	bl	104ec <clean_reboot>
    8e3c:	e59f3068 	ldr	r3, [pc, #104]	; 8eac <rpi_clock_maxhz_get+0x194>
    8e40:	e58d3000 	str	r3, [sp]
    8e44:	e59f3064 	ldr	r3, [pc, #100]	; 8eb0 <rpi_clock_maxhz_get+0x198>
    8e48:	e59f2054 	ldr	r2, [pc, #84]	; 8ea4 <rpi_clock_maxhz_get+0x18c>
    8e4c:	e59f1054 	ldr	r1, [pc, #84]	; 8ea8 <rpi_clock_maxhz_get+0x190>
    8e50:	e59f005c 	ldr	r0, [pc, #92]	; 8eb4 <rpi_clock_maxhz_get+0x19c>
    8e54:	eb001c6a 	bl	10004 <printk>
    8e58:	eb001da3 	bl	104ec <clean_reboot>
    8e5c:	e59f3054 	ldr	r3, [pc, #84]	; 8eb8 <rpi_clock_maxhz_get+0x1a0>
    8e60:	e58d3000 	str	r3, [sp]
    8e64:	e59f3050 	ldr	r3, [pc, #80]	; 8ebc <rpi_clock_maxhz_get+0x1a4>
    8e68:	e59f2034 	ldr	r2, [pc, #52]	; 8ea4 <rpi_clock_maxhz_get+0x18c>
    8e6c:	e59f1034 	ldr	r1, [pc, #52]	; 8ea8 <rpi_clock_maxhz_get+0x190>
    8e70:	e59f003c 	ldr	r0, [pc, #60]	; 8eb4 <rpi_clock_maxhz_get+0x19c>
    8e74:	eb001c62 	bl	10004 <printk>
    8e78:	eb001d9b 	bl	104ec <clean_reboot>
    8e7c:	00030004 	.word	0x00030004
    8e80:	2000b898 	.word	0x2000b898
    8e84:	2000b8a0 	.word	0x2000b8a0
    8e88:	2000b880 	.word	0x2000b880
    8e8c:	00011668 	.word	0x00011668
    8e90:	0001158c 	.word	0x0001158c
    8e94:	00011594 	.word	0x00011594
    8e98:	00011674 	.word	0x00011674
    8e9c:	000115dc 	.word	0x000115dc
    8ea0:	0000010a 	.word	0x0000010a
    8ea4:	000116ec 	.word	0x000116ec
    8ea8:	00011608 	.word	0x00011608
    8eac:	00011610 	.word	0x00011610
    8eb0:	0000010d 	.word	0x0000010d
    8eb4:	00011458 	.word	0x00011458
    8eb8:	00011658 	.word	0x00011658
    8ebc:	0000010e 	.word	0x0000010e

00008ec0 <rpi_clock_realhz_get>:
    8ec0:	e92d4030 	push	{r4, r5, lr}
    8ec4:	e24dd034 	sub	sp, sp, #52, 0	; 0x34
    8ec8:	e1a05000 	mov	r5, r0
    8ecc:	e28d4017 	add	r4, sp, #23, 0
    8ed0:	e3c4400f 	bic	r4, r4, #15, 0
    8ed4:	e3a03020 	mov	r3, #32, 0
    8ed8:	e5843000 	str	r3, [r4]
    8edc:	e3a03000 	mov	r3, #0, 0
    8ee0:	e5843004 	str	r3, [r4, #4]
    8ee4:	e59f2138 	ldr	r2, [pc, #312]	; 9024 <rpi_clock_realhz_get+0x164>
    8ee8:	e5842008 	str	r2, [r4, #8]
    8eec:	e3a02008 	mov	r2, #8, 0
    8ef0:	e584200c 	str	r2, [r4, #12]
    8ef4:	e5843010 	str	r3, [r4, #16]
    8ef8:	e5840014 	str	r0, [r4, #20]
    8efc:	e5843018 	str	r3, [r4, #24]
    8f00:	e584301c 	str	r3, [r4, #28]
    8f04:	eb001d9c 	bl	1057c <dev_barrier>
    8f08:	e59f0118 	ldr	r0, [pc, #280]	; 9028 <rpi_clock_realhz_get+0x168>
    8f0c:	ebfffc46 	bl	802c <GET32>
    8f10:	e3500000 	cmp	r0, #0, 0
    8f14:	bafffffb 	blt	8f08 <rpi_clock_realhz_get+0x48>
    8f18:	e3841121 	orr	r1, r4, #1073741832	; 0x40000008
    8f1c:	e59f0108 	ldr	r0, [pc, #264]	; 902c <rpi_clock_realhz_get+0x16c>
    8f20:	ebfffc3f 	bl	8024 <PUT32>
    8f24:	eb001d94 	bl	1057c <dev_barrier>
    8f28:	eb001d93 	bl	1057c <dev_barrier>
    8f2c:	e59f00f4 	ldr	r0, [pc, #244]	; 9028 <rpi_clock_realhz_get+0x168>
    8f30:	ebfffc3d 	bl	802c <GET32>
    8f34:	e3100101 	tst	r0, #1073741824	; 0x40000000
    8f38:	1afffffb 	bne	8f2c <rpi_clock_realhz_get+0x6c>
    8f3c:	e59f00ec 	ldr	r0, [pc, #236]	; 9030 <rpi_clock_realhz_get+0x170>
    8f40:	ebfffc39 	bl	802c <GET32>
    8f44:	e200000f 	and	r0, r0, #15, 0
    8f48:	e3500008 	cmp	r0, #8, 0
    8f4c:	1a00000e 	bne	8f8c <rpi_clock_realhz_get+0xcc>
    8f50:	e5943004 	ldr	r3, [r4, #4]
    8f54:	e3530102 	cmp	r3, #-2147483648	; 0x80000000
    8f58:	1a000011 	bne	8fa4 <rpi_clock_realhz_get+0xe4>
    8f5c:	e5943004 	ldr	r3, [r4, #4]
    8f60:	e3530102 	cmp	r3, #-2147483648	; 0x80000000
    8f64:	1a000016 	bne	8fc4 <rpi_clock_realhz_get+0x104>
    8f68:	e5943010 	ldr	r3, [r4, #16]
    8f6c:	e3530122 	cmp	r3, #-2147483640	; 0x80000008
    8f70:	1a00001b 	bne	8fe4 <rpi_clock_realhz_get+0x124>
    8f74:	e5943014 	ldr	r3, [r4, #20]
    8f78:	e1530005 	cmp	r3, r5
    8f7c:	1a000020 	bne	9004 <rpi_clock_realhz_get+0x144>
    8f80:	e5940018 	ldr	r0, [r4, #24]
    8f84:	e28dd034 	add	sp, sp, #52, 0	; 0x34
    8f88:	e8bd8030 	pop	{r4, r5, pc}
    8f8c:	e3a03056 	mov	r3, #86, 0	; 0x56
    8f90:	e59f209c 	ldr	r2, [pc, #156]	; 9034 <rpi_clock_realhz_get+0x174>
    8f94:	e59f109c 	ldr	r1, [pc, #156]	; 9038 <rpi_clock_realhz_get+0x178>
    8f98:	e59f009c 	ldr	r0, [pc, #156]	; 903c <rpi_clock_realhz_get+0x17c>
    8f9c:	eb001c18 	bl	10004 <printk>
    8fa0:	eb001d51 	bl	104ec <clean_reboot>
    8fa4:	e5943004 	ldr	r3, [r4, #4]
    8fa8:	e58d3000 	str	r3, [sp]
    8fac:	e3a03067 	mov	r3, #103, 0	; 0x67
    8fb0:	e59f2088 	ldr	r2, [pc, #136]	; 9040 <rpi_clock_realhz_get+0x180>
    8fb4:	e59f107c 	ldr	r1, [pc, #124]	; 9038 <rpi_clock_realhz_get+0x178>
    8fb8:	e59f0084 	ldr	r0, [pc, #132]	; 9044 <rpi_clock_realhz_get+0x184>
    8fbc:	eb001c10 	bl	10004 <printk>
    8fc0:	eb001d49 	bl	104ec <clean_reboot>
    8fc4:	e5943004 	ldr	r3, [r4, #4]
    8fc8:	e58d3000 	str	r3, [sp]
    8fcc:	e59f3074 	ldr	r3, [pc, #116]	; 9048 <rpi_clock_realhz_get+0x188>
    8fd0:	e59f2074 	ldr	r2, [pc, #116]	; 904c <rpi_clock_realhz_get+0x18c>
    8fd4:	e59f1074 	ldr	r1, [pc, #116]	; 9050 <rpi_clock_realhz_get+0x190>
    8fd8:	e59f0064 	ldr	r0, [pc, #100]	; 9044 <rpi_clock_realhz_get+0x184>
    8fdc:	eb001c08 	bl	10004 <printk>
    8fe0:	eb001d41 	bl	104ec <clean_reboot>
    8fe4:	e59f3068 	ldr	r3, [pc, #104]	; 9054 <rpi_clock_realhz_get+0x194>
    8fe8:	e58d3000 	str	r3, [sp]
    8fec:	e59f3064 	ldr	r3, [pc, #100]	; 9058 <rpi_clock_realhz_get+0x198>
    8ff0:	e59f2054 	ldr	r2, [pc, #84]	; 904c <rpi_clock_realhz_get+0x18c>
    8ff4:	e59f1054 	ldr	r1, [pc, #84]	; 9050 <rpi_clock_realhz_get+0x190>
    8ff8:	e59f005c 	ldr	r0, [pc, #92]	; 905c <rpi_clock_realhz_get+0x19c>
    8ffc:	eb001c00 	bl	10004 <printk>
    9000:	eb001d39 	bl	104ec <clean_reboot>
    9004:	e59f3054 	ldr	r3, [pc, #84]	; 9060 <rpi_clock_realhz_get+0x1a0>
    9008:	e58d3000 	str	r3, [sp]
    900c:	e59f3050 	ldr	r3, [pc, #80]	; 9064 <rpi_clock_realhz_get+0x1a4>
    9010:	e59f2034 	ldr	r2, [pc, #52]	; 904c <rpi_clock_realhz_get+0x18c>
    9014:	e59f1034 	ldr	r1, [pc, #52]	; 9050 <rpi_clock_realhz_get+0x190>
    9018:	e59f003c 	ldr	r0, [pc, #60]	; 905c <rpi_clock_realhz_get+0x19c>
    901c:	eb001bf8 	bl	10004 <printk>
    9020:	eb001d31 	bl	104ec <clean_reboot>
    9024:	00030047 	.word	0x00030047
    9028:	2000b898 	.word	0x2000b898
    902c:	2000b8a0 	.word	0x2000b8a0
    9030:	2000b880 	.word	0x2000b880
    9034:	00011668 	.word	0x00011668
    9038:	0001158c 	.word	0x0001158c
    903c:	00011594 	.word	0x00011594
    9040:	00011674 	.word	0x00011674
    9044:	000115dc 	.word	0x000115dc
    9048:	0000012e 	.word	0x0000012e
    904c:	00011700 	.word	0x00011700
    9050:	00011608 	.word	0x00011608
    9054:	00011610 	.word	0x00011610
    9058:	00000131 	.word	0x00000131
    905c:	00011458 	.word	0x00011458
    9060:	00011658 	.word	0x00011658
    9064:	00000132 	.word	0x00000132

00009068 <rpi_clock_hz_set>:
    9068:	e92d4030 	push	{r4, r5, lr}
    906c:	e24dd03c 	sub	sp, sp, #60, 0	; 0x3c
    9070:	e1a05000 	mov	r5, r0
    9074:	e28d4017 	add	r4, sp, #23, 0
    9078:	e3c4400f 	bic	r4, r4, #15, 0
    907c:	e3a03024 	mov	r3, #36, 0	; 0x24
    9080:	e5843000 	str	r3, [r4]
    9084:	e3a03000 	mov	r3, #0, 0
    9088:	e5843004 	str	r3, [r4, #4]
    908c:	e59f2140 	ldr	r2, [pc, #320]	; 91d4 <rpi_clock_hz_set+0x16c>
    9090:	e5842008 	str	r2, [r4, #8]
    9094:	e3a0200c 	mov	r2, #12, 0
    9098:	e584200c 	str	r2, [r4, #12]
    909c:	e5843010 	str	r3, [r4, #16]
    90a0:	e5840014 	str	r0, [r4, #20]
    90a4:	e5841018 	str	r1, [r4, #24]
    90a8:	e3a02001 	mov	r2, #1, 0
    90ac:	e584201c 	str	r2, [r4, #28]
    90b0:	e5843020 	str	r3, [r4, #32]
    90b4:	eb001d30 	bl	1057c <dev_barrier>
    90b8:	e59f0118 	ldr	r0, [pc, #280]	; 91d8 <rpi_clock_hz_set+0x170>
    90bc:	ebfffbda 	bl	802c <GET32>
    90c0:	e3500000 	cmp	r0, #0, 0
    90c4:	bafffffb 	blt	90b8 <rpi_clock_hz_set+0x50>
    90c8:	e3841121 	orr	r1, r4, #1073741832	; 0x40000008
    90cc:	e59f0108 	ldr	r0, [pc, #264]	; 91dc <rpi_clock_hz_set+0x174>
    90d0:	ebfffbd3 	bl	8024 <PUT32>
    90d4:	eb001d28 	bl	1057c <dev_barrier>
    90d8:	eb001d27 	bl	1057c <dev_barrier>
    90dc:	e59f00f4 	ldr	r0, [pc, #244]	; 91d8 <rpi_clock_hz_set+0x170>
    90e0:	ebfffbd1 	bl	802c <GET32>
    90e4:	e3100101 	tst	r0, #1073741824	; 0x40000000
    90e8:	1afffffb 	bne	90dc <rpi_clock_hz_set+0x74>
    90ec:	e59f00ec 	ldr	r0, [pc, #236]	; 91e0 <rpi_clock_hz_set+0x178>
    90f0:	ebfffbcd 	bl	802c <GET32>
    90f4:	e200000f 	and	r0, r0, #15, 0
    90f8:	e3500008 	cmp	r0, #8, 0
    90fc:	1a00000e 	bne	913c <rpi_clock_hz_set+0xd4>
    9100:	e5943004 	ldr	r3, [r4, #4]
    9104:	e3530102 	cmp	r3, #-2147483648	; 0x80000000
    9108:	1a000011 	bne	9154 <rpi_clock_hz_set+0xec>
    910c:	e5943004 	ldr	r3, [r4, #4]
    9110:	e3530102 	cmp	r3, #-2147483648	; 0x80000000
    9114:	1a000016 	bne	9174 <rpi_clock_hz_set+0x10c>
    9118:	e5943010 	ldr	r3, [r4, #16]
    911c:	e3530122 	cmp	r3, #-2147483640	; 0x80000008
    9120:	1a00001b 	bne	9194 <rpi_clock_hz_set+0x12c>
    9124:	e5943014 	ldr	r3, [r4, #20]
    9128:	e1530005 	cmp	r3, r5
    912c:	1a000020 	bne	91b4 <rpi_clock_hz_set+0x14c>
    9130:	e5940018 	ldr	r0, [r4, #24]
    9134:	e28dd03c 	add	sp, sp, #60, 0	; 0x3c
    9138:	e8bd8030 	pop	{r4, r5, pc}
    913c:	e3a03056 	mov	r3, #86, 0	; 0x56
    9140:	e59f209c 	ldr	r2, [pc, #156]	; 91e4 <rpi_clock_hz_set+0x17c>
    9144:	e59f109c 	ldr	r1, [pc, #156]	; 91e8 <rpi_clock_hz_set+0x180>
    9148:	e59f009c 	ldr	r0, [pc, #156]	; 91ec <rpi_clock_hz_set+0x184>
    914c:	eb001bac 	bl	10004 <printk>
    9150:	eb001ce5 	bl	104ec <clean_reboot>
    9154:	e5943004 	ldr	r3, [r4, #4]
    9158:	e58d3000 	str	r3, [sp]
    915c:	e3a03067 	mov	r3, #103, 0	; 0x67
    9160:	e59f2088 	ldr	r2, [pc, #136]	; 91f0 <rpi_clock_hz_set+0x188>
    9164:	e59f107c 	ldr	r1, [pc, #124]	; 91e8 <rpi_clock_hz_set+0x180>
    9168:	e59f0084 	ldr	r0, [pc, #132]	; 91f4 <rpi_clock_hz_set+0x18c>
    916c:	eb001ba4 	bl	10004 <printk>
    9170:	eb001cdd 	bl	104ec <clean_reboot>
    9174:	e5943004 	ldr	r3, [r4, #4]
    9178:	e58d3000 	str	r3, [sp]
    917c:	e59f3074 	ldr	r3, [pc, #116]	; 91f8 <rpi_clock_hz_set+0x190>
    9180:	e59f2074 	ldr	r2, [pc, #116]	; 91fc <rpi_clock_hz_set+0x194>
    9184:	e59f1074 	ldr	r1, [pc, #116]	; 9200 <rpi_clock_hz_set+0x198>
    9188:	e59f0064 	ldr	r0, [pc, #100]	; 91f4 <rpi_clock_hz_set+0x18c>
    918c:	eb001b9c 	bl	10004 <printk>
    9190:	eb001cd5 	bl	104ec <clean_reboot>
    9194:	e59f3068 	ldr	r3, [pc, #104]	; 9204 <rpi_clock_hz_set+0x19c>
    9198:	e58d3000 	str	r3, [sp]
    919c:	e59f3064 	ldr	r3, [pc, #100]	; 9208 <rpi_clock_hz_set+0x1a0>
    91a0:	e59f2054 	ldr	r2, [pc, #84]	; 91fc <rpi_clock_hz_set+0x194>
    91a4:	e59f1054 	ldr	r1, [pc, #84]	; 9200 <rpi_clock_hz_set+0x198>
    91a8:	e59f005c 	ldr	r0, [pc, #92]	; 920c <rpi_clock_hz_set+0x1a4>
    91ac:	eb001b94 	bl	10004 <printk>
    91b0:	eb001ccd 	bl	104ec <clean_reboot>
    91b4:	e59f3054 	ldr	r3, [pc, #84]	; 9210 <rpi_clock_hz_set+0x1a8>
    91b8:	e58d3000 	str	r3, [sp]
    91bc:	e59f3050 	ldr	r3, [pc, #80]	; 9214 <rpi_clock_hz_set+0x1ac>
    91c0:	e59f2034 	ldr	r2, [pc, #52]	; 91fc <rpi_clock_hz_set+0x194>
    91c4:	e59f1034 	ldr	r1, [pc, #52]	; 9200 <rpi_clock_hz_set+0x198>
    91c8:	e59f003c 	ldr	r0, [pc, #60]	; 920c <rpi_clock_hz_set+0x1a4>
    91cc:	eb001b8c 	bl	10004 <printk>
    91d0:	eb001cc5 	bl	104ec <clean_reboot>
    91d4:	00038002 	.word	0x00038002
    91d8:	2000b898 	.word	0x2000b898
    91dc:	2000b8a0 	.word	0x2000b8a0
    91e0:	2000b880 	.word	0x2000b880
    91e4:	00011668 	.word	0x00011668
    91e8:	0001158c 	.word	0x0001158c
    91ec:	00011594 	.word	0x00011594
    91f0:	00011674 	.word	0x00011674
    91f4:	000115dc 	.word	0x000115dc
    91f8:	00000153 	.word	0x00000153
    91fc:	00011718 	.word	0x00011718
    9200:	00011608 	.word	0x00011608
    9204:	00011610 	.word	0x00011610
    9208:	00000156 	.word	0x00000156
    920c:	00011458 	.word	0x00011458
    9210:	00011658 	.word	0x00011658
    9214:	00000157 	.word	0x00000157

00009218 <gpu_mem_alloc>:
    9218:	e92d4010 	push	{r4, lr}
    921c:	e24dd038 	sub	sp, sp, #56, 0	; 0x38
    9220:	e28d4017 	add	r4, sp, #23, 0
    9224:	e3c4400f 	bic	r4, r4, #15, 0
    9228:	e3a03024 	mov	r3, #36, 0	; 0x24
    922c:	e5843000 	str	r3, [r4]
    9230:	e3a03000 	mov	r3, #0, 0
    9234:	e5843004 	str	r3, [r4, #4]
    9238:	e59fc0b8 	ldr	ip, [pc, #184]	; 92f8 <gpu_mem_alloc+0xe0>
    923c:	e584c008 	str	ip, [r4, #8]
    9240:	e3a0c00c 	mov	ip, #12, 0
    9244:	e584c00c 	str	ip, [r4, #12]
    9248:	e5843010 	str	r3, [r4, #16]
    924c:	e5840014 	str	r0, [r4, #20]
    9250:	e5841018 	str	r1, [r4, #24]
    9254:	e584201c 	str	r2, [r4, #28]
    9258:	e5843020 	str	r3, [r4, #32]
    925c:	eb001cc6 	bl	1057c <dev_barrier>
    9260:	e59f0094 	ldr	r0, [pc, #148]	; 92fc <gpu_mem_alloc+0xe4>
    9264:	ebfffb70 	bl	802c <GET32>
    9268:	e3500000 	cmp	r0, #0, 0
    926c:	bafffffb 	blt	9260 <gpu_mem_alloc+0x48>
    9270:	e3841121 	orr	r1, r4, #1073741832	; 0x40000008
    9274:	e59f0084 	ldr	r0, [pc, #132]	; 9300 <gpu_mem_alloc+0xe8>
    9278:	ebfffb69 	bl	8024 <PUT32>
    927c:	eb001cbe 	bl	1057c <dev_barrier>
    9280:	eb001cbd 	bl	1057c <dev_barrier>
    9284:	e59f0070 	ldr	r0, [pc, #112]	; 92fc <gpu_mem_alloc+0xe4>
    9288:	ebfffb67 	bl	802c <GET32>
    928c:	e3100101 	tst	r0, #1073741824	; 0x40000000
    9290:	1afffffb 	bne	9284 <gpu_mem_alloc+0x6c>
    9294:	e59f0068 	ldr	r0, [pc, #104]	; 9304 <gpu_mem_alloc+0xec>
    9298:	ebfffb63 	bl	802c <GET32>
    929c:	e200000f 	and	r0, r0, #15, 0
    92a0:	e3500008 	cmp	r0, #8, 0
    92a4:	1a000005 	bne	92c0 <gpu_mem_alloc+0xa8>
    92a8:	e5943004 	ldr	r3, [r4, #4]
    92ac:	e3530102 	cmp	r3, #-2147483648	; 0x80000000
    92b0:	1a000008 	bne	92d8 <gpu_mem_alloc+0xc0>
    92b4:	e5940014 	ldr	r0, [r4, #20]
    92b8:	e28dd038 	add	sp, sp, #56, 0	; 0x38
    92bc:	e8bd8010 	pop	{r4, pc}
    92c0:	e3a03056 	mov	r3, #86, 0	; 0x56
    92c4:	e59f203c 	ldr	r2, [pc, #60]	; 9308 <gpu_mem_alloc+0xf0>
    92c8:	e59f103c 	ldr	r1, [pc, #60]	; 930c <gpu_mem_alloc+0xf4>
    92cc:	e59f003c 	ldr	r0, [pc, #60]	; 9310 <gpu_mem_alloc+0xf8>
    92d0:	eb001b4b 	bl	10004 <printk>
    92d4:	eb001c84 	bl	104ec <clean_reboot>
    92d8:	e5943004 	ldr	r3, [r4, #4]
    92dc:	e58d3000 	str	r3, [sp]
    92e0:	e3a03067 	mov	r3, #103, 0	; 0x67
    92e4:	e59f2028 	ldr	r2, [pc, #40]	; 9314 <gpu_mem_alloc+0xfc>
    92e8:	e59f101c 	ldr	r1, [pc, #28]	; 930c <gpu_mem_alloc+0xf4>
    92ec:	e59f0024 	ldr	r0, [pc, #36]	; 9318 <gpu_mem_alloc+0x100>
    92f0:	eb001b43 	bl	10004 <printk>
    92f4:	eb001c7c 	bl	104ec <clean_reboot>
    92f8:	0003000c 	.word	0x0003000c
    92fc:	2000b898 	.word	0x2000b898
    9300:	2000b8a0 	.word	0x2000b8a0
    9304:	2000b880 	.word	0x2000b880
    9308:	00011668 	.word	0x00011668
    930c:	0001158c 	.word	0x0001158c
    9310:	00011594 	.word	0x00011594
    9314:	00011674 	.word	0x00011674
    9318:	000115dc 	.word	0x000115dc

0000931c <gpu_mem_lock>:
    931c:	e92d4010 	push	{r4, lr}
    9320:	e24dd030 	sub	sp, sp, #48, 0	; 0x30
    9324:	e28d4017 	add	r4, sp, #23, 0
    9328:	e3c4400f 	bic	r4, r4, #15, 0
    932c:	e3a03020 	mov	r3, #32, 0
    9330:	e5843000 	str	r3, [r4]
    9334:	e3a03000 	mov	r3, #0, 0
    9338:	e5843004 	str	r3, [r4, #4]
    933c:	e59f20b4 	ldr	r2, [pc, #180]	; 93f8 <gpu_mem_lock+0xdc>
    9340:	e5842008 	str	r2, [r4, #8]
    9344:	e3a02004 	mov	r2, #4, 0
    9348:	e584200c 	str	r2, [r4, #12]
    934c:	e5843010 	str	r3, [r4, #16]
    9350:	e5840014 	str	r0, [r4, #20]
    9354:	e5843018 	str	r3, [r4, #24]
    9358:	e584301c 	str	r3, [r4, #28]
    935c:	eb001c86 	bl	1057c <dev_barrier>
    9360:	e59f0094 	ldr	r0, [pc, #148]	; 93fc <gpu_mem_lock+0xe0>
    9364:	ebfffb30 	bl	802c <GET32>
    9368:	e3500000 	cmp	r0, #0, 0
    936c:	bafffffb 	blt	9360 <gpu_mem_lock+0x44>
    9370:	e3841121 	orr	r1, r4, #1073741832	; 0x40000008
    9374:	e59f0084 	ldr	r0, [pc, #132]	; 9400 <gpu_mem_lock+0xe4>
    9378:	ebfffb29 	bl	8024 <PUT32>
    937c:	eb001c7e 	bl	1057c <dev_barrier>
    9380:	eb001c7d 	bl	1057c <dev_barrier>
    9384:	e59f0070 	ldr	r0, [pc, #112]	; 93fc <gpu_mem_lock+0xe0>
    9388:	ebfffb27 	bl	802c <GET32>
    938c:	e3100101 	tst	r0, #1073741824	; 0x40000000
    9390:	1afffffb 	bne	9384 <gpu_mem_lock+0x68>
    9394:	e59f0068 	ldr	r0, [pc, #104]	; 9404 <gpu_mem_lock+0xe8>
    9398:	ebfffb23 	bl	802c <GET32>
    939c:	e200000f 	and	r0, r0, #15, 0
    93a0:	e3500008 	cmp	r0, #8, 0
    93a4:	1a000005 	bne	93c0 <gpu_mem_lock+0xa4>
    93a8:	e5943004 	ldr	r3, [r4, #4]
    93ac:	e3530102 	cmp	r3, #-2147483648	; 0x80000000
    93b0:	1a000008 	bne	93d8 <gpu_mem_lock+0xbc>
    93b4:	e5940014 	ldr	r0, [r4, #20]
    93b8:	e28dd030 	add	sp, sp, #48, 0	; 0x30
    93bc:	e8bd8010 	pop	{r4, pc}
    93c0:	e3a03056 	mov	r3, #86, 0	; 0x56
    93c4:	e59f203c 	ldr	r2, [pc, #60]	; 9408 <gpu_mem_lock+0xec>
    93c8:	e59f103c 	ldr	r1, [pc, #60]	; 940c <gpu_mem_lock+0xf0>
    93cc:	e59f003c 	ldr	r0, [pc, #60]	; 9410 <gpu_mem_lock+0xf4>
    93d0:	eb001b0b 	bl	10004 <printk>
    93d4:	eb001c44 	bl	104ec <clean_reboot>
    93d8:	e5943004 	ldr	r3, [r4, #4]
    93dc:	e58d3000 	str	r3, [sp]
    93e0:	e3a03067 	mov	r3, #103, 0	; 0x67
    93e4:	e59f2028 	ldr	r2, [pc, #40]	; 9414 <gpu_mem_lock+0xf8>
    93e8:	e59f101c 	ldr	r1, [pc, #28]	; 940c <gpu_mem_lock+0xf0>
    93ec:	e59f0024 	ldr	r0, [pc, #36]	; 9418 <gpu_mem_lock+0xfc>
    93f0:	eb001b03 	bl	10004 <printk>
    93f4:	eb001c3c 	bl	104ec <clean_reboot>
    93f8:	0003000d 	.word	0x0003000d
    93fc:	2000b898 	.word	0x2000b898
    9400:	2000b8a0 	.word	0x2000b8a0
    9404:	2000b880 	.word	0x2000b880
    9408:	00011668 	.word	0x00011668
    940c:	0001158c 	.word	0x0001158c
    9410:	00011594 	.word	0x00011594
    9414:	00011674 	.word	0x00011674
    9418:	000115dc 	.word	0x000115dc

0000941c <gpu_mem_unlock>:
    941c:	e92d4010 	push	{r4, lr}
    9420:	e24dd030 	sub	sp, sp, #48, 0	; 0x30
    9424:	e28d4017 	add	r4, sp, #23, 0
    9428:	e3c4400f 	bic	r4, r4, #15, 0
    942c:	e3a03020 	mov	r3, #32, 0
    9430:	e5843000 	str	r3, [r4]
    9434:	e3a03000 	mov	r3, #0, 0
    9438:	e5843004 	str	r3, [r4, #4]
    943c:	e59f20b4 	ldr	r2, [pc, #180]	; 94f8 <gpu_mem_unlock+0xdc>
    9440:	e5842008 	str	r2, [r4, #8]
    9444:	e3a02004 	mov	r2, #4, 0
    9448:	e584200c 	str	r2, [r4, #12]
    944c:	e5843010 	str	r3, [r4, #16]
    9450:	e5840014 	str	r0, [r4, #20]
    9454:	e5843018 	str	r3, [r4, #24]
    9458:	e584301c 	str	r3, [r4, #28]
    945c:	eb001c46 	bl	1057c <dev_barrier>
    9460:	e59f0094 	ldr	r0, [pc, #148]	; 94fc <gpu_mem_unlock+0xe0>
    9464:	ebfffaf0 	bl	802c <GET32>
    9468:	e3500000 	cmp	r0, #0, 0
    946c:	bafffffb 	blt	9460 <gpu_mem_unlock+0x44>
    9470:	e3841121 	orr	r1, r4, #1073741832	; 0x40000008
    9474:	e59f0084 	ldr	r0, [pc, #132]	; 9500 <gpu_mem_unlock+0xe4>
    9478:	ebfffae9 	bl	8024 <PUT32>
    947c:	eb001c3e 	bl	1057c <dev_barrier>
    9480:	eb001c3d 	bl	1057c <dev_barrier>
    9484:	e59f0070 	ldr	r0, [pc, #112]	; 94fc <gpu_mem_unlock+0xe0>
    9488:	ebfffae7 	bl	802c <GET32>
    948c:	e3100101 	tst	r0, #1073741824	; 0x40000000
    9490:	1afffffb 	bne	9484 <gpu_mem_unlock+0x68>
    9494:	e59f0068 	ldr	r0, [pc, #104]	; 9504 <gpu_mem_unlock+0xe8>
    9498:	ebfffae3 	bl	802c <GET32>
    949c:	e200000f 	and	r0, r0, #15, 0
    94a0:	e3500008 	cmp	r0, #8, 0
    94a4:	1a000005 	bne	94c0 <gpu_mem_unlock+0xa4>
    94a8:	e5943004 	ldr	r3, [r4, #4]
    94ac:	e3530102 	cmp	r3, #-2147483648	; 0x80000000
    94b0:	1a000008 	bne	94d8 <gpu_mem_unlock+0xbc>
    94b4:	e5940014 	ldr	r0, [r4, #20]
    94b8:	e28dd030 	add	sp, sp, #48, 0	; 0x30
    94bc:	e8bd8010 	pop	{r4, pc}
    94c0:	e3a03056 	mov	r3, #86, 0	; 0x56
    94c4:	e59f203c 	ldr	r2, [pc, #60]	; 9508 <gpu_mem_unlock+0xec>
    94c8:	e59f103c 	ldr	r1, [pc, #60]	; 950c <gpu_mem_unlock+0xf0>
    94cc:	e59f003c 	ldr	r0, [pc, #60]	; 9510 <gpu_mem_unlock+0xf4>
    94d0:	eb001acb 	bl	10004 <printk>
    94d4:	eb001c04 	bl	104ec <clean_reboot>
    94d8:	e5943004 	ldr	r3, [r4, #4]
    94dc:	e58d3000 	str	r3, [sp]
    94e0:	e3a03067 	mov	r3, #103, 0	; 0x67
    94e4:	e59f2028 	ldr	r2, [pc, #40]	; 9514 <gpu_mem_unlock+0xf8>
    94e8:	e59f101c 	ldr	r1, [pc, #28]	; 950c <gpu_mem_unlock+0xf0>
    94ec:	e59f0024 	ldr	r0, [pc, #36]	; 9518 <gpu_mem_unlock+0xfc>
    94f0:	eb001ac3 	bl	10004 <printk>
    94f4:	eb001bfc 	bl	104ec <clean_reboot>
    94f8:	0003000e 	.word	0x0003000e
    94fc:	2000b898 	.word	0x2000b898
    9500:	2000b8a0 	.word	0x2000b8a0
    9504:	2000b880 	.word	0x2000b880
    9508:	00011668 	.word	0x00011668
    950c:	0001158c 	.word	0x0001158c
    9510:	00011594 	.word	0x00011594
    9514:	00011674 	.word	0x00011674
    9518:	000115dc 	.word	0x000115dc

0000951c <gpu_mem_free>:
    951c:	e92d4010 	push	{r4, lr}
    9520:	e24dd030 	sub	sp, sp, #48, 0	; 0x30
    9524:	e28d4017 	add	r4, sp, #23, 0
    9528:	e3c4400f 	bic	r4, r4, #15, 0
    952c:	e3a03020 	mov	r3, #32, 0
    9530:	e5843000 	str	r3, [r4]
    9534:	e3a03000 	mov	r3, #0, 0
    9538:	e5843004 	str	r3, [r4, #4]
    953c:	e59f20b4 	ldr	r2, [pc, #180]	; 95f8 <gpu_mem_free+0xdc>
    9540:	e5842008 	str	r2, [r4, #8]
    9544:	e3a02004 	mov	r2, #4, 0
    9548:	e584200c 	str	r2, [r4, #12]
    954c:	e5843010 	str	r3, [r4, #16]
    9550:	e5840014 	str	r0, [r4, #20]
    9554:	e5843018 	str	r3, [r4, #24]
    9558:	e584301c 	str	r3, [r4, #28]
    955c:	eb001c06 	bl	1057c <dev_barrier>
    9560:	e59f0094 	ldr	r0, [pc, #148]	; 95fc <gpu_mem_free+0xe0>
    9564:	ebfffab0 	bl	802c <GET32>
    9568:	e3500000 	cmp	r0, #0, 0
    956c:	bafffffb 	blt	9560 <gpu_mem_free+0x44>
    9570:	e3841121 	orr	r1, r4, #1073741832	; 0x40000008
    9574:	e59f0084 	ldr	r0, [pc, #132]	; 9600 <gpu_mem_free+0xe4>
    9578:	ebfffaa9 	bl	8024 <PUT32>
    957c:	eb001bfe 	bl	1057c <dev_barrier>
    9580:	eb001bfd 	bl	1057c <dev_barrier>
    9584:	e59f0070 	ldr	r0, [pc, #112]	; 95fc <gpu_mem_free+0xe0>
    9588:	ebfffaa7 	bl	802c <GET32>
    958c:	e3100101 	tst	r0, #1073741824	; 0x40000000
    9590:	1afffffb 	bne	9584 <gpu_mem_free+0x68>
    9594:	e59f0068 	ldr	r0, [pc, #104]	; 9604 <gpu_mem_free+0xe8>
    9598:	ebfffaa3 	bl	802c <GET32>
    959c:	e200000f 	and	r0, r0, #15, 0
    95a0:	e3500008 	cmp	r0, #8, 0
    95a4:	1a000005 	bne	95c0 <gpu_mem_free+0xa4>
    95a8:	e5943004 	ldr	r3, [r4, #4]
    95ac:	e3530102 	cmp	r3, #-2147483648	; 0x80000000
    95b0:	1a000008 	bne	95d8 <gpu_mem_free+0xbc>
    95b4:	e5940014 	ldr	r0, [r4, #20]
    95b8:	e28dd030 	add	sp, sp, #48, 0	; 0x30
    95bc:	e8bd8010 	pop	{r4, pc}
    95c0:	e3a03056 	mov	r3, #86, 0	; 0x56
    95c4:	e59f203c 	ldr	r2, [pc, #60]	; 9608 <gpu_mem_free+0xec>
    95c8:	e59f103c 	ldr	r1, [pc, #60]	; 960c <gpu_mem_free+0xf0>
    95cc:	e59f003c 	ldr	r0, [pc, #60]	; 9610 <gpu_mem_free+0xf4>
    95d0:	eb001a8b 	bl	10004 <printk>
    95d4:	eb001bc4 	bl	104ec <clean_reboot>
    95d8:	e5943004 	ldr	r3, [r4, #4]
    95dc:	e58d3000 	str	r3, [sp]
    95e0:	e3a03067 	mov	r3, #103, 0	; 0x67
    95e4:	e59f2028 	ldr	r2, [pc, #40]	; 9614 <gpu_mem_free+0xf8>
    95e8:	e59f101c 	ldr	r1, [pc, #28]	; 960c <gpu_mem_free+0xf0>
    95ec:	e59f0024 	ldr	r0, [pc, #36]	; 9618 <gpu_mem_free+0xfc>
    95f0:	eb001a83 	bl	10004 <printk>
    95f4:	eb001bbc 	bl	104ec <clean_reboot>
    95f8:	0003000f 	.word	0x0003000f
    95fc:	2000b898 	.word	0x2000b898
    9600:	2000b8a0 	.word	0x2000b8a0
    9604:	2000b880 	.word	0x2000b880
    9608:	00011668 	.word	0x00011668
    960c:	0001158c 	.word	0x0001158c
    9610:	00011594 	.word	0x00011594
    9614:	00011674 	.word	0x00011674
    9618:	000115dc 	.word	0x000115dc

0000961c <cam_power_on>:
    961c:	e92d4010 	push	{r4, lr}
    9620:	e3a0002c 	mov	r0, #44, 0	; 0x2c
    9624:	eb0019d1 	bl	fd70 <gpio_set_output>
    9628:	e3a0002c 	mov	r0, #44, 0	; 0x2c
    962c:	eb001981 	bl	fc38 <gpio_set_off>
    9630:	e3a00064 	mov	r0, #100, 0	; 0x64
    9634:	eb001bfb 	bl	10628 <delay_ms>
    9638:	e3a0002c 	mov	r0, #44, 0	; 0x2c
    963c:	eb00196b 	bl	fbf0 <gpio_set_on>
    9640:	e3a00f7d 	mov	r0, #500	; 0x1f4
    9644:	eb001bf7 	bl	10628 <delay_ms>
    9648:	e8bd8010 	pop	{r4, pc}

0000964c <cam_power_off>:
    964c:	e92d4010 	push	{r4, lr}
    9650:	e3a0002c 	mov	r0, #44, 0	; 0x2c
    9654:	eb001977 	bl	fc38 <gpio_set_off>
    9658:	e8bd8010 	pop	{r4, pc}

0000965c <i2c_init_ex>:
    965c:	e92d4070 	push	{r4, r5, r6, lr}
    9660:	e1a03001 	mov	r3, r1
    9664:	e1a05002 	mov	r5, r2
    9668:	e59f406c 	ldr	r4, [pc, #108]	; 96dc <i2c_init_ex+0x80>
    966c:	e5840000 	str	r0, [r4]
    9670:	e3a01004 	mov	r1, #4, 0
    9674:	e1a00003 	mov	r0, r3
    9678:	eb001999 	bl	fce4 <gpio_set_function>
    967c:	e3a01004 	mov	r1, #4, 0
    9680:	e1a00005 	mov	r0, r5
    9684:	eb001996 	bl	fce4 <gpio_set_function>
    9688:	eb001bbb 	bl	1057c <dev_barrier>
    968c:	e5940000 	ldr	r0, [r4]
    9690:	e59f1048 	ldr	r1, [pc, #72]	; 96e0 <i2c_init_ex+0x84>
    9694:	e2800014 	add	r0, r0, #20, 0
    9698:	ebfffa61 	bl	8024 <PUT32>
    969c:	e3a01010 	mov	r1, #16, 0
    96a0:	e5940000 	ldr	r0, [r4]
    96a4:	ebfffa5e 	bl	8024 <PUT32>
    96a8:	e5940000 	ldr	r0, [r4]
    96ac:	e59f1030 	ldr	r1, [pc, #48]	; 96e4 <i2c_init_ex+0x88>
    96b0:	e2800004 	add	r0, r0, #4, 0
    96b4:	ebfffa5a 	bl	8024 <PUT32>
    96b8:	e5940000 	ldr	r0, [r4]
    96bc:	e3a01040 	mov	r1, #64, 0	; 0x40
    96c0:	e280001c 	add	r0, r0, #28, 0
    96c4:	ebfffa56 	bl	8024 <PUT32>
    96c8:	e3a01902 	mov	r1, #32768	; 0x8000
    96cc:	e5940000 	ldr	r0, [r4]
    96d0:	ebfffa53 	bl	8024 <PUT32>
    96d4:	eb001ba8 	bl	1057c <dev_barrier>
    96d8:	e8bd8070 	pop	{r4, r5, r6, pc}
    96dc:	00014c4c 	.word	0x00014c4c
    96e0:	000009c4 	.word	0x000009c4
    96e4:	00000302 	.word	0x00000302

000096e8 <i2c_init>:
    96e8:	e92d4010 	push	{r4, lr}
    96ec:	e3a02001 	mov	r2, #1, 0
    96f0:	e3a01000 	mov	r1, #0, 0
    96f4:	e59f0004 	ldr	r0, [pc, #4]	; 9700 <i2c_init+0x18>
    96f8:	ebffffd7 	bl	965c <i2c_init_ex>
    96fc:	e8bd8010 	pop	{r4, pc}
    9700:	20205000 	.word	0x20205000

00009704 <i2c_write>:
    9704:	e92d41f0 	push	{r4, r5, r6, r7, r8, lr}
    9708:	e1a05000 	mov	r5, r0
    970c:	e1a07001 	mov	r7, r1
    9710:	e1a06002 	mov	r6, r2
    9714:	eb001b98 	bl	1057c <dev_barrier>
    9718:	e59f418c 	ldr	r4, [pc, #396]	; 98ac <i2c_write+0x1a8>
    971c:	e5940000 	ldr	r0, [r4]
    9720:	e59f1188 	ldr	r1, [pc, #392]	; 98b0 <i2c_write+0x1ac>
    9724:	e2800004 	add	r0, r0, #4, 0
    9728:	ebfffa3d 	bl	8024 <PUT32>
    972c:	e5940000 	ldr	r0, [r4]
    9730:	e1a01005 	mov	r1, r5
    9734:	e280000c 	add	r0, r0, #12, 0
    9738:	ebfffa39 	bl	8024 <PUT32>
    973c:	e5940000 	ldr	r0, [r4]
    9740:	e1a01006 	mov	r1, r6
    9744:	e2800008 	add	r0, r0, #8, 0
    9748:	ebfffa35 	bl	8024 <PUT32>
    974c:	e3a05000 	mov	r5, #0, 0
    9750:	e355000f 	cmp	r5, #15, 0
    9754:	91550006 	cmpls	r5, r6
    9758:	2a000006 	bcs	9778 <i2c_write+0x74>
    975c:	e59f3148 	ldr	r3, [pc, #328]	; 98ac <i2c_write+0x1a8>
    9760:	e5930000 	ldr	r0, [r3]
    9764:	e7d71005 	ldrb	r1, [r7, r5]
    9768:	e2800010 	add	r0, r0, #16, 0
    976c:	ebfffa2c 	bl	8024 <PUT32>
    9770:	e2855001 	add	r5, r5, #1, 0
    9774:	eafffff5 	b	9750 <i2c_write+0x4c>
    9778:	e59f1134 	ldr	r1, [pc, #308]	; 98b4 <i2c_write+0x1b0>
    977c:	e59f3128 	ldr	r3, [pc, #296]	; 98ac <i2c_write+0x1a8>
    9780:	e5930000 	ldr	r0, [r3]
    9784:	ebfffa26 	bl	8024 <PUT32>
    9788:	eb001b96 	bl	105e8 <timer_get_usec>
    978c:	e1a08000 	mov	r8, r0
    9790:	ea000008 	b	97b8 <i2c_write+0xb4>
    9794:	e3140c01 	tst	r4, #256	; 0x100
    9798:	1a00001c 	bne	9810 <i2c_write+0x10c>
    979c:	e3140c02 	tst	r4, #512	; 0x200
    97a0:	1a000022 	bne	9830 <i2c_write+0x12c>
    97a4:	eb001b8f 	bl	105e8 <timer_get_usec>
    97a8:	e0400008 	sub	r0, r0, r8
    97ac:	e59f3104 	ldr	r3, [pc, #260]	; 98b8 <i2c_write+0x1b4>
    97b0:	e1500003 	cmp	r0, r3
    97b4:	8a000025 	bhi	9850 <i2c_write+0x14c>
    97b8:	e59f30ec 	ldr	r3, [pc, #236]	; 98ac <i2c_write+0x1a8>
    97bc:	e5930000 	ldr	r0, [r3]
    97c0:	e2800004 	add	r0, r0, #4, 0
    97c4:	ebfffa18 	bl	802c <GET32>
    97c8:	e3100002 	tst	r0, #2, 0
    97cc:	1a000022 	bne	985c <i2c_write+0x158>
    97d0:	e59f30d4 	ldr	r3, [pc, #212]	; 98ac <i2c_write+0x1a8>
    97d4:	e5930000 	ldr	r0, [r3]
    97d8:	e2800004 	add	r0, r0, #4, 0
    97dc:	ebfffa12 	bl	802c <GET32>
    97e0:	e1a04000 	mov	r4, r0
    97e4:	e3100010 	tst	r0, #16, 0
    97e8:	0affffe9 	beq	9794 <i2c_write+0x90>
    97ec:	e1550006 	cmp	r5, r6
    97f0:	2affffe7 	bcs	9794 <i2c_write+0x90>
    97f4:	e59f30b0 	ldr	r3, [pc, #176]	; 98ac <i2c_write+0x1a8>
    97f8:	e5930000 	ldr	r0, [r3]
    97fc:	e7d71005 	ldrb	r1, [r7, r5]
    9800:	e2800010 	add	r0, r0, #16, 0
    9804:	ebfffa06 	bl	8024 <PUT32>
    9808:	e2855001 	add	r5, r5, #1, 0
    980c:	eaffffe0 	b	9794 <i2c_write+0x90>
    9810:	e59f3094 	ldr	r3, [pc, #148]	; 98ac <i2c_write+0x1a8>
    9814:	e5930000 	ldr	r0, [r3]
    9818:	e3a01c01 	mov	r1, #256	; 0x100
    981c:	e2800004 	add	r0, r0, #4, 0
    9820:	ebfff9ff 	bl	8024 <PUT32>
    9824:	eb001b54 	bl	1057c <dev_barrier>
    9828:	e3e00000 	mvn	r0, #0, 0
    982c:	e8bd81f0 	pop	{r4, r5, r6, r7, r8, pc}
    9830:	e59f3074 	ldr	r3, [pc, #116]	; 98ac <i2c_write+0x1a8>
    9834:	e5930000 	ldr	r0, [r3]
    9838:	e3a01c02 	mov	r1, #512	; 0x200
    983c:	e2800004 	add	r0, r0, #4, 0
    9840:	ebfff9f7 	bl	8024 <PUT32>
    9844:	eb001b4c 	bl	1057c <dev_barrier>
    9848:	e3e00001 	mvn	r0, #1, 0
    984c:	e8bd81f0 	pop	{r4, r5, r6, r7, r8, pc}
    9850:	eb001b49 	bl	1057c <dev_barrier>
    9854:	e3e00001 	mvn	r0, #1, 0
    9858:	e8bd81f0 	pop	{r4, r5, r6, r7, r8, pc}
    985c:	e59f5048 	ldr	r5, [pc, #72]	; 98ac <i2c_write+0x1a8>
    9860:	e5950000 	ldr	r0, [r5]
    9864:	e2800004 	add	r0, r0, #4, 0
    9868:	ebfff9ef 	bl	802c <GET32>
    986c:	e1a04000 	mov	r4, r0
    9870:	e5950000 	ldr	r0, [r5]
    9874:	e59f1034 	ldr	r1, [pc, #52]	; 98b0 <i2c_write+0x1ac>
    9878:	e2800004 	add	r0, r0, #4, 0
    987c:	ebfff9e8 	bl	8024 <PUT32>
    9880:	eb001b3d 	bl	1057c <dev_barrier>
    9884:	e3140c01 	tst	r4, #256	; 0x100
    9888:	1a000003 	bne	989c <i2c_write+0x198>
    988c:	e3140c02 	tst	r4, #512	; 0x200
    9890:	1a000003 	bne	98a4 <i2c_write+0x1a0>
    9894:	e3a00000 	mov	r0, #0, 0
    9898:	e8bd81f0 	pop	{r4, r5, r6, r7, r8, pc}
    989c:	e3e00000 	mvn	r0, #0, 0
    98a0:	e8bd81f0 	pop	{r4, r5, r6, r7, r8, pc}
    98a4:	e3e00001 	mvn	r0, #1, 0
    98a8:	e8bd81f0 	pop	{r4, r5, r6, r7, r8, pc}
    98ac:	00014c4c 	.word	0x00014c4c
    98b0:	00000302 	.word	0x00000302
    98b4:	00008080 	.word	0x00008080
    98b8:	000186a0 	.word	0x000186a0

000098bc <i2c_read>:
    98bc:	e92d41f0 	push	{r4, r5, r6, r7, r8, lr}
    98c0:	e1a05000 	mov	r5, r0
    98c4:	e1a08001 	mov	r8, r1
    98c8:	e1a07002 	mov	r7, r2
    98cc:	eb001b2a 	bl	1057c <dev_barrier>
    98d0:	e59f4198 	ldr	r4, [pc, #408]	; 9a70 <i2c_read+0x1b4>
    98d4:	e5940000 	ldr	r0, [r4]
    98d8:	e59f1194 	ldr	r1, [pc, #404]	; 9a74 <i2c_read+0x1b8>
    98dc:	e2800004 	add	r0, r0, #4, 0
    98e0:	ebfff9cf 	bl	8024 <PUT32>
    98e4:	e5940000 	ldr	r0, [r4]
    98e8:	e1a01005 	mov	r1, r5
    98ec:	e280000c 	add	r0, r0, #12, 0
    98f0:	ebfff9cb 	bl	8024 <PUT32>
    98f4:	e5940000 	ldr	r0, [r4]
    98f8:	e1a01007 	mov	r1, r7
    98fc:	e2800008 	add	r0, r0, #8, 0
    9900:	ebfff9c7 	bl	8024 <PUT32>
    9904:	e59f116c 	ldr	r1, [pc, #364]	; 9a78 <i2c_read+0x1bc>
    9908:	e5940000 	ldr	r0, [r4]
    990c:	ebfff9c4 	bl	8024 <PUT32>
    9910:	eb001b34 	bl	105e8 <timer_get_usec>
    9914:	e1a06000 	mov	r6, r0
    9918:	e3a05000 	mov	r5, #0, 0
    991c:	ea00000e 	b	995c <i2c_read+0xa0>
    9920:	e59f3148 	ldr	r3, [pc, #328]	; 9a70 <i2c_read+0x1b4>
    9924:	e5930000 	ldr	r0, [r3]
    9928:	e2800010 	add	r0, r0, #16, 0
    992c:	ebfff9be 	bl	802c <GET32>
    9930:	e7c80005 	strb	r0, [r8, r5]
    9934:	e2855001 	add	r5, r5, #1, 0
    9938:	e3140c01 	tst	r4, #256	; 0x100
    993c:	1a000016 	bne	999c <i2c_read+0xe0>
    9940:	e3140c02 	tst	r4, #512	; 0x200
    9944:	1a00001c 	bne	99bc <i2c_read+0x100>
    9948:	eb001b26 	bl	105e8 <timer_get_usec>
    994c:	e0400006 	sub	r0, r0, r6
    9950:	e59f3124 	ldr	r3, [pc, #292]	; 9a7c <i2c_read+0x1c0>
    9954:	e1500003 	cmp	r0, r3
    9958:	8a00001f 	bhi	99dc <i2c_read+0x120>
    995c:	e59f310c 	ldr	r3, [pc, #268]	; 9a70 <i2c_read+0x1b4>
    9960:	e5930000 	ldr	r0, [r3]
    9964:	e2800004 	add	r0, r0, #4, 0
    9968:	ebfff9af 	bl	802c <GET32>
    996c:	e3100002 	tst	r0, #2, 0
    9970:	1a000022 	bne	9a00 <i2c_read+0x144>
    9974:	e59f30f4 	ldr	r3, [pc, #244]	; 9a70 <i2c_read+0x1b4>
    9978:	e5930000 	ldr	r0, [r3]
    997c:	e2800004 	add	r0, r0, #4, 0
    9980:	ebfff9a9 	bl	802c <GET32>
    9984:	e1a04000 	mov	r4, r0
    9988:	e3100020 	tst	r0, #32, 0
    998c:	0affffe9 	beq	9938 <i2c_read+0x7c>
    9990:	e1550007 	cmp	r5, r7
    9994:	2affffe7 	bcs	9938 <i2c_read+0x7c>
    9998:	eaffffe0 	b	9920 <i2c_read+0x64>
    999c:	e59f30cc 	ldr	r3, [pc, #204]	; 9a70 <i2c_read+0x1b4>
    99a0:	e5930000 	ldr	r0, [r3]
    99a4:	e3a01c01 	mov	r1, #256	; 0x100
    99a8:	e2800004 	add	r0, r0, #4, 0
    99ac:	ebfff99c 	bl	8024 <PUT32>
    99b0:	eb001af1 	bl	1057c <dev_barrier>
    99b4:	e3e00000 	mvn	r0, #0, 0
    99b8:	e8bd81f0 	pop	{r4, r5, r6, r7, r8, pc}
    99bc:	e59f30ac 	ldr	r3, [pc, #172]	; 9a70 <i2c_read+0x1b4>
    99c0:	e5930000 	ldr	r0, [r3]
    99c4:	e3a01c02 	mov	r1, #512	; 0x200
    99c8:	e2800004 	add	r0, r0, #4, 0
    99cc:	ebfff994 	bl	8024 <PUT32>
    99d0:	eb001ae9 	bl	1057c <dev_barrier>
    99d4:	e3e00001 	mvn	r0, #1, 0
    99d8:	e8bd81f0 	pop	{r4, r5, r6, r7, r8, pc}
    99dc:	eb001ae6 	bl	1057c <dev_barrier>
    99e0:	e3e00001 	mvn	r0, #1, 0
    99e4:	e8bd81f0 	pop	{r4, r5, r6, r7, r8, pc}
    99e8:	e59f3080 	ldr	r3, [pc, #128]	; 9a70 <i2c_read+0x1b4>
    99ec:	e5930000 	ldr	r0, [r3]
    99f0:	e2800010 	add	r0, r0, #16, 0
    99f4:	ebfff98c 	bl	802c <GET32>
    99f8:	e7c80005 	strb	r0, [r8, r5]
    99fc:	e2855001 	add	r5, r5, #1, 0
    9a00:	e1550007 	cmp	r5, r7
    9a04:	2a000005 	bcs	9a20 <i2c_read+0x164>
    9a08:	e59f3060 	ldr	r3, [pc, #96]	; 9a70 <i2c_read+0x1b4>
    9a0c:	e5930000 	ldr	r0, [r3]
    9a10:	e2800004 	add	r0, r0, #4, 0
    9a14:	ebfff984 	bl	802c <GET32>
    9a18:	e3100020 	tst	r0, #32, 0
    9a1c:	1afffff1 	bne	99e8 <i2c_read+0x12c>
    9a20:	e59f5048 	ldr	r5, [pc, #72]	; 9a70 <i2c_read+0x1b4>
    9a24:	e5950000 	ldr	r0, [r5]
    9a28:	e2800004 	add	r0, r0, #4, 0
    9a2c:	ebfff97e 	bl	802c <GET32>
    9a30:	e1a04000 	mov	r4, r0
    9a34:	e5950000 	ldr	r0, [r5]
    9a38:	e59f1034 	ldr	r1, [pc, #52]	; 9a74 <i2c_read+0x1b8>
    9a3c:	e2800004 	add	r0, r0, #4, 0
    9a40:	ebfff977 	bl	8024 <PUT32>
    9a44:	eb001acc 	bl	1057c <dev_barrier>
    9a48:	e3140c01 	tst	r4, #256	; 0x100
    9a4c:	1a000003 	bne	9a60 <i2c_read+0x1a4>
    9a50:	e3140c02 	tst	r4, #512	; 0x200
    9a54:	1a000003 	bne	9a68 <i2c_read+0x1ac>
    9a58:	e3a00000 	mov	r0, #0, 0
    9a5c:	e8bd81f0 	pop	{r4, r5, r6, r7, r8, pc}
    9a60:	e3e00000 	mvn	r0, #0, 0
    9a64:	e8bd81f0 	pop	{r4, r5, r6, r7, r8, pc}
    9a68:	e3e00001 	mvn	r0, #1, 0
    9a6c:	e8bd81f0 	pop	{r4, r5, r6, r7, r8, pc}
    9a70:	00014c4c 	.word	0x00014c4c
    9a74:	00000302 	.word	0x00000302
    9a78:	00008081 	.word	0x00008081
    9a7c:	000186a0 	.word	0x000186a0

00009a80 <i2c_write_read>:
    9a80:	e92d4070 	push	{r4, r5, r6, lr}
    9a84:	e1a04000 	mov	r4, r0
    9a88:	e1a05003 	mov	r5, r3
    9a8c:	ebffff1c 	bl	9704 <i2c_write>
    9a90:	e3500000 	cmp	r0, #0, 0
    9a94:	18bd8070 	popne	{r4, r5, r6, pc}
    9a98:	e59d2010 	ldr	r2, [sp, #16]
    9a9c:	e1a01005 	mov	r1, r5
    9aa0:	e1a00004 	mov	r0, r4
    9aa4:	ebffff84 	bl	98bc <i2c_read>
    9aa8:	e8bd8070 	pop	{r4, r5, r6, pc}

00009aac <imx477_write_reg8>:
    9aac:	e92d4030 	push	{r4, r5, lr}
    9ab0:	e24dd01c 	sub	sp, sp, #28, 0
    9ab4:	e1a04000 	mov	r4, r0
    9ab8:	e1a05001 	mov	r5, r1
    9abc:	e1a03420 	lsr	r3, r0, #8
    9ac0:	e5cd3014 	strb	r3, [sp, #20]
    9ac4:	e5cd0015 	strb	r0, [sp, #21]
    9ac8:	e5cd1016 	strb	r1, [sp, #22]
    9acc:	e3a02003 	mov	r2, #3, 0
    9ad0:	e28d1014 	add	r1, sp, #20, 0
    9ad4:	e3a0001a 	mov	r0, #26, 0
    9ad8:	ebffff09 	bl	9704 <i2c_write>
    9adc:	e3500000 	cmp	r0, #0, 0
    9ae0:	1a000001 	bne	9aec <imx477_write_reg8+0x40>
    9ae4:	e28dd01c 	add	sp, sp, #28, 0
    9ae8:	e8bd8030 	pop	{r4, r5, pc}
    9aec:	e58d0008 	str	r0, [sp, #8]
    9af0:	e58d5004 	str	r5, [sp, #4]
    9af4:	e58d4000 	str	r4, [sp]
    9af8:	e3a03012 	mov	r3, #18, 0
    9afc:	e59f200c 	ldr	r2, [pc, #12]	; 9b10 <imx477_write_reg8+0x64>
    9b00:	e59f100c 	ldr	r1, [pc, #12]	; 9b14 <imx477_write_reg8+0x68>
    9b04:	e59f000c 	ldr	r0, [pc, #12]	; 9b18 <imx477_write_reg8+0x6c>
    9b08:	eb00193d 	bl	10004 <printk>
    9b0c:	eb001a76 	bl	104ec <clean_reboot>
    9b10:	000117f4 	.word	0x000117f4
    9b14:	0001172c 	.word	0x0001172c
    9b18:	00011738 	.word	0x00011738

00009b1c <imx477_write_table>:
    9b1c:	e92d4070 	push	{r4, r5, r6, lr}
    9b20:	e1a05000 	mov	r5, r0
    9b24:	e1a06001 	mov	r6, r1
    9b28:	e3a04000 	mov	r4, #0, 0
    9b2c:	e1540006 	cmp	r4, r6
    9b30:	28bd8070 	popcs	{r4, r5, r6, pc}
    9b34:	e1a03104 	lsl	r3, r4, #2
    9b38:	e0852104 	add	r2, r5, r4, lsl #2
    9b3c:	e5d21002 	ldrb	r1, [r2, #2]
    9b40:	e19500b3 	ldrh	r0, [r5, r3]
    9b44:	ebffffd8 	bl	9aac <imx477_write_reg8>
    9b48:	e2844001 	add	r4, r4, #1, 0
    9b4c:	eafffff6 	b	9b2c <imx477_write_table+0x10>

00009b50 <imx477_read_reg8>:
    9b50:	e92d4010 	push	{r4, lr}
    9b54:	e24dd010 	sub	sp, sp, #16, 0
    9b58:	e1a04000 	mov	r4, r0
    9b5c:	e1a03001 	mov	r3, r1
    9b60:	e1a02420 	lsr	r2, r0, #8
    9b64:	e5cd200c 	strb	r2, [sp, #12]
    9b68:	e5cd000d 	strb	r0, [sp, #13]
    9b6c:	e3a02001 	mov	r2, #1, 0
    9b70:	e58d2000 	str	r2, [sp]
    9b74:	e3a02002 	mov	r2, #2, 0
    9b78:	e28d100c 	add	r1, sp, #12, 0
    9b7c:	e3a0001a 	mov	r0, #26, 0
    9b80:	ebffffbe 	bl	9a80 <i2c_write_read>
    9b84:	e3500000 	cmp	r0, #0, 0
    9b88:	1a000001 	bne	9b94 <imx477_read_reg8+0x44>
    9b8c:	e28dd010 	add	sp, sp, #16, 0
    9b90:	e8bd8010 	pop	{r4, pc}
    9b94:	e58d0004 	str	r0, [sp, #4]
    9b98:	e58d4000 	str	r4, [sp]
    9b9c:	e3a03019 	mov	r3, #25, 0
    9ba0:	e59f200c 	ldr	r2, [pc, #12]	; 9bb4 <imx477_read_reg8+0x64>
    9ba4:	e59f100c 	ldr	r1, [pc, #12]	; 9bb8 <imx477_read_reg8+0x68>
    9ba8:	e59f000c 	ldr	r0, [pc, #12]	; 9bbc <imx477_read_reg8+0x6c>
    9bac:	eb001914 	bl	10004 <printk>
    9bb0:	eb001a4d 	bl	104ec <clean_reboot>
    9bb4:	00011808 	.word	0x00011808
    9bb8:	0001172c 	.word	0x0001172c
    9bbc:	00011770 	.word	0x00011770

00009bc0 <imx477_init>:
    9bc0:	e92d4070 	push	{r4, r5, r6, lr}
    9bc4:	e3a01f4d 	mov	r1, #308	; 0x134
    9bc8:	e59f0044 	ldr	r0, [pc, #68]	; 9c14 <imx477_init+0x54>
    9bcc:	eb00190c 	bl	10004 <printk>
    9bd0:	e59f5040 	ldr	r5, [pc, #64]	; 9c18 <imx477_init+0x58>
    9bd4:	e3a01f4d 	mov	r1, #308	; 0x134
    9bd8:	e2850028 	add	r0, r5, #40, 0	; 0x28
    9bdc:	ebffffce 	bl	9b1c <imx477_write_table>
    9be0:	e59f4034 	ldr	r4, [pc, #52]	; 9c1c <imx477_init+0x5c>
    9be4:	e1a00004 	mov	r0, r4
    9be8:	eb001905 	bl	10004 <printk>
    9bec:	e3a01068 	mov	r1, #104, 0	; 0x68
    9bf0:	e59f0028 	ldr	r0, [pc, #40]	; 9c20 <imx477_init+0x60>
    9bf4:	eb001902 	bl	10004 <printk>
    9bf8:	e3a01068 	mov	r1, #104, 0	; 0x68
    9bfc:	e2850e4f 	add	r0, r5, #1264	; 0x4f0
    9c00:	e2800008 	add	r0, r0, #8, 0
    9c04:	ebffffc4 	bl	9b1c <imx477_write_table>
    9c08:	e1a00004 	mov	r0, r4
    9c0c:	eb0018fc 	bl	10004 <printk>
    9c10:	e8bd8070 	pop	{r4, r5, r6, pc}
    9c14:	000117a0 	.word	0x000117a0
    9c18:	000117f4 	.word	0x000117f4
    9c1c:	000117c4 	.word	0x000117c4
    9c20:	000117cc 	.word	0x000117cc

00009c24 <imx477_start_streaming>:
    9c24:	e92d4010 	push	{r4, lr}
    9c28:	e3a01001 	mov	r1, #1, 0
    9c2c:	e3a00c01 	mov	r0, #256	; 0x100
    9c30:	ebffff9d 	bl	9aac <imx477_write_reg8>
    9c34:	e8bd8010 	pop	{r4, pc}

00009c38 <imx477_stop_streaming>:
    9c38:	e92d4010 	push	{r4, lr}
    9c3c:	e3a01000 	mov	r1, #0, 0
    9c40:	e3a00c01 	mov	r0, #256	; 0x100
    9c44:	ebffff98 	bl	9aac <imx477_write_reg8>
    9c48:	e8bd8010 	pop	{r4, pc}

00009c4c <imx477_set_test_pattern>:
    9c4c:	e92d4010 	push	{r4, lr}
    9c50:	e1a04000 	mov	r4, r0
    9c54:	e3a01000 	mov	r1, #0, 0
    9c58:	e3a00c06 	mov	r0, #1536	; 0x600
    9c5c:	ebffff92 	bl	9aac <imx477_write_reg8>
    9c60:	e1a01004 	mov	r1, r4
    9c64:	e59f0004 	ldr	r0, [pc, #4]	; 9c70 <imx477_set_test_pattern+0x24>
    9c68:	ebffff8f 	bl	9aac <imx477_write_reg8>
    9c6c:	e8bd8010 	pop	{r4, pc}
    9c70:	00000601 	.word	0x00000601

00009c74 <cam1_clock_init>:
    9c74:	e92d4010 	push	{r4, lr}
    9c78:	e59f1040 	ldr	r1, [pc, #64]	; 9cc0 <cam1_clock_init+0x4c>
    9c7c:	e59f0040 	ldr	r0, [pc, #64]	; 9cc4 <cam1_clock_init+0x50>
    9c80:	ebfff8e7 	bl	8024 <PUT32>
    9c84:	e59f0038 	ldr	r0, [pc, #56]	; 9cc4 <cam1_clock_init+0x50>
    9c88:	ebfff8e7 	bl	802c <GET32>
    9c8c:	e3100080 	tst	r0, #128, 0	; 0x80
    9c90:	1afffffb 	bne	9c84 <cam1_clock_init+0x10>
    9c94:	e59f102c 	ldr	r1, [pc, #44]	; 9cc8 <cam1_clock_init+0x54>
    9c98:	e59f002c 	ldr	r0, [pc, #44]	; 9ccc <cam1_clock_init+0x58>
    9c9c:	ebfff8e0 	bl	8024 <PUT32>
    9ca0:	e59f1028 	ldr	r1, [pc, #40]	; 9cd0 <cam1_clock_init+0x5c>
    9ca4:	e59f0018 	ldr	r0, [pc, #24]	; 9cc4 <cam1_clock_init+0x50>
    9ca8:	ebfff8dd 	bl	8024 <PUT32>
    9cac:	e59f0010 	ldr	r0, [pc, #16]	; 9cc4 <cam1_clock_init+0x50>
    9cb0:	ebfff8dd 	bl	802c <GET32>
    9cb4:	e3100080 	tst	r0, #128, 0	; 0x80
    9cb8:	0afffffb 	beq	9cac <cam1_clock_init+0x38>
    9cbc:	e8bd8010 	pop	{r4, pc}
    9cc0:	5a000006 	.word	0x5a000006
    9cc4:	20101048 	.word	0x20101048
    9cc8:	5a005000 	.word	0x5a005000
    9ccc:	2010104c 	.word	0x2010104c
    9cd0:	5a000016 	.word	0x5a000016

00009cd4 <enable_power_domain>:
    9cd4:	e92d4010 	push	{r4, lr}
    9cd8:	e24dd030 	sub	sp, sp, #48, 0	; 0x30
    9cdc:	e28d4017 	add	r4, sp, #23, 0
    9ce0:	e3c4400f 	bic	r4, r4, #15, 0
    9ce4:	e3a03020 	mov	r3, #32, 0
    9ce8:	e5843000 	str	r3, [r4]
    9cec:	e3a03000 	mov	r3, #0, 0
    9cf0:	e5843004 	str	r3, [r4, #4]
    9cf4:	e59f20b4 	ldr	r2, [pc, #180]	; 9db0 <enable_power_domain+0xdc>
    9cf8:	e5842008 	str	r2, [r4, #8]
    9cfc:	e3a02008 	mov	r2, #8, 0
    9d00:	e584200c 	str	r2, [r4, #12]
    9d04:	e5843010 	str	r3, [r4, #16]
    9d08:	e5840014 	str	r0, [r4, #20]
    9d0c:	e3a02001 	mov	r2, #1, 0
    9d10:	e5842018 	str	r2, [r4, #24]
    9d14:	e584301c 	str	r3, [r4, #28]
    9d18:	eb001a17 	bl	1057c <dev_barrier>
    9d1c:	e59f0090 	ldr	r0, [pc, #144]	; 9db4 <enable_power_domain+0xe0>
    9d20:	ebfff8c1 	bl	802c <GET32>
    9d24:	e3500000 	cmp	r0, #0, 0
    9d28:	bafffffb 	blt	9d1c <enable_power_domain+0x48>
    9d2c:	e3841121 	orr	r1, r4, #1073741832	; 0x40000008
    9d30:	e59f0080 	ldr	r0, [pc, #128]	; 9db8 <enable_power_domain+0xe4>
    9d34:	ebfff8ba 	bl	8024 <PUT32>
    9d38:	eb001a0f 	bl	1057c <dev_barrier>
    9d3c:	eb001a0e 	bl	1057c <dev_barrier>
    9d40:	e59f006c 	ldr	r0, [pc, #108]	; 9db4 <enable_power_domain+0xe0>
    9d44:	ebfff8b8 	bl	802c <GET32>
    9d48:	e3100101 	tst	r0, #1073741824	; 0x40000000
    9d4c:	1afffffb 	bne	9d40 <enable_power_domain+0x6c>
    9d50:	e59f0064 	ldr	r0, [pc, #100]	; 9dbc <enable_power_domain+0xe8>
    9d54:	ebfff8b4 	bl	802c <GET32>
    9d58:	e200000f 	and	r0, r0, #15, 0
    9d5c:	e3500008 	cmp	r0, #8, 0
    9d60:	1a000004 	bne	9d78 <enable_power_domain+0xa4>
    9d64:	e5943004 	ldr	r3, [r4, #4]
    9d68:	e3530102 	cmp	r3, #-2147483648	; 0x80000000
    9d6c:	1a000007 	bne	9d90 <enable_power_domain+0xbc>
    9d70:	e28dd030 	add	sp, sp, #48, 0	; 0x30
    9d74:	e8bd8010 	pop	{r4, pc}
    9d78:	e3a03056 	mov	r3, #86, 0	; 0x56
    9d7c:	e59f203c 	ldr	r2, [pc, #60]	; 9dc0 <enable_power_domain+0xec>
    9d80:	e59f103c 	ldr	r1, [pc, #60]	; 9dc4 <enable_power_domain+0xf0>
    9d84:	e59f003c 	ldr	r0, [pc, #60]	; 9dc8 <enable_power_domain+0xf4>
    9d88:	eb00189d 	bl	10004 <printk>
    9d8c:	eb0019d6 	bl	104ec <clean_reboot>
    9d90:	e5943004 	ldr	r3, [r4, #4]
    9d94:	e58d3000 	str	r3, [sp]
    9d98:	e3a03067 	mov	r3, #103, 0	; 0x67
    9d9c:	e59f2028 	ldr	r2, [pc, #40]	; 9dcc <enable_power_domain+0xf8>
    9da0:	e59f101c 	ldr	r1, [pc, #28]	; 9dc4 <enable_power_domain+0xf0>
    9da4:	e59f0024 	ldr	r0, [pc, #36]	; 9dd0 <enable_power_domain+0xfc>
    9da8:	eb001895 	bl	10004 <printk>
    9dac:	eb0019ce 	bl	104ec <clean_reboot>
    9db0:	00038030 	.word	0x00038030
    9db4:	2000b898 	.word	0x2000b898
    9db8:	2000b8a0 	.word	0x2000b8a0
    9dbc:	2000b880 	.word	0x2000b880
    9dc0:	0001203c 	.word	0x0001203c
    9dc4:	0001158c 	.word	0x0001158c
    9dc8:	00011594 	.word	0x00011594
    9dcc:	00012048 	.word	0x00012048
    9dd0:	000115dc 	.word	0x000115dc

00009dd4 <unicam_power_init>:
    9dd4:	e92d4010 	push	{r4, lr}
    9dd8:	e3a0000e 	mov	r0, #14, 0
    9ddc:	ebffffbc 	bl	9cd4 <enable_power_domain>
    9de0:	e59f0028 	ldr	r0, [pc, #40]	; 9e10 <unicam_power_init+0x3c>
    9de4:	eb001886 	bl	10004 <printk>
    9de8:	e3a00010 	mov	r0, #16, 0
    9dec:	ebffffb8 	bl	9cd4 <enable_power_domain>
    9df0:	e59f001c 	ldr	r0, [pc, #28]	; 9e14 <unicam_power_init+0x40>
    9df4:	eb001882 	bl	10004 <printk>
    9df8:	eb0019df 	bl	1057c <dev_barrier>
    9dfc:	ebffff9c 	bl	9c74 <cam1_clock_init>
    9e00:	eb0019dd 	bl	1057c <dev_barrier>
    9e04:	e59f000c 	ldr	r0, [pc, #12]	; 9e18 <unicam_power_init+0x44>
    9e08:	eb00187d 	bl	10004 <printk>
    9e0c:	e8bd8010 	pop	{r4, pc}
    9e10:	00011e8c 	.word	0x00011e8c
    9e14:	00011eac 	.word	0x00011eac
    9e18:	00011ec8 	.word	0x00011ec8

00009e1c <unicam_rx_init>:
    9e1c:	e92d4ff0 	push	{r4, r5, r6, r7, r8, r9, sl, fp, lr}
    9e20:	e24dd014 	sub	sp, sp, #20, 0
    9e24:	e1a06000 	mov	r6, r0
    9e28:	e58d100c 	str	r1, [sp, #12]
    9e2c:	e1a08002 	mov	r8, r2
    9e30:	e59f1280 	ldr	r1, [pc, #640]	; a0b8 <unicam_rx_init+0x29c>
    9e34:	e59f0280 	ldr	r0, [pc, #640]	; a0bc <unicam_rx_init+0x2a0>
    9e38:	ebfff879 	bl	8024 <PUT32>
    9e3c:	eb0019ce 	bl	1057c <dev_barrier>
    9e40:	e59f4278 	ldr	r4, [pc, #632]	; a0c0 <unicam_rx_init+0x2a4>
    9e44:	e3a01002 	mov	r1, #2, 0
    9e48:	e1a00004 	mov	r0, r4
    9e4c:	ebfff874 	bl	8024 <PUT32>
    9e50:	eb0019c9 	bl	1057c <dev_barrier>
    9e54:	e59f5268 	ldr	r5, [pc, #616]	; a0c4 <unicam_rx_init+0x2a8>
    9e58:	e59f1268 	ldr	r1, [pc, #616]	; a0c8 <unicam_rx_init+0x2ac>
    9e5c:	e1a00005 	mov	r0, r5
    9e60:	ebfff86f 	bl	8024 <PUT32>
    9e64:	e3a00001 	mov	r0, #1, 0
    9e68:	eb0019ee 	bl	10628 <delay_ms>
    9e6c:	e3a01e77 	mov	r1, #1904	; 0x770
    9e70:	e1a00005 	mov	r0, r5
    9e74:	ebfff86a 	bl	8024 <PUT32>
    9e78:	eb0019bf 	bl	1057c <dev_barrier>
    9e7c:	e1a00004 	mov	r0, r4
    9e80:	ebfff869 	bl	802c <GET32>
    9e84:	e3801004 	orr	r1, r0, #4, 0
    9e88:	e1a00004 	mov	r0, r4
    9e8c:	ebfff864 	bl	8024 <PUT32>
    9e90:	eb0019b9 	bl	1057c <dev_barrier>
    9e94:	e1a00004 	mov	r0, r4
    9e98:	ebfff863 	bl	802c <GET32>
    9e9c:	e3c01004 	bic	r1, r0, #4, 0
    9ea0:	e1a00004 	mov	r0, r4
    9ea4:	ebfff85e 	bl	8024 <PUT32>
    9ea8:	eb0019b3 	bl	1057c <dev_barrier>
    9eac:	e59f1218 	ldr	r1, [pc, #536]	; a0cc <unicam_rx_init+0x2b0>
    9eb0:	e1a00004 	mov	r0, r4
    9eb4:	ebfff85a 	bl	8024 <PUT32>
    9eb8:	eb0019af 	bl	1057c <dev_barrier>
    9ebc:	e3a01000 	mov	r1, #0, 0
    9ec0:	e59f0208 	ldr	r0, [pc, #520]	; a0d0 <unicam_rx_init+0x2b4>
    9ec4:	ebfff856 	bl	8024 <PUT32>
    9ec8:	e3a01000 	mov	r1, #0, 0
    9ecc:	e59f0200 	ldr	r0, [pc, #512]	; a0d4 <unicam_rx_init+0x2b8>
    9ed0:	ebfff853 	bl	8024 <PUT32>
    9ed4:	e59f11fc 	ldr	r1, [pc, #508]	; a0d8 <unicam_rx_init+0x2bc>
    9ed8:	e59f01fc 	ldr	r0, [pc, #508]	; a0dc <unicam_rx_init+0x2c0>
    9edc:	ebfff850 	bl	8024 <PUT32>
    9ee0:	e1a00005 	mov	r0, r5
    9ee4:	ebfff850 	bl	802c <GET32>
    9ee8:	e3c01008 	bic	r1, r0, #8, 0
    9eec:	e1a00005 	mov	r0, r5
    9ef0:	ebfff84b 	bl	8024 <PUT32>
    9ef4:	eb0019a0 	bl	1057c <dev_barrier>
    9ef8:	e28550f8 	add	r5, r5, #248, 0	; 0xf8
    9efc:	e59f11dc 	ldr	r1, [pc, #476]	; a0e0 <unicam_rx_init+0x2c4>
    9f00:	e1a00005 	mov	r0, r5
    9f04:	ebfff846 	bl	8024 <PUT32>
    9f08:	e3e01000 	mvn	r1, #0, 0
    9f0c:	e59f01d0 	ldr	r0, [pc, #464]	; a0e4 <unicam_rx_init+0x2c8>
    9f10:	ebfff843 	bl	8024 <PUT32>
    9f14:	e3e01000 	mvn	r1, #0, 0
    9f18:	e59f01c8 	ldr	r0, [pc, #456]	; a0e8 <unicam_rx_init+0x2cc>
    9f1c:	ebfff840 	bl	8024 <PUT32>
    9f20:	e59f71c4 	ldr	r7, [pc, #452]	; a0ec <unicam_rx_init+0x2d0>
    9f24:	e1a01007 	mov	r1, r7
    9f28:	e59f01c0 	ldr	r0, [pc, #448]	; a0f0 <unicam_rx_init+0x2d4>
    9f2c:	ebfff83c 	bl	8024 <PUT32>
    9f30:	e1a01007 	mov	r1, r7
    9f34:	e59f01b8 	ldr	r0, [pc, #440]	; a0f4 <unicam_rx_init+0x2d8>
    9f38:	ebfff839 	bl	8024 <PUT32>
    9f3c:	e1a00004 	mov	r0, r4
    9f40:	ebfff839 	bl	802c <GET32>
    9f44:	e3c01010 	bic	r1, r0, #16, 0
    9f48:	e1a00004 	mov	r0, r4
    9f4c:	ebfff834 	bl	8024 <PUT32>
    9f50:	eb001989 	bl	1057c <dev_barrier>
    9f54:	e59f119c 	ldr	r1, [pc, #412]	; a0f8 <unicam_rx_init+0x2dc>
    9f58:	e59f019c 	ldr	r0, [pc, #412]	; a0fc <unicam_rx_init+0x2e0>
    9f5c:	ebfff830 	bl	8024 <PUT32>
    9f60:	e59fb198 	ldr	fp, [pc, #408]	; a100 <unicam_rx_init+0x2e4>
    9f64:	e3a0101d 	mov	r1, #29, 0
    9f68:	e1a0000b 	mov	r0, fp
    9f6c:	ebfff82c 	bl	8024 <PUT32>
    9f70:	e59fa18c 	ldr	sl, [pc, #396]	; a104 <unicam_rx_init+0x2e8>
    9f74:	e3a0101d 	mov	r1, #29, 0
    9f78:	e1a0000a 	mov	r0, sl
    9f7c:	ebfff828 	bl	8024 <PUT32>
    9f80:	e3a0101d 	mov	r1, #29, 0
    9f84:	e59f017c 	ldr	r0, [pc, #380]	; a108 <unicam_rx_init+0x2ec>
    9f88:	ebfff825 	bl	8024 <PUT32>
    9f8c:	e59f7178 	ldr	r7, [pc, #376]	; a10c <unicam_rx_init+0x2f0>
    9f90:	e1a01008 	mov	r1, r8
    9f94:	e1a00007 	mov	r0, r7
    9f98:	ebfff821 	bl	8024 <PUT32>
    9f9c:	e59f916c 	ldr	r9, [pc, #364]	; a110 <unicam_rx_init+0x2f4>
    9fa0:	e1a01006 	mov	r1, r6
    9fa4:	e1a00009 	mov	r0, r9
    9fa8:	ebfff81d 	bl	8024 <PUT32>
    9fac:	e59f8160 	ldr	r8, [pc, #352]	; a114 <unicam_rx_init+0x2f8>
    9fb0:	e59d300c 	ldr	r3, [sp, #12]
    9fb4:	e0861003 	add	r1, r6, r3
    9fb8:	e1a00008 	mov	r0, r8
    9fbc:	ebfff818 	bl	8024 <PUT32>
    9fc0:	e3a01000 	mov	r1, #0, 0
    9fc4:	e59f014c 	ldr	r0, [pc, #332]	; a118 <unicam_rx_init+0x2fc>
    9fc8:	ebfff815 	bl	8024 <PUT32>
    9fcc:	e3a0102c 	mov	r1, #44, 0	; 0x2c
    9fd0:	e59f0144 	ldr	r0, [pc, #324]	; a11c <unicam_rx_init+0x300>
    9fd4:	ebfff812 	bl	8024 <PUT32>
    9fd8:	e3a01000 	mov	r1, #0, 0
    9fdc:	e59f013c 	ldr	r0, [pc, #316]	; a120 <unicam_rx_init+0x304>
    9fe0:	ebfff80f 	bl	8024 <PUT32>
    9fe4:	e59f6138 	ldr	r6, [pc, #312]	; a124 <unicam_rx_init+0x308>
    9fe8:	e1a00006 	mov	r0, r6
    9fec:	ebfff80e 	bl	802c <GET32>
    9ff0:	e3801d09 	orr	r1, r0, #576	; 0x240
    9ff4:	e1a00006 	mov	r0, r6
    9ff8:	ebfff809 	bl	8024 <PUT32>
    9ffc:	eb00195e 	bl	1057c <dev_barrier>
    a000:	e1a00004 	mov	r0, r4
    a004:	ebfff808 	bl	802c <GET32>
    a008:	e3801001 	orr	r1, r0, #1, 0
    a00c:	e1a00004 	mov	r0, r4
    a010:	ebfff803 	bl	8024 <PUT32>
    a014:	eb001958 	bl	1057c <dev_barrier>
    a018:	e1a00005 	mov	r0, r5
    a01c:	ebfff802 	bl	802c <GET32>
    a020:	e3801030 	orr	r1, r0, #48, 0	; 0x30
    a024:	e1a00005 	mov	r0, r5
    a028:	ebfff7fd 	bl	8024 <PUT32>
    a02c:	eb001952 	bl	1057c <dev_barrier>
    a030:	e59f00f0 	ldr	r0, [pc, #240]	; a128 <unicam_rx_init+0x30c>
    a034:	eb0017f2 	bl	10004 <printk>
    a038:	e1a00004 	mov	r0, r4
    a03c:	ebfff7fa 	bl	802c <GET32>
    a040:	e1a04000 	mov	r4, r0
    a044:	e1a00005 	mov	r0, r5
    a048:	ebfff7f7 	bl	802c <GET32>
    a04c:	e1a05000 	mov	r5, r0
    a050:	e1a0000b 	mov	r0, fp
    a054:	ebfff7f4 	bl	802c <GET32>
    a058:	e1a06000 	mov	r6, r0
    a05c:	e1a0000a 	mov	r0, sl
    a060:	ebfff7f1 	bl	802c <GET32>
    a064:	e58d0000 	str	r0, [sp]
    a068:	e1a03006 	mov	r3, r6
    a06c:	e1a02005 	mov	r2, r5
    a070:	e1a01004 	mov	r1, r4
    a074:	e59f00b0 	ldr	r0, [pc, #176]	; a12c <unicam_rx_init+0x310>
    a078:	eb0017e1 	bl	10004 <printk>
    a07c:	e1a00009 	mov	r0, r9
    a080:	ebfff7e9 	bl	802c <GET32>
    a084:	e1a04000 	mov	r4, r0
    a088:	e1a00008 	mov	r0, r8
    a08c:	ebfff7e6 	bl	802c <GET32>
    a090:	e1a05000 	mov	r5, r0
    a094:	e1a00007 	mov	r0, r7
    a098:	ebfff7e3 	bl	802c <GET32>
    a09c:	e1a03000 	mov	r3, r0
    a0a0:	e1a02005 	mov	r2, r5
    a0a4:	e1a01004 	mov	r1, r4
    a0a8:	e59f0080 	ldr	r0, [pc, #128]	; a130 <unicam_rx_init+0x314>
    a0ac:	eb0017d4 	bl	10004 <printk>
    a0b0:	e28dd014 	add	sp, sp, #20, 0
    a0b4:	e8bd8ff0 	pop	{r4, r5, r6, r7, r8, r9, sl, fp, pc}
    a0b8:	5a000015 	.word	0x5a000015
    a0bc:	20802004 	.word	0x20802004
    a0c0:	20801000 	.word	0x20801000
    a0c4:	20801008 	.word	0x20801008
    a0c8:	00000774 	.word	0x00000774
    a0cc:	00080002 	.word	0x00080002
    a0d0:	20801120 	.word	0x20801120
    a0d4:	20801128 	.word	0x20801128
    a0d8:	00000e85 	.word	0x00000e85
    a0dc:	2080100c 	.word	0x2080100c
    a0e0:	017c0003 	.word	0x017c0003
    a0e4:	20801004 	.word	0x20801004
    a0e8:	20801104 	.word	0x20801104
    a0ec:	00000602 	.word	0x00000602
    a0f0:	20801014 	.word	0x20801014
    a0f4:	20801028 	.word	0x20801028
    a0f8:	80000301 	.word	0x80000301
    a0fc:	2080102c 	.word	0x2080102c
    a100:	20801010 	.word	0x20801010
    a104:	20801018 	.word	0x20801018
    a108:	2080101c 	.word	0x2080101c
    a10c:	20801118 	.word	0x20801118
    a110:	20801110 	.word	0x20801110
    a114:	20801114 	.word	0x20801114
    a118:	2080110c 	.word	0x2080110c
    a11c:	20801108 	.word	0x20801108
    a120:	20801200 	.word	0x20801200
    a124:	20801400 	.word	0x20801400
    a128:	00011ee8 	.word	0x00011ee8
    a12c:	00011f14 	.word	0x00011f14
    a130:	00011f38 	.word	0x00011f38

0000a134 <unicam_wait_frame>:
    a134:	e92d4070 	push	{r4, r5, r6, lr}
    a138:	e1a06000 	mov	r6, r0
    a13c:	eb001929 	bl	105e8 <timer_get_usec>
    a140:	e1a05000 	mov	r5, r0
    a144:	e3e01000 	mvn	r1, #0, 0
    a148:	e59f0168 	ldr	r0, [pc, #360]	; a2b8 <unicam_wait_frame+0x184>
    a14c:	ebfff7b4 	bl	8024 <PUT32>
    a150:	e3e01000 	mvn	r1, #0, 0
    a154:	e59f0160 	ldr	r0, [pc, #352]	; a2bc <unicam_wait_frame+0x188>
    a158:	ebfff7b1 	bl	8024 <PUT32>
    a15c:	eb001906 	bl	1057c <dev_barrier>
    a160:	e59f0154 	ldr	r0, [pc, #340]	; a2bc <unicam_wait_frame+0x188>
    a164:	ebfff7b0 	bl	802c <GET32>
    a168:	e3100001 	tst	r0, #1, 0
    a16c:	1a00000e 	bne	a1ac <unicam_wait_frame+0x78>
    a170:	eb00191c 	bl	105e8 <timer_get_usec>
    a174:	e0400005 	sub	r0, r0, r5
    a178:	e1500006 	cmp	r0, r6
    a17c:	9afffff7 	bls	a160 <unicam_wait_frame+0x2c>
    a180:	e59f0130 	ldr	r0, [pc, #304]	; a2b8 <unicam_wait_frame+0x184>
    a184:	ebfff7a8 	bl	802c <GET32>
    a188:	e1a04000 	mov	r4, r0
    a18c:	e59f0128 	ldr	r0, [pc, #296]	; a2bc <unicam_wait_frame+0x188>
    a190:	ebfff7a5 	bl	802c <GET32>
    a194:	e1a02000 	mov	r2, r0
    a198:	e1a01004 	mov	r1, r4
    a19c:	e59f011c 	ldr	r0, [pc, #284]	; a2c0 <unicam_wait_frame+0x18c>
    a1a0:	eb001797 	bl	10004 <printk>
    a1a4:	e3e00000 	mvn	r0, #0, 0
    a1a8:	e8bd8070 	pop	{r4, r5, r6, pc}
    a1ac:	eb00190d 	bl	105e8 <timer_get_usec>
    a1b0:	e0401005 	sub	r1, r0, r5
    a1b4:	e59f0108 	ldr	r0, [pc, #264]	; a2c4 <unicam_wait_frame+0x190>
    a1b8:	eb001791 	bl	10004 <printk>
    a1bc:	e3e01000 	mvn	r1, #0, 0
    a1c0:	e59f00f4 	ldr	r0, [pc, #244]	; a2bc <unicam_wait_frame+0x188>
    a1c4:	ebfff796 	bl	8024 <PUT32>
    a1c8:	eb0018eb 	bl	1057c <dev_barrier>
    a1cc:	e59f00e8 	ldr	r0, [pc, #232]	; a2bc <unicam_wait_frame+0x188>
    a1d0:	ebfff795 	bl	802c <GET32>
    a1d4:	e3100001 	tst	r0, #1, 0
    a1d8:	1a00001f 	bne	a25c <unicam_wait_frame+0x128>
    a1dc:	e59f00d4 	ldr	r0, [pc, #212]	; a2b8 <unicam_wait_frame+0x184>
    a1e0:	ebfff791 	bl	802c <GET32>
    a1e4:	e1a04000 	mov	r4, r0
    a1e8:	e3100c0e 	tst	r0, #3584	; 0xe00
    a1ec:	1a000012 	bne	a23c <unicam_wait_frame+0x108>
    a1f0:	eb0018fc 	bl	105e8 <timer_get_usec>
    a1f4:	e0403005 	sub	r3, r0, r5
    a1f8:	e1530006 	cmp	r3, r6
    a1fc:	9afffff2 	bls	a1cc <unicam_wait_frame+0x98>
    a200:	e59f00b0 	ldr	r0, [pc, #176]	; a2b8 <unicam_wait_frame+0x184>
    a204:	ebfff788 	bl	802c <GET32>
    a208:	e1a04000 	mov	r4, r0
    a20c:	e59f00a8 	ldr	r0, [pc, #168]	; a2bc <unicam_wait_frame+0x188>
    a210:	ebfff785 	bl	802c <GET32>
    a214:	e1a05000 	mov	r5, r0
    a218:	e59f00a8 	ldr	r0, [pc, #168]	; a2c8 <unicam_wait_frame+0x194>
    a21c:	ebfff782 	bl	802c <GET32>
    a220:	e1a03000 	mov	r3, r0
    a224:	e1a02005 	mov	r2, r5
    a228:	e1a01004 	mov	r1, r4
    a22c:	e59f0098 	ldr	r0, [pc, #152]	; a2cc <unicam_wait_frame+0x198>
    a230:	eb001773 	bl	10004 <printk>
    a234:	e3e00000 	mvn	r0, #0, 0
    a238:	e8bd8070 	pop	{r4, r5, r6, pc}
    a23c:	e59f0078 	ldr	r0, [pc, #120]	; a2bc <unicam_wait_frame+0x188>
    a240:	ebfff779 	bl	802c <GET32>
    a244:	e1a02000 	mov	r2, r0
    a248:	e1a01004 	mov	r1, r4
    a24c:	e59f007c 	ldr	r0, [pc, #124]	; a2d0 <unicam_wait_frame+0x19c>
    a250:	eb00176b 	bl	10004 <printk>
    a254:	e3e00001 	mvn	r0, #1, 0
    a258:	e8bd8070 	pop	{r4, r5, r6, pc}
    a25c:	e59f0054 	ldr	r0, [pc, #84]	; a2b8 <unicam_wait_frame+0x184>
    a260:	ebfff771 	bl	802c <GET32>
    a264:	e1a04000 	mov	r4, r0
    a268:	e59f004c 	ldr	r0, [pc, #76]	; a2bc <unicam_wait_frame+0x188>
    a26c:	ebfff76e 	bl	802c <GET32>
    a270:	e1a06000 	mov	r6, r0
    a274:	eb0018db 	bl	105e8 <timer_get_usec>
    a278:	e1a03006 	mov	r3, r6
    a27c:	e1a02004 	mov	r2, r4
    a280:	e0401005 	sub	r1, r0, r5
    a284:	e59f0048 	ldr	r0, [pc, #72]	; a2d4 <unicam_wait_frame+0x1a0>
    a288:	eb00175d 	bl	10004 <printk>
    a28c:	e3140a01 	tst	r4, #4096	; 0x1000
    a290:	1a000004 	bne	a2a8 <unicam_wait_frame+0x174>
    a294:	e1a01006 	mov	r1, r6
    a298:	e59f001c 	ldr	r0, [pc, #28]	; a2bc <unicam_wait_frame+0x188>
    a29c:	ebfff760 	bl	8024 <PUT32>
    a2a0:	e3a00000 	mov	r0, #0, 0
    a2a4:	e8bd8070 	pop	{r4, r5, r6, pc}
    a2a8:	e59f0028 	ldr	r0, [pc, #40]	; a2d8 <unicam_wait_frame+0x1a4>
    a2ac:	eb001754 	bl	10004 <printk>
    a2b0:	e3e00002 	mvn	r0, #2, 0
    a2b4:	e8bd8070 	pop	{r4, r5, r6, pc}
    a2b8:	20801004 	.word	0x20801004
    a2bc:	20801104 	.word	0x20801104
    a2c0:	00011f58 	.word	0x00011f58
    a2c4:	00011f84 	.word	0x00011f84
    a2c8:	2080111c 	.word	0x2080111c
    a2cc:	00011fb8 	.word	0x00011fb8
    a2d0:	00011f94 	.word	0x00011f94
    a2d4:	00011ff0 	.word	0x00011ff0
    a2d8:	0001201c 	.word	0x0001201c

0000a2dc <unicam_stop>:
    a2dc:	e92d4010 	push	{r4, lr}
    a2e0:	e59f4028 	ldr	r4, [pc, #40]	; a310 <unicam_stop+0x34>
    a2e4:	e1a00004 	mov	r0, r4
    a2e8:	ebfff74f 	bl	802c <GET32>
    a2ec:	e3c01001 	bic	r1, r0, #1, 0
    a2f0:	e1a00004 	mov	r0, r4
    a2f4:	ebfff74a 	bl	8024 <PUT32>
    a2f8:	eb00189f 	bl	1057c <dev_barrier>
    a2fc:	e3a0145a 	mov	r1, #1509949440	; 0x5a000000
    a300:	e59f000c 	ldr	r0, [pc, #12]	; a314 <unicam_stop+0x38>
    a304:	ebfff746 	bl	8024 <PUT32>
    a308:	eb00189b 	bl	1057c <dev_barrier>
    a30c:	e8bd8010 	pop	{r4, pc}
    a310:	20801000 	.word	0x20801000
    a314:	20802004 	.word	0x20802004

0000a318 <frame_init>:
    a318:	e92d4070 	push	{r4, r5, r6, lr}
    a31c:	e24dd038 	sub	sp, sp, #56, 0	; 0x38
    a320:	e1a05000 	mov	r5, r0
    a324:	e59f125c 	ldr	r1, [pc, #604]	; a588 <frame_init+0x270>
    a328:	e3a00004 	mov	r0, #4, 0
    a32c:	ebfffb4d 	bl	9068 <rpi_clock_hz_set>
    a330:	e3a00004 	mov	r0, #4, 0
    a334:	ebfffa10 	bl	8b7c <rpi_clock_curhz_get>
    a338:	e1a01000 	mov	r1, r0
    a33c:	e59f0248 	ldr	r0, [pc, #584]	; a58c <frame_init+0x274>
    a340:	eb00172f 	bl	10004 <printk>
    a344:	ebfffcb4 	bl	961c <cam_power_on>
    a348:	e59f0240 	ldr	r0, [pc, #576]	; a590 <frame_init+0x278>
    a34c:	eb00172c 	bl	10004 <printk>
    a350:	e3a0201d 	mov	r2, #29, 0
    a354:	e3a0101c 	mov	r1, #28, 0
    a358:	e59f0234 	ldr	r0, [pc, #564]	; a594 <frame_init+0x27c>
    a35c:	ebfffcbe 	bl	965c <i2c_init_ex>
    a360:	e3a03c16 	mov	r3, #5632	; 0x1600
    a364:	e1cd33b4 	strh	r3, [sp, #52]	; 0x34
    a368:	e3a03000 	mov	r3, #0, 0
    a36c:	e1cd33b0 	strh	r3, [sp, #48]	; 0x30
    a370:	e3a02002 	mov	r2, #2, 0
    a374:	e28d1034 	add	r1, sp, #52, 0	; 0x34
    a378:	e3a0001a 	mov	r0, #26, 0
    a37c:	ebfffce0 	bl	9704 <i2c_write>
    a380:	e3500000 	cmp	r0, #0, 0
    a384:	1a000051 	bne	a4d0 <frame_init+0x1b8>
    a388:	e28d4017 	add	r4, sp, #23, 0
    a38c:	e3c4400f 	bic	r4, r4, #15, 0
    a390:	e3a02002 	mov	r2, #2, 0
    a394:	e28d1030 	add	r1, sp, #48, 0	; 0x30
    a398:	e3a0001a 	mov	r0, #26, 0
    a39c:	ebfffd46 	bl	98bc <i2c_read>
    a3a0:	e3500000 	cmp	r0, #0, 0
    a3a4:	1a000050 	bne	a4ec <frame_init+0x1d4>
    a3a8:	e5dd3030 	ldrb	r3, [sp, #48]	; 0x30
    a3ac:	e5dd6031 	ldrb	r6, [sp, #49]	; 0x31
    a3b0:	e1866403 	orr	r6, r6, r3, lsl #8
    a3b4:	e1a01006 	mov	r1, r6
    a3b8:	e59f01d8 	ldr	r0, [pc, #472]	; a598 <frame_init+0x280>
    a3bc:	eb001710 	bl	10004 <printk>
    a3c0:	e59f31d4 	ldr	r3, [pc, #468]	; a59c <frame_init+0x284>
    a3c4:	e1560003 	cmp	r6, r3
    a3c8:	1a00004e 	bne	a508 <frame_init+0x1f0>
    a3cc:	ebfffe80 	bl	9dd4 <unicam_power_init>
    a3d0:	e3a03020 	mov	r3, #32, 0
    a3d4:	e5843000 	str	r3, [r4]
    a3d8:	e3a03000 	mov	r3, #0, 0
    a3dc:	e5843004 	str	r3, [r4, #4]
    a3e0:	e59f21b8 	ldr	r2, [pc, #440]	; a5a0 <frame_init+0x288>
    a3e4:	e5842008 	str	r2, [r4, #8]
    a3e8:	e3a02008 	mov	r2, #8, 0
    a3ec:	e584200c 	str	r2, [r4, #12]
    a3f0:	e5843010 	str	r3, [r4, #16]
    a3f4:	e3a0200d 	mov	r2, #13, 0
    a3f8:	e5842014 	str	r2, [r4, #20]
    a3fc:	e3a02001 	mov	r2, #1, 0
    a400:	e5842018 	str	r2, [r4, #24]
    a404:	e584301c 	str	r3, [r4, #28]
    a408:	eb00185b 	bl	1057c <dev_barrier>
    a40c:	e59f0190 	ldr	r0, [pc, #400]	; a5a4 <frame_init+0x28c>
    a410:	ebfff705 	bl	802c <GET32>
    a414:	e3500000 	cmp	r0, #0, 0
    a418:	bafffffb 	blt	a40c <frame_init+0xf4>
    a41c:	e3841121 	orr	r1, r4, #1073741832	; 0x40000008
    a420:	e59f0180 	ldr	r0, [pc, #384]	; a5a8 <frame_init+0x290>
    a424:	ebfff6fe 	bl	8024 <PUT32>
    a428:	eb001853 	bl	1057c <dev_barrier>
    a42c:	eb001852 	bl	1057c <dev_barrier>
    a430:	e59f016c 	ldr	r0, [pc, #364]	; a5a4 <frame_init+0x28c>
    a434:	ebfff6fc 	bl	802c <GET32>
    a438:	e3100101 	tst	r0, #1073741824	; 0x40000000
    a43c:	1afffffb 	bne	a430 <frame_init+0x118>
    a440:	e59f0164 	ldr	r0, [pc, #356]	; a5ac <frame_init+0x294>
    a444:	ebfff6f8 	bl	802c <GET32>
    a448:	e200000f 	and	r0, r0, #15, 0
    a44c:	e3500008 	cmp	r0, #8, 0
    a450:	1a000032 	bne	a520 <frame_init+0x208>
    a454:	e5943004 	ldr	r3, [r4, #4]
    a458:	e3530102 	cmp	r3, #-2147483648	; 0x80000000
    a45c:	1a000035 	bne	a538 <frame_init+0x220>
    a460:	ebfffdd6 	bl	9bc0 <imx477_init>
    a464:	e3a00000 	mov	r0, #0, 0
    a468:	ebfffdf7 	bl	9c4c <imx477_set_test_pattern>
    a46c:	e59f013c 	ldr	r0, [pc, #316]	; a5b0 <frame_init+0x298>
    a470:	eb0016e3 	bl	10004 <printk>
    a474:	e3a02014 	mov	r2, #20, 0
    a478:	e3a01a01 	mov	r1, #4096	; 0x1000
    a47c:	e3a00605 	mov	r0, #5242880	; 0x500000
    a480:	ebfffb64 	bl	9218 <gpu_mem_alloc>
    a484:	e5850000 	str	r0, [r5]
    a488:	e3500000 	cmp	r0, #0, 0
    a48c:	0a000031 	beq	a558 <frame_init+0x240>
    a490:	ebfffba1 	bl	931c <gpu_mem_lock>
    a494:	e1a02000 	mov	r2, r0
    a498:	e5850004 	str	r0, [r5, #4]
    a49c:	e3500000 	cmp	r0, #0, 0
    a4a0:	0a000032 	beq	a570 <frame_init+0x258>
    a4a4:	e3c03103 	bic	r3, r0, #-1073741824	; 0xc0000000
    a4a8:	e5853008 	str	r3, [r5, #8]
    a4ac:	e3a03000 	mov	r3, #0, 0
    a4b0:	e585300c 	str	r3, [r5, #12]
    a4b4:	e5853010 	str	r3, [r5, #16]
    a4b8:	e3a03605 	mov	r3, #5242880	; 0x500000
    a4bc:	e5951000 	ldr	r1, [r5]
    a4c0:	e59f00ec 	ldr	r0, [pc, #236]	; a5b4 <frame_init+0x29c>
    a4c4:	eb0016ce 	bl	10004 <printk>
    a4c8:	e28dd038 	add	sp, sp, #56, 0	; 0x38
    a4cc:	e8bd8070 	pop	{r4, r5, r6, pc}
    a4d0:	e58d0000 	str	r0, [sp]
    a4d4:	e3a03028 	mov	r3, #40, 0	; 0x28
    a4d8:	e59f20d8 	ldr	r2, [pc, #216]	; a5b8 <frame_init+0x2a0>
    a4dc:	e59f10d8 	ldr	r1, [pc, #216]	; a5bc <frame_init+0x2a4>
    a4e0:	e59f00d8 	ldr	r0, [pc, #216]	; a5c0 <frame_init+0x2a8>
    a4e4:	eb0016c6 	bl	10004 <printk>
    a4e8:	eb0017ff 	bl	104ec <clean_reboot>
    a4ec:	e58d0000 	str	r0, [sp]
    a4f0:	e3a0302a 	mov	r3, #42, 0	; 0x2a
    a4f4:	e59f20bc 	ldr	r2, [pc, #188]	; a5b8 <frame_init+0x2a0>
    a4f8:	e59f10bc 	ldr	r1, [pc, #188]	; a5bc <frame_init+0x2a4>
    a4fc:	e59f00c0 	ldr	r0, [pc, #192]	; a5c4 <frame_init+0x2ac>
    a500:	eb0016bf 	bl	10004 <printk>
    a504:	eb0017f8 	bl	104ec <clean_reboot>
    a508:	e3a0302e 	mov	r3, #46, 0	; 0x2e
    a50c:	e59f20a4 	ldr	r2, [pc, #164]	; a5b8 <frame_init+0x2a0>
    a510:	e59f10a4 	ldr	r1, [pc, #164]	; a5bc <frame_init+0x2a4>
    a514:	e59f00ac 	ldr	r0, [pc, #172]	; a5c8 <frame_init+0x2b0>
    a518:	eb0016b9 	bl	10004 <printk>
    a51c:	eb0017f2 	bl	104ec <clean_reboot>
    a520:	e3a03056 	mov	r3, #86, 0	; 0x56
    a524:	e59f20a0 	ldr	r2, [pc, #160]	; a5cc <frame_init+0x2b4>
    a528:	e59f10a0 	ldr	r1, [pc, #160]	; a5d0 <frame_init+0x2b8>
    a52c:	e59f00a0 	ldr	r0, [pc, #160]	; a5d4 <frame_init+0x2bc>
    a530:	eb0016b3 	bl	10004 <printk>
    a534:	eb0017ec 	bl	104ec <clean_reboot>
    a538:	e5943004 	ldr	r3, [r4, #4]
    a53c:	e58d3000 	str	r3, [sp]
    a540:	e3a03067 	mov	r3, #103, 0	; 0x67
    a544:	e59f208c 	ldr	r2, [pc, #140]	; a5d8 <frame_init+0x2c0>
    a548:	e59f1080 	ldr	r1, [pc, #128]	; a5d0 <frame_init+0x2b8>
    a54c:	e59f0088 	ldr	r0, [pc, #136]	; a5dc <frame_init+0x2c4>
    a550:	eb0016ab 	bl	10004 <printk>
    a554:	eb0017e4 	bl	104ec <clean_reboot>
    a558:	e3a03044 	mov	r3, #68, 0	; 0x44
    a55c:	e59f2054 	ldr	r2, [pc, #84]	; a5b8 <frame_init+0x2a0>
    a560:	e59f1054 	ldr	r1, [pc, #84]	; a5bc <frame_init+0x2a4>
    a564:	e59f0074 	ldr	r0, [pc, #116]	; a5e0 <frame_init+0x2c8>
    a568:	eb0016a5 	bl	10004 <printk>
    a56c:	eb0017de 	bl	104ec <clean_reboot>
    a570:	e3a03047 	mov	r3, #71, 0	; 0x47
    a574:	e59f203c 	ldr	r2, [pc, #60]	; a5b8 <frame_init+0x2a0>
    a578:	e59f103c 	ldr	r1, [pc, #60]	; a5bc <frame_init+0x2a4>
    a57c:	e59f0060 	ldr	r0, [pc, #96]	; a5e4 <frame_init+0x2cc>
    a580:	eb00169f 	bl	10004 <printk>
    a584:	eb0017d8 	bl	104ec <clean_reboot>
    a588:	17d78400 	.word	0x17d78400
    a58c:	00012054 	.word	0x00012054
    a590:	00012068 	.word	0x00012068
    a594:	20205000 	.word	0x20205000
    a598:	000120d4 	.word	0x000120d4
    a59c:	00000477 	.word	0x00000477
    a5a0:	00038030 	.word	0x00038030
    a5a4:	2000b898 	.word	0x2000b898
    a5a8:	2000b8a0 	.word	0x2000b8a0
    a5ac:	2000b880 	.word	0x2000b880
    a5b0:	0001210c 	.word	0x0001210c
    a5b4:	00012174 	.word	0x00012174
    a5b8:	0001220c 	.word	0x0001220c
    a5bc:	0001207c 	.word	0x0001207c
    a5c0:	00012084 	.word	0x00012084
    a5c4:	000120ac 	.word	0x000120ac
    a5c8:	000120ec 	.word	0x000120ec
    a5cc:	00012218 	.word	0x00012218
    a5d0:	0001158c 	.word	0x0001158c
    a5d4:	00011594 	.word	0x00011594
    a5d8:	00012224 	.word	0x00012224
    a5dc:	000115dc 	.word	0x000115dc
    a5e0:	00012124 	.word	0x00012124
    a5e4:	0001214c 	.word	0x0001214c

0000a5e8 <frame_capture>:
    a5e8:	e92d4010 	push	{r4, lr}
    a5ec:	e1a04000 	mov	r4, r0
    a5f0:	e3a02ebf 	mov	r2, #3056	; 0xbf0
    a5f4:	e3a01605 	mov	r1, #5242880	; 0x500000
    a5f8:	e5900004 	ldr	r0, [r0, #4]
    a5fc:	ebfffe06 	bl	9e1c <unicam_rx_init>
    a600:	ebfffd87 	bl	9c24 <imx477_start_streaming>
    a604:	e59f0024 	ldr	r0, [pc, #36]	; a630 <frame_capture+0x48>
    a608:	ebfffec9 	bl	a134 <unicam_wait_frame>
    a60c:	e584000c 	str	r0, [r4, #12]
    a610:	eb0017d9 	bl	1057c <dev_barrier>
    a614:	e59f0018 	ldr	r0, [pc, #24]	; a634 <frame_capture+0x4c>
    a618:	ebfff683 	bl	802c <GET32>
    a61c:	e5840010 	str	r0, [r4, #16]
    a620:	ebfffd84 	bl	9c38 <imx477_stop_streaming>
    a624:	ebffff2c 	bl	a2dc <unicam_stop>
    a628:	e594000c 	ldr	r0, [r4, #12]
    a62c:	e8bd8010 	pop	{r4, pc}
    a630:	000f4240 	.word	0x000f4240
    a634:	2080111c 	.word	0x2080111c

0000a638 <frame_sd_init>:
    a638:	e92d4010 	push	{r4, lr}
    a63c:	e24dd060 	sub	sp, sp, #96, 0	; 0x60
    a640:	e3a01301 	mov	r1, #67108864	; 0x4000000
    a644:	e3a00601 	mov	r0, #1048576	; 0x100000
    a648:	eb001481 	bl	f854 <kmalloc_init_set_start>
    a64c:	eb000063 	bl	a7e0 <pi_sd_init>
    a650:	eb00011f 	bl	aad4 <mbr_read>
    a654:	e3a02010 	mov	r2, #16, 0
    a658:	e2801f6f 	add	r1, r0, #444	; 0x1bc
    a65c:	e2811002 	add	r1, r1, #2, 0
    a660:	e28d0050 	add	r0, sp, #80, 0	; 0x50
    a664:	eb0015f4 	bl	fe3c <memcpy>
    a668:	e59f4064 	ldr	r4, [pc, #100]	; a6d4 <frame_sd_init+0x9c>
    a66c:	e28d1050 	add	r1, sp, #80, 0	; 0x50
    a670:	e28d0030 	add	r0, sp, #48, 0	; 0x30
    a674:	eb00050c 	bl	baac <fat32_mk>
    a678:	e1a0e004 	mov	lr, r4
    a67c:	e28dc030 	add	ip, sp, #48, 0	; 0x30
    a680:	e8bc000f 	ldm	ip!, {r0, r1, r2, r3}
    a684:	e8ae000f 	stmia	lr!, {r0, r1, r2, r3}
    a688:	e89c0007 	ldm	ip, {r0, r1, r2}
    a68c:	e88e0007 	stm	lr, {r0, r1, r2}
    a690:	e1a01004 	mov	r1, r4
    a694:	e1a0000d 	mov	r0, sp
    a698:	eb0005b8 	bl	bd80 <fat32_get_root>
    a69c:	e284e01c 	add	lr, r4, #28, 0
    a6a0:	e1a0c00d 	mov	ip, sp
    a6a4:	e8bc000f 	ldm	ip!, {r0, r1, r2, r3}
    a6a8:	e8ae000f 	stmia	lr!, {r0, r1, r2, r3}
    a6ac:	e8bc000f 	ldm	ip!, {r0, r1, r2, r3}
    a6b0:	e8ae000f 	stmia	lr!, {r0, r1, r2, r3}
    a6b4:	e89c0007 	ldm	ip, {r0, r1, r2}
    a6b8:	e88e0007 	stm	lr, {r0, r1, r2}
    a6bc:	e3a03001 	mov	r3, #1, 0
    a6c0:	e5843048 	str	r3, [r4, #72]	; 0x48
    a6c4:	e59f000c 	ldr	r0, [pc, #12]	; a6d8 <frame_sd_init+0xa0>
    a6c8:	eb00164d 	bl	10004 <printk>
    a6cc:	e28dd060 	add	sp, sp, #96, 0	; 0x60
    a6d0:	e8bd8010 	pop	{r4, pc}
    a6d4:	00014c50 	.word	0x00014c50
    a6d8:	000121a0 	.word	0x000121a0

0000a6dc <frame_save>:
    a6dc:	e92d40f0 	push	{r4, r5, r6, r7, lr}
    a6e0:	e24dd014 	sub	sp, sp, #20, 0
    a6e4:	e59f30a0 	ldr	r3, [pc, #160]	; a78c <frame_save+0xb0>
    a6e8:	e5933048 	ldr	r3, [r3, #72]	; 0x48
    a6ec:	e3530000 	cmp	r3, #0, 0
    a6f0:	0a00001a 	beq	a760 <frame_save+0x84>
    a6f4:	e1a06000 	mov	r6, r0
    a6f8:	e1a04001 	mov	r4, r1
    a6fc:	e59f5088 	ldr	r5, [pc, #136]	; a78c <frame_save+0xb0>
    a700:	e285701c 	add	r7, r5, #28, 0
    a704:	e1a02001 	mov	r2, r1
    a708:	e1a01007 	mov	r1, r7
    a70c:	e1a00005 	mov	r0, r5
    a710:	eb000763 	bl	c4a4 <fat32_delete>
    a714:	e3a03000 	mov	r3, #0, 0
    a718:	e1a02004 	mov	r2, r4
    a71c:	e1a01007 	mov	r1, r7
    a720:	e1a00005 	mov	r0, r5
    a724:	eb0006ee 	bl	c2e4 <fat32_create>
    a728:	e3500000 	cmp	r0, #0, 0
    a72c:	0a000011 	beq	a778 <frame_save+0x9c>
    a730:	e5963008 	ldr	r3, [r6, #8]
    a734:	e58d3004 	str	r3, [sp, #4]
    a738:	e59f3050 	ldr	r3, [pc, #80]	; a790 <frame_save+0xb4>
    a73c:	e58d3008 	str	r3, [sp, #8]
    a740:	e58d300c 	str	r3, [sp, #12]
    a744:	e59f0040 	ldr	r0, [pc, #64]	; a78c <frame_save+0xb0>
    a748:	e28d3004 	add	r3, sp, #4, 0
    a74c:	e1a02004 	mov	r2, r4
    a750:	e280101c 	add	r1, r0, #28, 0
    a754:	eb00080a 	bl	c784 <fat32_write>
    a758:	e28dd014 	add	sp, sp, #20, 0
    a75c:	e8bd80f0 	pop	{r4, r5, r6, r7, pc}
    a760:	e3a03074 	mov	r3, #116, 0	; 0x74
    a764:	e59f2028 	ldr	r2, [pc, #40]	; a794 <frame_save+0xb8>
    a768:	e59f1028 	ldr	r1, [pc, #40]	; a798 <frame_save+0xbc>
    a76c:	e59f0028 	ldr	r0, [pc, #40]	; a79c <frame_save+0xc0>
    a770:	eb001623 	bl	10004 <printk>
    a774:	eb00175c 	bl	104ec <clean_reboot>
    a778:	e1a01004 	mov	r1, r4
    a77c:	e59f001c 	ldr	r0, [pc, #28]	; a7a0 <frame_save+0xc4>
    a780:	eb00161f 	bl	10004 <printk>
    a784:	e3a00000 	mov	r0, #0, 0
    a788:	eafffff2 	b	a758 <frame_save+0x7c>
    a78c:	00014c50 	.word	0x00014c50
    a790:	0046e100 	.word	0x0046e100
    a794:	00012230 	.word	0x00012230
    a798:	0001207c 	.word	0x0001207c
    a79c:	000121b0 	.word	0x000121b0
    a7a0:	000121e8 	.word	0x000121e8

0000a7a4 <frame_cleanup>:
    a7a4:	e92d4010 	push	{r4, lr}
    a7a8:	e1a04000 	mov	r4, r0
    a7ac:	e5900000 	ldr	r0, [r0]
    a7b0:	ebfffb19 	bl	941c <gpu_mem_unlock>
    a7b4:	e5940000 	ldr	r0, [r4]
    a7b8:	ebfffb57 	bl	951c <gpu_mem_free>
    a7bc:	e3a03000 	mov	r3, #0, 0
    a7c0:	e5843000 	str	r3, [r4]
    a7c4:	e5843004 	str	r3, [r4, #4]
    a7c8:	e5843008 	str	r3, [r4, #8]
    a7cc:	e8bd8010 	pop	{r4, pc}

0000a7d0 <pi_sd_trace>:
    a7d0:	e59f3004 	ldr	r3, [pc, #4]	; a7dc <pi_sd_trace+0xc>
    a7d4:	e5830000 	str	r0, [r3]
    a7d8:	e12fff1e 	bx	lr
    a7dc:	00014c9c 	.word	0x00014c9c

0000a7e0 <pi_sd_init>:
    a7e0:	e92d4010 	push	{r4, lr}
    a7e4:	eb0012e8 	bl	f38c <emmc_init>
    a7e8:	e3500000 	cmp	r0, #0, 0
    a7ec:	0a000003 	beq	a800 <pi_sd_init+0x20>
    a7f0:	e3a00001 	mov	r0, #1, 0
    a7f4:	e59f301c 	ldr	r3, [pc, #28]	; a818 <pi_sd_init+0x38>
    a7f8:	e5830004 	str	r0, [r3, #4]
    a7fc:	e8bd8010 	pop	{r4, pc}
    a800:	e3a0301d 	mov	r3, #29, 0
    a804:	e59f2010 	ldr	r2, [pc, #16]	; a81c <pi_sd_init+0x3c>
    a808:	e59f1010 	ldr	r1, [pc, #16]	; a820 <pi_sd_init+0x40>
    a80c:	e59f0010 	ldr	r0, [pc, #16]	; a824 <pi_sd_init+0x44>
    a810:	eb0015fb 	bl	10004 <printk>
    a814:	eb001734 	bl	104ec <clean_reboot>
    a818:	00014c9c 	.word	0x00014c9c
    a81c:	000123b8 	.word	0x000123b8
    a820:	0001223c 	.word	0x0001223c
    a824:	00012250 	.word	0x00012250

0000a828 <pi_sd_read>:
    a828:	e92d4070 	push	{r4, r5, r6, lr}
    a82c:	e24dd008 	sub	sp, sp, #8, 0
    a830:	e59f3110 	ldr	r3, [pc, #272]	; a948 <pi_sd_read+0x120>
    a834:	e5933004 	ldr	r3, [r3, #4]
    a838:	e3530000 	cmp	r3, #0, 0
    a83c:	0a00000f 	beq	a880 <pi_sd_read+0x58>
    a840:	e1a06000 	mov	r6, r0
    a844:	e1a05001 	mov	r5, r1
    a848:	e1a04482 	lsl	r4, r2, #9
    a84c:	e1a02004 	mov	r2, r4
    a850:	e1a01000 	mov	r1, r0
    a854:	e1a00005 	mov	r0, r5
    a858:	eb001285 	bl	f274 <emmc_read>
    a85c:	e1500004 	cmp	r0, r4
    a860:	1a00000e 	bne	a8a0 <pi_sd_read+0x78>
    a864:	e59f30dc 	ldr	r3, [pc, #220]	; a948 <pi_sd_read+0x120>
    a868:	e5933000 	ldr	r3, [r3]
    a86c:	e3530000 	cmp	r3, #0, 0
    a870:	1a000011 	bne	a8bc <pi_sd_read+0x94>
    a874:	e3a00001 	mov	r0, #1, 0
    a878:	e28dd008 	add	sp, sp, #8, 0
    a87c:	e8bd8070 	pop	{r4, r5, r6, pc}
    a880:	e59f30c4 	ldr	r3, [pc, #196]	; a94c <pi_sd_read+0x124>
    a884:	e58d3000 	str	r3, [sp]
    a888:	e3a03023 	mov	r3, #35, 0	; 0x23
    a88c:	e59f20bc 	ldr	r2, [pc, #188]	; a950 <pi_sd_read+0x128>
    a890:	e59f10bc 	ldr	r1, [pc, #188]	; a954 <pi_sd_read+0x12c>
    a894:	e59f00bc 	ldr	r0, [pc, #188]	; a958 <pi_sd_read+0x130>
    a898:	eb0015d9 	bl	10004 <printk>
    a89c:	eb001712 	bl	104ec <clean_reboot>
    a8a0:	e58d0000 	str	r0, [sp]
    a8a4:	e3a03026 	mov	r3, #38, 0	; 0x26
    a8a8:	e59f20a0 	ldr	r2, [pc, #160]	; a950 <pi_sd_read+0x128>
    a8ac:	e59f10a0 	ldr	r1, [pc, #160]	; a954 <pi_sd_read+0x12c>
    a8b0:	e59f00a4 	ldr	r0, [pc, #164]	; a95c <pi_sd_read+0x134>
    a8b4:	eb0015d2 	bl	10004 <printk>
    a8b8:	eb00170b 	bl	104ec <clean_reboot>
    a8bc:	e16f3f16 	clz	r3, r6
    a8c0:	e1a032a3 	lsr	r3, r3, #5
    a8c4:	e3540000 	cmp	r4, #0, 0
    a8c8:	03a03001 	moveq	r3, #1, 0
    a8cc:	e3530000 	cmp	r3, #0, 0
    a8d0:	1a00001a 	bne	a940 <pi_sd_read+0x118>
    a8d4:	e1a03124 	lsr	r3, r4, #2
    a8d8:	e3530000 	cmp	r3, #0, 0
    a8dc:	0a00000c 	beq	a914 <pi_sd_read+0xec>
    a8e0:	e5d61001 	ldrb	r1, [r6, #1]
    a8e4:	e5d62000 	ldrb	r2, [r6]
    a8e8:	e1822401 	orr	r2, r2, r1, lsl #8
    a8ec:	e0822004 	add	r2, r2, r4
    a8f0:	e5d61003 	ldrb	r1, [r6, #3]
    a8f4:	e5d64002 	ldrb	r4, [r6, #2]
    a8f8:	e1844401 	orr	r4, r4, r1, lsl #8
    a8fc:	e0224584 	eor	r4, r2, r4, lsl #11
    a900:	e0244802 	eor	r4, r4, r2, lsl #16
    a904:	e2866004 	add	r6, r6, #4, 0
    a908:	e08445a4 	add	r4, r4, r4, lsr #11
    a90c:	e2433001 	sub	r3, r3, #1, 0
    a910:	eafffff0 	b	a8d8 <pi_sd_read+0xb0>
    a914:	e0243184 	eor	r3, r4, r4, lsl #3
    a918:	e08332a3 	add	r3, r3, r3, lsr #5
    a91c:	e0233203 	eor	r3, r3, r3, lsl #4
    a920:	e08338a3 	add	r3, r3, r3, lsr #17
    a924:	e0233c83 	eor	r3, r3, r3, lsl #25
    a928:	e0833323 	add	r3, r3, r3, lsr #6
    a92c:	e1a02005 	mov	r2, r5
    a930:	e59f1018 	ldr	r1, [pc, #24]	; a950 <pi_sd_read+0x128>
    a934:	e59f0024 	ldr	r0, [pc, #36]	; a960 <pi_sd_read+0x138>
    a938:	eb0015b1 	bl	10004 <printk>
    a93c:	eaffffcc 	b	a874 <pi_sd_read+0x4c>
    a940:	e3a03000 	mov	r3, #0, 0
    a944:	eafffff8 	b	a92c <pi_sd_read+0x104>
    a948:	00014c9c 	.word	0x00014c9c
    a94c:	000122b8 	.word	0x000122b8
    a950:	000123c4 	.word	0x000123c4
    a954:	0001223c 	.word	0x0001223c
    a958:	00012270 	.word	0x00012270
    a95c:	000122c0 	.word	0x000122c0
    a960:	000122fc 	.word	0x000122fc

0000a964 <pi_sec_read>:
    a964:	e92d4070 	push	{r4, r5, r6, lr}
    a968:	e24dd008 	sub	sp, sp, #8, 0
    a96c:	e59f3074 	ldr	r3, [pc, #116]	; a9e8 <pi_sec_read+0x84>
    a970:	e5933004 	ldr	r3, [r3, #4]
    a974:	e3530000 	cmp	r3, #0, 0
    a978:	0a00000c 	beq	a9b0 <pi_sec_read+0x4c>
    a97c:	e1a05000 	mov	r5, r0
    a980:	e1a04001 	mov	r4, r1
    a984:	e1a00481 	lsl	r0, r1, #9
    a988:	eb001436 	bl	fa68 <kmalloc>
    a98c:	e1a06000 	mov	r6, r0
    a990:	e1a02004 	mov	r2, r4
    a994:	e1a01005 	mov	r1, r5
    a998:	ebffffa2 	bl	a828 <pi_sd_read>
    a99c:	e3500000 	cmp	r0, #0, 0
    a9a0:	0a00000a 	beq	a9d0 <pi_sec_read+0x6c>
    a9a4:	e1a00006 	mov	r0, r6
    a9a8:	e28dd008 	add	sp, sp, #8, 0
    a9ac:	e8bd8070 	pop	{r4, r5, r6, pc}
    a9b0:	e59f3034 	ldr	r3, [pc, #52]	; a9ec <pi_sec_read+0x88>
    a9b4:	e58d3000 	str	r3, [sp]
    a9b8:	e3a03030 	mov	r3, #48, 0	; 0x30
    a9bc:	e59f202c 	ldr	r2, [pc, #44]	; a9f0 <pi_sec_read+0x8c>
    a9c0:	e59f102c 	ldr	r1, [pc, #44]	; a9f4 <pi_sec_read+0x90>
    a9c4:	e59f002c 	ldr	r0, [pc, #44]	; a9f8 <pi_sec_read+0x94>
    a9c8:	eb00158d 	bl	10004 <printk>
    a9cc:	eb0016c6 	bl	104ec <clean_reboot>
    a9d0:	e3a03034 	mov	r3, #52, 0	; 0x34
    a9d4:	e59f2014 	ldr	r2, [pc, #20]	; a9f0 <pi_sec_read+0x8c>
    a9d8:	e59f1014 	ldr	r1, [pc, #20]	; a9f4 <pi_sec_read+0x90>
    a9dc:	e59f0018 	ldr	r0, [pc, #24]	; a9fc <pi_sec_read+0x98>
    a9e0:	eb001587 	bl	10004 <printk>
    a9e4:	eb0016c0 	bl	104ec <clean_reboot>
    a9e8:	00014c9c 	.word	0x00014c9c
    a9ec:	000122b8 	.word	0x000122b8
    a9f0:	000123d0 	.word	0x000123d0
    a9f4:	0001223c 	.word	0x0001223c
    a9f8:	00012270 	.word	0x00012270
    a9fc:	00012324 	.word	0x00012324

0000aa00 <pi_sd_write>:
    aa00:	e92d4070 	push	{r4, r5, r6, lr}
    aa04:	e24dd008 	sub	sp, sp, #8, 0
    aa08:	e59f30a8 	ldr	r3, [pc, #168]	; aab8 <pi_sd_write+0xb8>
    aa0c:	e5933004 	ldr	r3, [r3, #4]
    aa10:	e3530000 	cmp	r3, #0, 0
    aa14:	0a00000f 	beq	aa58 <pi_sd_write+0x58>
    aa18:	e1a06000 	mov	r6, r0
    aa1c:	e1a05001 	mov	r5, r1
    aa20:	e1a04482 	lsl	r4, r2, #9
    aa24:	e1a02004 	mov	r2, r4
    aa28:	e1a01000 	mov	r1, r0
    aa2c:	e1a00005 	mov	r0, r5
    aa30:	eb001233 	bl	f304 <emmc_write>
    aa34:	e1500004 	cmp	r0, r4
    aa38:	1a00000e 	bne	aa78 <pi_sd_write+0x78>
    aa3c:	e59f3074 	ldr	r3, [pc, #116]	; aab8 <pi_sd_write+0xb8>
    aa40:	e5933000 	ldr	r3, [r3]
    aa44:	e3530000 	cmp	r3, #0, 0
    aa48:	1a000011 	bne	aa94 <pi_sd_write+0x94>
    aa4c:	e3a00001 	mov	r0, #1, 0
    aa50:	e28dd008 	add	sp, sp, #8, 0
    aa54:	e8bd8070 	pop	{r4, r5, r6, pc}
    aa58:	e59f305c 	ldr	r3, [pc, #92]	; aabc <pi_sd_write+0xbc>
    aa5c:	e58d3000 	str	r3, [sp]
    aa60:	e3a0303b 	mov	r3, #59, 0	; 0x3b
    aa64:	e59f2054 	ldr	r2, [pc, #84]	; aac0 <pi_sd_write+0xc0>
    aa68:	e59f1054 	ldr	r1, [pc, #84]	; aac4 <pi_sd_write+0xc4>
    aa6c:	e59f0054 	ldr	r0, [pc, #84]	; aac8 <pi_sd_write+0xc8>
    aa70:	eb001563 	bl	10004 <printk>
    aa74:	eb00169c 	bl	104ec <clean_reboot>
    aa78:	e58d0000 	str	r0, [sp]
    aa7c:	e3a0303e 	mov	r3, #62, 0	; 0x3e
    aa80:	e59f2038 	ldr	r2, [pc, #56]	; aac0 <pi_sd_write+0xc0>
    aa84:	e59f1038 	ldr	r1, [pc, #56]	; aac4 <pi_sd_write+0xc4>
    aa88:	e59f003c 	ldr	r0, [pc, #60]	; aacc <pi_sd_write+0xcc>
    aa8c:	eb00155c 	bl	10004 <printk>
    aa90:	eb001695 	bl	104ec <clean_reboot>
    aa94:	e1a01004 	mov	r1, r4
    aa98:	e1a00006 	mov	r0, r6
    aa9c:	eb001554 	bl	fff4 <our_crc32>
    aaa0:	e1a03000 	mov	r3, r0
    aaa4:	e1a02005 	mov	r2, r5
    aaa8:	e59f1010 	ldr	r1, [pc, #16]	; aac0 <pi_sd_write+0xc0>
    aaac:	e59f001c 	ldr	r0, [pc, #28]	; aad0 <pi_sd_write+0xd0>
    aab0:	eb001553 	bl	10004 <printk>
    aab4:	eaffffe4 	b	aa4c <pi_sd_write+0x4c>
    aab8:	00014c9c 	.word	0x00014c9c
    aabc:	000122b8 	.word	0x000122b8
    aac0:	000123dc 	.word	0x000123dc
    aac4:	0001223c 	.word	0x0001223c
    aac8:	00012270 	.word	0x00012270
    aacc:	00012354 	.word	0x00012354
    aad0:	00012390 	.word	0x00012390

0000aad4 <mbr_read>:
    aad4:	e92d4010 	push	{r4, lr}
    aad8:	e3a01001 	mov	r1, #1, 0
    aadc:	e3a00000 	mov	r0, #0, 0
    aae0:	ebffff9f 	bl	a964 <pi_sec_read>
    aae4:	e1a04000 	mov	r4, r0
    aae8:	eb00019d 	bl	b164 <mbr_check>
    aaec:	e1a00004 	mov	r0, r4
    aaf0:	e8bd8010 	pop	{r4, pc}

0000aaf4 <mbr_get_partition>:
    aaf4:	e92d4010 	push	{r4, lr}
    aaf8:	e24dd018 	sub	sp, sp, #24, 0
    aafc:	e3520003 	cmp	r2, #3, 0
    ab00:	8a00000e 	bhi	ab40 <mbr_get_partition+0x4c>
    ab04:	e1a04000 	mov	r4, r0
    ab08:	e1a03002 	mov	r3, r2
    ab0c:	e2811f6f 	add	r1, r1, #444	; 0x1bc
    ab10:	e2811002 	add	r1, r1, #2, 0
    ab14:	e3a02010 	mov	r2, #16, 0
    ab18:	e0811203 	add	r1, r1, r3, lsl #4
    ab1c:	e28d0008 	add	r0, sp, #8, 0
    ab20:	eb0014c5 	bl	fe3c <memcpy>
    ab24:	e3a02010 	mov	r2, #16, 0
    ab28:	e28d1008 	add	r1, sp, #8, 0
    ab2c:	e1a00004 	mov	r0, r4
    ab30:	eb0014c1 	bl	fe3c <memcpy>
    ab34:	e1a00004 	mov	r0, r4
    ab38:	e28dd018 	add	sp, sp, #24, 0
    ab3c:	e8bd8010 	pop	{r4, pc}
    ab40:	e59f3018 	ldr	r3, [pc, #24]	; ab60 <mbr_get_partition+0x6c>
    ab44:	e58d3000 	str	r3, [sp]
    ab48:	e3a0301c 	mov	r3, #28, 0
    ab4c:	e59f2010 	ldr	r2, [pc, #16]	; ab64 <mbr_get_partition+0x70>
    ab50:	e59f1010 	ldr	r1, [pc, #16]	; ab68 <mbr_get_partition+0x74>
    ab54:	e59f0010 	ldr	r0, [pc, #16]	; ab6c <mbr_get_partition+0x78>
    ab58:	eb001529 	bl	10004 <printk>
    ab5c:	eb001662 	bl	104ec <clean_reboot>
    ab60:	00012404 	.word	0x00012404
    ab64:	00012828 	.word	0x00012828
    ab68:	000123e8 	.word	0x000123e8
    ab6c:	00011458 	.word	0x00011458

0000ab70 <mbr_part_str>:
    ab70:	e35000fc 	cmp	r0, #252, 0	; 0xfc
    ab74:	979ff100 	ldrls	pc, [pc, r0, lsl #2]
    ab78:	ea000140 	b	b080 <mbr_part_str+0x510>
    ab7c:	0000b0a4 	.word	0x0000b0a4
    ab80:	0000b0ac 	.word	0x0000b0ac
    ab84:	0000b080 	.word	0x0000b080
    ab88:	0000b080 	.word	0x0000b080
    ab8c:	0000af70 	.word	0x0000af70
    ab90:	0000af78 	.word	0x0000af78
    ab94:	0000af80 	.word	0x0000af80
    ab98:	0000af88 	.word	0x0000af88
    ab9c:	0000b080 	.word	0x0000b080
    aba0:	0000b080 	.word	0x0000b080
    aba4:	0000b080 	.word	0x0000b080
    aba8:	0000af90 	.word	0x0000af90
    abac:	0000af98 	.word	0x0000af98
    abb0:	0000b080 	.word	0x0000b080
    abb4:	0000afa0 	.word	0x0000afa0
    abb8:	0000afa8 	.word	0x0000afa8
    abbc:	0000b080 	.word	0x0000b080
    abc0:	0000afb0 	.word	0x0000afb0
    abc4:	0000b080 	.word	0x0000b080
    abc8:	0000b080 	.word	0x0000b080
    abcc:	0000afb8 	.word	0x0000afb8
    abd0:	0000b080 	.word	0x0000b080
    abd4:	0000afc0 	.word	0x0000afc0
    abd8:	0000b080 	.word	0x0000b080
    abdc:	0000b080 	.word	0x0000b080
    abe0:	0000b080 	.word	0x0000b080
    abe4:	0000b080 	.word	0x0000b080
    abe8:	0000afc8 	.word	0x0000afc8
    abec:	0000afd0 	.word	0x0000afd0
    abf0:	0000b080 	.word	0x0000b080
    abf4:	0000afd8 	.word	0x0000afd8
    abf8:	0000b080 	.word	0x0000b080
    abfc:	0000b080 	.word	0x0000b080
    ac00:	0000b080 	.word	0x0000b080
    ac04:	0000b080 	.word	0x0000b080
    ac08:	0000b080 	.word	0x0000b080
    ac0c:	0000b080 	.word	0x0000b080
    ac10:	0000b080 	.word	0x0000b080
    ac14:	0000b080 	.word	0x0000b080
    ac18:	0000b080 	.word	0x0000b080
    ac1c:	0000b080 	.word	0x0000b080
    ac20:	0000b080 	.word	0x0000b080
    ac24:	0000b080 	.word	0x0000b080
    ac28:	0000b080 	.word	0x0000b080
    ac2c:	0000b080 	.word	0x0000b080
    ac30:	0000b080 	.word	0x0000b080
    ac34:	0000b080 	.word	0x0000b080
    ac38:	0000b080 	.word	0x0000b080
    ac3c:	0000b080 	.word	0x0000b080
    ac40:	0000b080 	.word	0x0000b080
    ac44:	0000b080 	.word	0x0000b080
    ac48:	0000b080 	.word	0x0000b080
    ac4c:	0000b080 	.word	0x0000b080
    ac50:	0000b080 	.word	0x0000b080
    ac54:	0000b080 	.word	0x0000b080
    ac58:	0000b080 	.word	0x0000b080
    ac5c:	0000b080 	.word	0x0000b080
    ac60:	0000b080 	.word	0x0000b080
    ac64:	0000b080 	.word	0x0000b080
    ac68:	0000b080 	.word	0x0000b080
    ac6c:	0000b080 	.word	0x0000b080
    ac70:	0000b080 	.word	0x0000b080
    ac74:	0000b080 	.word	0x0000b080
    ac78:	0000b080 	.word	0x0000b080
    ac7c:	0000b080 	.word	0x0000b080
    ac80:	0000b080 	.word	0x0000b080
    ac84:	0000afe0 	.word	0x0000afe0
    ac88:	0000b080 	.word	0x0000b080
    ac8c:	0000b080 	.word	0x0000b080
    ac90:	0000b080 	.word	0x0000b080
    ac94:	0000b080 	.word	0x0000b080
    ac98:	0000b080 	.word	0x0000b080
    ac9c:	0000b080 	.word	0x0000b080
    aca0:	0000b080 	.word	0x0000b080
    aca4:	0000b080 	.word	0x0000b080
    aca8:	0000b080 	.word	0x0000b080
    acac:	0000b080 	.word	0x0000b080
    acb0:	0000b080 	.word	0x0000b080
    acb4:	0000b080 	.word	0x0000b080
    acb8:	0000b080 	.word	0x0000b080
    acbc:	0000b080 	.word	0x0000b080
    acc0:	0000b080 	.word	0x0000b080
    acc4:	0000b080 	.word	0x0000b080
    acc8:	0000b080 	.word	0x0000b080
    accc:	0000b080 	.word	0x0000b080
    acd0:	0000b080 	.word	0x0000b080
    acd4:	0000b080 	.word	0x0000b080
    acd8:	0000b080 	.word	0x0000b080
    acdc:	0000b080 	.word	0x0000b080
    ace0:	0000b080 	.word	0x0000b080
    ace4:	0000b080 	.word	0x0000b080
    ace8:	0000b080 	.word	0x0000b080
    acec:	0000b080 	.word	0x0000b080
    acf0:	0000b080 	.word	0x0000b080
    acf4:	0000b080 	.word	0x0000b080
    acf8:	0000b080 	.word	0x0000b080
    acfc:	0000b080 	.word	0x0000b080
    ad00:	0000b080 	.word	0x0000b080
    ad04:	0000b080 	.word	0x0000b080
    ad08:	0000b080 	.word	0x0000b080
    ad0c:	0000b080 	.word	0x0000b080
    ad10:	0000b080 	.word	0x0000b080
    ad14:	0000b080 	.word	0x0000b080
    ad18:	0000b080 	.word	0x0000b080
    ad1c:	0000b080 	.word	0x0000b080
    ad20:	0000b080 	.word	0x0000b080
    ad24:	0000b080 	.word	0x0000b080
    ad28:	0000b080 	.word	0x0000b080
    ad2c:	0000b080 	.word	0x0000b080
    ad30:	0000b080 	.word	0x0000b080
    ad34:	0000b080 	.word	0x0000b080
    ad38:	0000b080 	.word	0x0000b080
    ad3c:	0000b080 	.word	0x0000b080
    ad40:	0000b080 	.word	0x0000b080
    ad44:	0000b080 	.word	0x0000b080
    ad48:	0000b080 	.word	0x0000b080
    ad4c:	0000b080 	.word	0x0000b080
    ad50:	0000b080 	.word	0x0000b080
    ad54:	0000b080 	.word	0x0000b080
    ad58:	0000b080 	.word	0x0000b080
    ad5c:	0000b080 	.word	0x0000b080
    ad60:	0000b080 	.word	0x0000b080
    ad64:	0000b080 	.word	0x0000b080
    ad68:	0000b080 	.word	0x0000b080
    ad6c:	0000b080 	.word	0x0000b080
    ad70:	0000b080 	.word	0x0000b080
    ad74:	0000b080 	.word	0x0000b080
    ad78:	0000b080 	.word	0x0000b080
    ad7c:	0000b080 	.word	0x0000b080
    ad80:	0000b080 	.word	0x0000b080
    ad84:	0000afe8 	.word	0x0000afe8
    ad88:	0000aff0 	.word	0x0000aff0
    ad8c:	0000aff8 	.word	0x0000aff8
    ad90:	0000b000 	.word	0x0000b000
    ad94:	0000b008 	.word	0x0000b008
    ad98:	0000b010 	.word	0x0000b010
    ad9c:	0000b080 	.word	0x0000b080
    ada0:	0000b080 	.word	0x0000b080
    ada4:	0000b080 	.word	0x0000b080
    ada8:	0000b080 	.word	0x0000b080
    adac:	0000b080 	.word	0x0000b080
    adb0:	0000b080 	.word	0x0000b080
    adb4:	0000b080 	.word	0x0000b080
    adb8:	0000b080 	.word	0x0000b080
    adbc:	0000b080 	.word	0x0000b080
    adc0:	0000b080 	.word	0x0000b080
    adc4:	0000b080 	.word	0x0000b080
    adc8:	0000b080 	.word	0x0000b080
    adcc:	0000b080 	.word	0x0000b080
    add0:	0000b080 	.word	0x0000b080
    add4:	0000b080 	.word	0x0000b080
    add8:	0000b080 	.word	0x0000b080
    addc:	0000b080 	.word	0x0000b080
    ade0:	0000b080 	.word	0x0000b080
    ade4:	0000b080 	.word	0x0000b080
    ade8:	0000b080 	.word	0x0000b080
    adec:	0000b080 	.word	0x0000b080
    adf0:	0000b080 	.word	0x0000b080
    adf4:	0000b080 	.word	0x0000b080
    adf8:	0000b080 	.word	0x0000b080
    adfc:	0000b018 	.word	0x0000b018
    ae00:	0000b020 	.word	0x0000b020
    ae04:	0000b080 	.word	0x0000b080
    ae08:	0000b080 	.word	0x0000b080
    ae0c:	0000b080 	.word	0x0000b080
    ae10:	0000b028 	.word	0x0000b028
    ae14:	0000b030 	.word	0x0000b030
    ae18:	0000b080 	.word	0x0000b080
    ae1c:	0000b038 	.word	0x0000b038
    ae20:	0000b040 	.word	0x0000b040
    ae24:	0000b080 	.word	0x0000b080
    ae28:	0000b048 	.word	0x0000b048
    ae2c:	0000b080 	.word	0x0000b080
    ae30:	0000b080 	.word	0x0000b080
    ae34:	0000b080 	.word	0x0000b080
    ae38:	0000b080 	.word	0x0000b080
    ae3c:	0000b080 	.word	0x0000b080
    ae40:	0000b080 	.word	0x0000b080
    ae44:	0000b080 	.word	0x0000b080
    ae48:	0000b080 	.word	0x0000b080
    ae4c:	0000b080 	.word	0x0000b080
    ae50:	0000b080 	.word	0x0000b080
    ae54:	0000b080 	.word	0x0000b080
    ae58:	0000b050 	.word	0x0000b050
    ae5c:	0000b058 	.word	0x0000b058
    ae60:	0000b080 	.word	0x0000b080
    ae64:	0000b080 	.word	0x0000b080
    ae68:	0000b080 	.word	0x0000b080
    ae6c:	0000b080 	.word	0x0000b080
    ae70:	0000b080 	.word	0x0000b080
    ae74:	0000b080 	.word	0x0000b080
    ae78:	0000b080 	.word	0x0000b080
    ae7c:	0000b080 	.word	0x0000b080
    ae80:	0000b080 	.word	0x0000b080
    ae84:	0000b080 	.word	0x0000b080
    ae88:	0000b080 	.word	0x0000b080
    ae8c:	0000b080 	.word	0x0000b080
    ae90:	0000b080 	.word	0x0000b080
    ae94:	0000b080 	.word	0x0000b080
    ae98:	0000b080 	.word	0x0000b080
    ae9c:	0000b080 	.word	0x0000b080
    aea0:	0000b080 	.word	0x0000b080
    aea4:	0000b080 	.word	0x0000b080
    aea8:	0000b080 	.word	0x0000b080
    aeac:	0000b080 	.word	0x0000b080
    aeb0:	0000b080 	.word	0x0000b080
    aeb4:	0000b080 	.word	0x0000b080
    aeb8:	0000b080 	.word	0x0000b080
    aebc:	0000b080 	.word	0x0000b080
    aec0:	0000b080 	.word	0x0000b080
    aec4:	0000b080 	.word	0x0000b080
    aec8:	0000b080 	.word	0x0000b080
    aecc:	0000b080 	.word	0x0000b080
    aed0:	0000b080 	.word	0x0000b080
    aed4:	0000b080 	.word	0x0000b080
    aed8:	0000b080 	.word	0x0000b080
    aedc:	0000b080 	.word	0x0000b080
    aee0:	0000b080 	.word	0x0000b080
    aee4:	0000b080 	.word	0x0000b080
    aee8:	0000b080 	.word	0x0000b080
    aeec:	0000b080 	.word	0x0000b080
    aef0:	0000b080 	.word	0x0000b080
    aef4:	0000b080 	.word	0x0000b080
    aef8:	0000b080 	.word	0x0000b080
    aefc:	0000b080 	.word	0x0000b080
    af00:	0000b080 	.word	0x0000b080
    af04:	0000b080 	.word	0x0000b080
    af08:	0000b080 	.word	0x0000b080
    af0c:	0000b080 	.word	0x0000b080
    af10:	0000b080 	.word	0x0000b080
    af14:	0000b080 	.word	0x0000b080
    af18:	0000b080 	.word	0x0000b080
    af1c:	0000b080 	.word	0x0000b080
    af20:	0000b080 	.word	0x0000b080
    af24:	0000b080 	.word	0x0000b080
    af28:	0000b080 	.word	0x0000b080
    af2c:	0000b080 	.word	0x0000b080
    af30:	0000b080 	.word	0x0000b080
    af34:	0000b060 	.word	0x0000b060
    af38:	0000b068 	.word	0x0000b068
    af3c:	0000b080 	.word	0x0000b080
    af40:	0000b080 	.word	0x0000b080
    af44:	0000b080 	.word	0x0000b080
    af48:	0000b080 	.word	0x0000b080
    af4c:	0000b080 	.word	0x0000b080
    af50:	0000b080 	.word	0x0000b080
    af54:	0000b080 	.word	0x0000b080
    af58:	0000b080 	.word	0x0000b080
    af5c:	0000b080 	.word	0x0000b080
    af60:	0000b080 	.word	0x0000b080
    af64:	0000b080 	.word	0x0000b080
    af68:	0000b070 	.word	0x0000b070
    af6c:	0000b078 	.word	0x0000b078
    af70:	e59f013c 	ldr	r0, [pc, #316]	; b0b4 <mbr_part_str+0x544>
    af74:	e12fff1e 	bx	lr
    af78:	e59f0138 	ldr	r0, [pc, #312]	; b0b8 <mbr_part_str+0x548>
    af7c:	e12fff1e 	bx	lr
    af80:	e59f0134 	ldr	r0, [pc, #308]	; b0bc <mbr_part_str+0x54c>
    af84:	e12fff1e 	bx	lr
    af88:	e59f0130 	ldr	r0, [pc, #304]	; b0c0 <mbr_part_str+0x550>
    af8c:	e12fff1e 	bx	lr
    af90:	e59f012c 	ldr	r0, [pc, #300]	; b0c4 <mbr_part_str+0x554>
    af94:	e12fff1e 	bx	lr
    af98:	e59f0128 	ldr	r0, [pc, #296]	; b0c8 <mbr_part_str+0x558>
    af9c:	e12fff1e 	bx	lr
    afa0:	e59f0124 	ldr	r0, [pc, #292]	; b0cc <mbr_part_str+0x55c>
    afa4:	e12fff1e 	bx	lr
    afa8:	e59f0120 	ldr	r0, [pc, #288]	; b0d0 <mbr_part_str+0x560>
    afac:	e12fff1e 	bx	lr
    afb0:	e59f011c 	ldr	r0, [pc, #284]	; b0d4 <mbr_part_str+0x564>
    afb4:	e12fff1e 	bx	lr
    afb8:	e59f0118 	ldr	r0, [pc, #280]	; b0d8 <mbr_part_str+0x568>
    afbc:	e12fff1e 	bx	lr
    afc0:	e59f0114 	ldr	r0, [pc, #276]	; b0dc <mbr_part_str+0x56c>
    afc4:	e12fff1e 	bx	lr
    afc8:	e59f0110 	ldr	r0, [pc, #272]	; b0e0 <mbr_part_str+0x570>
    afcc:	e12fff1e 	bx	lr
    afd0:	e59f010c 	ldr	r0, [pc, #268]	; b0e4 <mbr_part_str+0x574>
    afd4:	e12fff1e 	bx	lr
    afd8:	e59f0108 	ldr	r0, [pc, #264]	; b0e8 <mbr_part_str+0x578>
    afdc:	e12fff1e 	bx	lr
    afe0:	e59f0104 	ldr	r0, [pc, #260]	; b0ec <mbr_part_str+0x57c>
    afe4:	e12fff1e 	bx	lr
    afe8:	e59f0100 	ldr	r0, [pc, #256]	; b0f0 <mbr_part_str+0x580>
    afec:	e12fff1e 	bx	lr
    aff0:	e59f00fc 	ldr	r0, [pc, #252]	; b0f4 <mbr_part_str+0x584>
    aff4:	e12fff1e 	bx	lr
    aff8:	e59f00f8 	ldr	r0, [pc, #248]	; b0f8 <mbr_part_str+0x588>
    affc:	e12fff1e 	bx	lr
    b000:	e59f00f4 	ldr	r0, [pc, #244]	; b0fc <mbr_part_str+0x58c>
    b004:	e12fff1e 	bx	lr
    b008:	e59f00f0 	ldr	r0, [pc, #240]	; b100 <mbr_part_str+0x590>
    b00c:	e12fff1e 	bx	lr
    b010:	e59f00e8 	ldr	r0, [pc, #232]	; b100 <mbr_part_str+0x590>
    b014:	e12fff1e 	bx	lr
    b018:	e59f00d8 	ldr	r0, [pc, #216]	; b0f8 <mbr_part_str+0x588>
    b01c:	e12fff1e 	bx	lr
    b020:	e59f00d0 	ldr	r0, [pc, #208]	; b0f8 <mbr_part_str+0x588>
    b024:	e12fff1e 	bx	lr
    b028:	e59f00d4 	ldr	r0, [pc, #212]	; b104 <mbr_part_str+0x594>
    b02c:	e12fff1e 	bx	lr
    b030:	e59f00d0 	ldr	r0, [pc, #208]	; b108 <mbr_part_str+0x598>
    b034:	e12fff1e 	bx	lr
    b038:	e59f00cc 	ldr	r0, [pc, #204]	; b10c <mbr_part_str+0x59c>
    b03c:	e12fff1e 	bx	lr
    b040:	e59f00c8 	ldr	r0, [pc, #200]	; b110 <mbr_part_str+0x5a0>
    b044:	e12fff1e 	bx	lr
    b048:	e59f00c4 	ldr	r0, [pc, #196]	; b114 <mbr_part_str+0x5a4>
    b04c:	e12fff1e 	bx	lr
    b050:	e59f00c0 	ldr	r0, [pc, #192]	; b118 <mbr_part_str+0x5a8>
    b054:	e12fff1e 	bx	lr
    b058:	e59f00bc 	ldr	r0, [pc, #188]	; b11c <mbr_part_str+0x5ac>
    b05c:	e12fff1e 	bx	lr
    b060:	e59f00b8 	ldr	r0, [pc, #184]	; b120 <mbr_part_str+0x5b0>
    b064:	e12fff1e 	bx	lr
    b068:	e59f00b4 	ldr	r0, [pc, #180]	; b124 <mbr_part_str+0x5b4>
    b06c:	e12fff1e 	bx	lr
    b070:	e59f00b0 	ldr	r0, [pc, #176]	; b128 <mbr_part_str+0x5b8>
    b074:	e12fff1e 	bx	lr
    b078:	e59f00ac 	ldr	r0, [pc, #172]	; b12c <mbr_part_str+0x5bc>
    b07c:	e12fff1e 	bx	lr
    b080:	e52de004 	push	{lr}		; (str lr, [sp, #-4]!)
    b084:	e24dd00c 	sub	sp, sp, #12, 0
    b088:	e58d0000 	str	r0, [sp]
    b08c:	e3a0304d 	mov	r3, #77, 0	; 0x4d
    b090:	e59f2098 	ldr	r2, [pc, #152]	; b130 <mbr_part_str+0x5c0>
    b094:	e59f1098 	ldr	r1, [pc, #152]	; b134 <mbr_part_str+0x5c4>
    b098:	e59f0098 	ldr	r0, [pc, #152]	; b138 <mbr_part_str+0x5c8>
    b09c:	eb0013d8 	bl	10004 <printk>
    b0a0:	eb001511 	bl	104ec <clean_reboot>
    b0a4:	e59f0090 	ldr	r0, [pc, #144]	; b13c <mbr_part_str+0x5cc>
    b0a8:	e12fff1e 	bx	lr
    b0ac:	e59f008c 	ldr	r0, [pc, #140]	; b140 <mbr_part_str+0x5d0>
    b0b0:	e12fff1e 	bx	lr
    b0b4:	00012428 	.word	0x00012428
    b0b8:	00012440 	.word	0x00012440
    b0bc:	0001245c 	.word	0x0001245c
    b0c0:	00012478 	.word	0x00012478
    b0c4:	00012480 	.word	0x00012480
    b0c8:	0001248c 	.word	0x0001248c
    b0cc:	00012498 	.word	0x00012498
    b0d0:	000124b4 	.word	0x000124b4
    b0d4:	000124d0 	.word	0x000124d0
    b0d8:	000124e4 	.word	0x000124e4
    b0dc:	00012504 	.word	0x00012504
    b0e0:	00012524 	.word	0x00012524
    b0e4:	00012538 	.word	0x00012538
    b0e8:	0001254c 	.word	0x0001254c
    b0ec:	0001256c 	.word	0x0001256c
    b0f0:	0001258c 	.word	0x0001258c
    b0f4:	000125a8 	.word	0x000125a8
    b0f8:	000125b0 	.word	0x000125b0
    b0fc:	000125bc 	.word	0x000125bc
    b100:	000125cc 	.word	0x000125cc
    b104:	000125dc 	.word	0x000125dc
    b108:	000125e4 	.word	0x000125e4
    b10c:	000125ec 	.word	0x000125ec
    b110:	000125f4 	.word	0x000125f4
    b114:	000125fc 	.word	0x000125fc
    b118:	0001260c 	.word	0x0001260c
    b11c:	00012614 	.word	0x00012614
    b120:	00012620 	.word	0x00012620
    b124:	00012630 	.word	0x00012630
    b128:	00012648 	.word	0x00012648
    b12c:	00012410 	.word	0x00012410
    b130:	0001283c 	.word	0x0001283c
    b134:	000123e8 	.word	0x000123e8
    b138:	00012664 	.word	0x00012664
    b13c:	0001265c 	.word	0x0001265c
    b140:	0001241c 	.word	0x0001241c

0000b144 <mbr_partition_empty>:
    b144:	e92d4010 	push	{r4, lr}
    b148:	e3a01010 	mov	r1, #16, 0
    b14c:	eb001365 	bl	fee8 <memiszero>
    b150:	e8bd8010 	pop	{r4, pc}

0000b154 <mbr_partition_empty_raw>:
    b154:	e92d4010 	push	{r4, lr}
    b158:	e3a01010 	mov	r1, #16, 0
    b15c:	eb001361 	bl	fee8 <memiszero>
    b160:	e8bd8010 	pop	{r4, pc}

0000b164 <mbr_check>:
    b164:	e92d4030 	push	{r4, r5, lr}
    b168:	e24dd01c 	sub	sp, sp, #28, 0
    b16c:	e2803f7f 	add	r3, r0, #508	; 0x1fc
    b170:	e1d320b2 	ldrh	r2, [r3, #2]
    b174:	e59f3144 	ldr	r3, [pc, #324]	; b2c0 <mbr_check+0x15c>
    b178:	e1520003 	cmp	r2, r3
    b17c:	1a00001f 	bne	b200 <mbr_check+0x9c>
    b180:	e1a04000 	mov	r4, r0
    b184:	e2805f6f 	add	r5, r0, #444	; 0x1bc
    b188:	e2855002 	add	r5, r5, #2, 0
    b18c:	e3a02010 	mov	r2, #16, 0
    b190:	e1a01005 	mov	r1, r5
    b194:	e28d0008 	add	r0, sp, #8, 0
    b198:	eb001327 	bl	fe3c <memcpy>
    b19c:	e5dd300c 	ldrb	r3, [sp, #12]
    b1a0:	e243300b 	sub	r3, r3, #11, 0
    b1a4:	e3530001 	cmp	r3, #1, 0
    b1a8:	8a00001c 	bhi	b220 <mbr_check+0xbc>
    b1ac:	e1a00005 	mov	r0, r5
    b1b0:	ebffffe7 	bl	b154 <mbr_partition_empty_raw>
    b1b4:	e3500000 	cmp	r0, #0, 0
    b1b8:	1a000020 	bne	b240 <mbr_check+0xdc>
    b1bc:	e2840f73 	add	r0, r4, #460	; 0x1cc
    b1c0:	e2800002 	add	r0, r0, #2, 0
    b1c4:	ebffffe2 	bl	b154 <mbr_partition_empty_raw>
    b1c8:	e3500000 	cmp	r0, #0, 0
    b1cc:	0a000023 	beq	b260 <mbr_check+0xfc>
    b1d0:	e2840f77 	add	r0, r4, #476	; 0x1dc
    b1d4:	e2800002 	add	r0, r0, #2, 0
    b1d8:	ebffffdd 	bl	b154 <mbr_partition_empty_raw>
    b1dc:	e3500000 	cmp	r0, #0, 0
    b1e0:	0a000026 	beq	b280 <mbr_check+0x11c>
    b1e4:	e2840f7b 	add	r0, r4, #492	; 0x1ec
    b1e8:	e2800002 	add	r0, r0, #2, 0
    b1ec:	ebffffd8 	bl	b154 <mbr_partition_empty_raw>
    b1f0:	e3500000 	cmp	r0, #0, 0
    b1f4:	0a000029 	beq	b2a0 <mbr_check+0x13c>
    b1f8:	e28dd01c 	add	sp, sp, #28, 0
    b1fc:	e8bd8030 	pop	{r4, r5, pc}
    b200:	e59f30bc 	ldr	r3, [pc, #188]	; b2c4 <mbr_check+0x160>
    b204:	e58d3000 	str	r3, [sp]
    b208:	e3a03009 	mov	r3, #9, 0
    b20c:	e59f20b4 	ldr	r2, [pc, #180]	; b2c8 <mbr_check+0x164>
    b210:	e59f10b4 	ldr	r1, [pc, #180]	; b2cc <mbr_check+0x168>
    b214:	e59f00b4 	ldr	r0, [pc, #180]	; b2d0 <mbr_check+0x16c>
    b218:	eb001379 	bl	10004 <printk>
    b21c:	eb0014b2 	bl	104ec <clean_reboot>
    b220:	e59f30ac 	ldr	r3, [pc, #172]	; b2d4 <mbr_check+0x170>
    b224:	e58d3000 	str	r3, [sp]
    b228:	e3a0300f 	mov	r3, #15, 0
    b22c:	e59f2094 	ldr	r2, [pc, #148]	; b2c8 <mbr_check+0x164>
    b230:	e59f1094 	ldr	r1, [pc, #148]	; b2cc <mbr_check+0x168>
    b234:	e59f0094 	ldr	r0, [pc, #148]	; b2d0 <mbr_check+0x16c>
    b238:	eb001371 	bl	10004 <printk>
    b23c:	eb0014aa 	bl	104ec <clean_reboot>
    b240:	e59f3090 	ldr	r3, [pc, #144]	; b2d8 <mbr_check+0x174>
    b244:	e58d3000 	str	r3, [sp]
    b248:	e3a03015 	mov	r3, #21, 0
    b24c:	e59f2074 	ldr	r2, [pc, #116]	; b2c8 <mbr_check+0x164>
    b250:	e59f1074 	ldr	r1, [pc, #116]	; b2cc <mbr_check+0x168>
    b254:	e59f0074 	ldr	r0, [pc, #116]	; b2d0 <mbr_check+0x16c>
    b258:	eb001369 	bl	10004 <printk>
    b25c:	eb0014a2 	bl	104ec <clean_reboot>
    b260:	e59f3074 	ldr	r3, [pc, #116]	; b2dc <mbr_check+0x178>
    b264:	e58d3000 	str	r3, [sp]
    b268:	e3a03016 	mov	r3, #22, 0
    b26c:	e59f2054 	ldr	r2, [pc, #84]	; b2c8 <mbr_check+0x164>
    b270:	e59f1054 	ldr	r1, [pc, #84]	; b2cc <mbr_check+0x168>
    b274:	e59f0054 	ldr	r0, [pc, #84]	; b2d0 <mbr_check+0x16c>
    b278:	eb001361 	bl	10004 <printk>
    b27c:	eb00149a 	bl	104ec <clean_reboot>
    b280:	e59f3058 	ldr	r3, [pc, #88]	; b2e0 <mbr_check+0x17c>
    b284:	e58d3000 	str	r3, [sp]
    b288:	e3a03017 	mov	r3, #23, 0
    b28c:	e59f2034 	ldr	r2, [pc, #52]	; b2c8 <mbr_check+0x164>
    b290:	e59f1034 	ldr	r1, [pc, #52]	; b2cc <mbr_check+0x168>
    b294:	e59f0034 	ldr	r0, [pc, #52]	; b2d0 <mbr_check+0x16c>
    b298:	eb001359 	bl	10004 <printk>
    b29c:	eb001492 	bl	104ec <clean_reboot>
    b2a0:	e59f303c 	ldr	r3, [pc, #60]	; b2e4 <mbr_check+0x180>
    b2a4:	e58d3000 	str	r3, [sp]
    b2a8:	e3a03018 	mov	r3, #24, 0
    b2ac:	e59f2014 	ldr	r2, [pc, #20]	; b2c8 <mbr_check+0x164>
    b2b0:	e59f1014 	ldr	r1, [pc, #20]	; b2cc <mbr_check+0x168>
    b2b4:	e59f0014 	ldr	r0, [pc, #20]	; b2d0 <mbr_check+0x16c>
    b2b8:	eb001351 	bl	10004 <printk>
    b2bc:	eb00148a 	bl	104ec <clean_reboot>
    b2c0:	0000aa55 	.word	0x0000aa55
    b2c4:	00012688 	.word	0x00012688
    b2c8:	0001284c 	.word	0x0001284c
    b2cc:	000123e8 	.word	0x000123e8
    b2d0:	00011458 	.word	0x00011458
    b2d4:	000126a0 	.word	0x000126a0
    b2d8:	000126c0 	.word	0x000126c0
    b2dc:	000126ec 	.word	0x000126ec
    b2e0:	00012714 	.word	0x00012714
    b2e4:	0001273c 	.word	0x0001273c

0000b2e8 <mbr_partition_print>:
    b2e8:	e92d4030 	push	{r4, r5, lr}
    b2ec:	e24dd00c 	sub	sp, sp, #12, 0
    b2f0:	e1a04001 	mov	r4, r1
    b2f4:	e1a01000 	mov	r1, r0
    b2f8:	e59f00fc 	ldr	r0, [pc, #252]	; b3fc <mbr_partition_print+0x114>
    b2fc:	eb001340 	bl	10004 <printk>
    b300:	e5d43000 	ldrb	r3, [r4]
    b304:	e3530000 	cmp	r3, #0, 0
    b308:	0a000031 	beq	b3d4 <mbr_partition_print+0xec>
    b30c:	e59f10ec 	ldr	r1, [pc, #236]	; b400 <mbr_partition_print+0x118>
    b310:	e59f00ec 	ldr	r0, [pc, #236]	; b404 <mbr_partition_print+0x11c>
    b314:	eb00133a 	bl	10004 <printk>
    b318:	e5d43001 	ldrb	r3, [r4, #1]
    b31c:	e5d41002 	ldrb	r1, [r4, #2]
    b320:	e1833401 	orr	r3, r3, r1, lsl #8
    b324:	e5d41003 	ldrb	r1, [r4, #3]
    b328:	e1831801 	orr	r1, r3, r1, lsl #16
    b32c:	e59f00d4 	ldr	r0, [pc, #212]	; b408 <mbr_partition_print+0x120>
    b330:	eb001333 	bl	10004 <printk>
    b334:	e5d45004 	ldrb	r5, [r4, #4]
    b338:	e1a00005 	mov	r0, r5
    b33c:	ebfffe0b 	bl	ab70 <mbr_part_str>
    b340:	e1a02000 	mov	r2, r0
    b344:	e1a01005 	mov	r1, r5
    b348:	e59f00bc 	ldr	r0, [pc, #188]	; b40c <mbr_partition_print+0x124>
    b34c:	eb00132c 	bl	10004 <printk>
    b350:	e5d43005 	ldrb	r3, [r4, #5]
    b354:	e5d41006 	ldrb	r1, [r4, #6]
    b358:	e1833401 	orr	r3, r3, r1, lsl #8
    b35c:	e5d41007 	ldrb	r1, [r4, #7]
    b360:	e1831801 	orr	r1, r3, r1, lsl #16
    b364:	e59f00a4 	ldr	r0, [pc, #164]	; b410 <mbr_partition_print+0x128>
    b368:	eb001325 	bl	10004 <printk>
    b36c:	e5d43008 	ldrb	r3, [r4, #8]
    b370:	e5d41009 	ldrb	r1, [r4, #9]
    b374:	e1833401 	orr	r3, r3, r1, lsl #8
    b378:	e5d4100a 	ldrb	r1, [r4, #10]
    b37c:	e1833801 	orr	r3, r3, r1, lsl #16
    b380:	e5d4100b 	ldrb	r1, [r4, #11]
    b384:	e1831c01 	orr	r1, r3, r1, lsl #24
    b388:	e59f0084 	ldr	r0, [pc, #132]	; b414 <mbr_partition_print+0x12c>
    b38c:	eb00131c 	bl	10004 <printk>
    b390:	e5d4100c 	ldrb	r1, [r4, #12]
    b394:	e5d4300d 	ldrb	r3, [r4, #13]
    b398:	e1811403 	orr	r1, r1, r3, lsl #8
    b39c:	e5d4300e 	ldrb	r3, [r4, #14]
    b3a0:	e1811803 	orr	r1, r1, r3, lsl #16
    b3a4:	e5d4300f 	ldrb	r3, [r4, #15]
    b3a8:	e1811c03 	orr	r1, r1, r3, lsl #24
    b3ac:	e1a02aa1 	lsr	r2, r1, #21
    b3b0:	e59f0060 	ldr	r0, [pc, #96]	; b418 <mbr_partition_print+0x130>
    b3b4:	eb001312 	bl	10004 <printk>
    b3b8:	e5d43004 	ldrb	r3, [r4, #4]
    b3bc:	e243300b 	sub	r3, r3, #11, 0
    b3c0:	e6ef3073 	uxtb	r3, r3
    b3c4:	e3530001 	cmp	r3, #1, 0
    b3c8:	8a000003 	bhi	b3dc <mbr_partition_print+0xf4>
    b3cc:	e28dd00c 	add	sp, sp, #12, 0
    b3d0:	e8bd8030 	pop	{r4, r5, pc}
    b3d4:	e59f1040 	ldr	r1, [pc, #64]	; b41c <mbr_partition_print+0x134>
    b3d8:	eaffffcc 	b	b310 <mbr_partition_print+0x28>
    b3dc:	e59f303c 	ldr	r3, [pc, #60]	; b420 <mbr_partition_print+0x138>
    b3e0:	e58d3000 	str	r3, [sp]
    b3e4:	e3a03061 	mov	r3, #97, 0	; 0x61
    b3e8:	e59f2034 	ldr	r2, [pc, #52]	; b424 <mbr_partition_print+0x13c>
    b3ec:	e59f1034 	ldr	r1, [pc, #52]	; b428 <mbr_partition_print+0x140>
    b3f0:	e59f0034 	ldr	r0, [pc, #52]	; b42c <mbr_partition_print+0x144>
    b3f4:	eb001302 	bl	10004 <printk>
    b3f8:	eb00143b 	bl	104ec <clean_reboot>
    b3fc:	00012774 	.word	0x00012774
    b400:	0001276c 	.word	0x0001276c
    b404:	0001277c 	.word	0x0001277c
    b408:	00012790 	.word	0x00012790
    b40c:	000127a4 	.word	0x000127a4
    b410:	000127bc 	.word	0x000127bc
    b414:	000127d0 	.word	0x000127d0
    b418:	000127e4 	.word	0x000127e4
    b41c:	00012764 	.word	0x00012764
    b420:	000127fc 	.word	0x000127fc
    b424:	00012858 	.word	0x00012858
    b428:	000123e8 	.word	0x000123e8
    b42c:	00011458 	.word	0x00011458

0000b430 <cluster_to_lba>:
    b430:	e3510001 	cmp	r1, #1, 0
    b434:	9a000004 	bls	b44c <cluster_to_lba+0x1c>
    b438:	e5903008 	ldr	r3, [r0, #8]
    b43c:	e2411002 	sub	r1, r1, #2, 0
    b440:	e590000c 	ldr	r0, [r0, #12]
    b444:	e0203190 	mla	r0, r0, r1, r3
    b448:	e12fff1e 	bx	lr
    b44c:	e52de004 	push	{lr}		; (str lr, [sp, #-4]!)
    b450:	e24dd00c 	sub	sp, sp, #12, 0
    b454:	e59f3018 	ldr	r3, [pc, #24]	; b474 <cluster_to_lba+0x44>
    b458:	e58d3000 	str	r3, [sp]
    b45c:	e3a0305a 	mov	r3, #90, 0	; 0x5a
    b460:	e59f2010 	ldr	r2, [pc, #16]	; b478 <cluster_to_lba+0x48>
    b464:	e59f1010 	ldr	r1, [pc, #16]	; b47c <cluster_to_lba+0x4c>
    b468:	e59f0010 	ldr	r0, [pc, #16]	; b480 <cluster_to_lba+0x50>
    b46c:	eb0012e4 	bl	10004 <printk>
    b470:	eb00141d 	bl	104ec <clean_reboot>
    b474:	00012880 	.word	0x00012880
    b478:	00012b10 	.word	0x00012b10
    b47c:	0001286c 	.word	0x0001286c
    b480:	00011458 	.word	0x00011458

0000b484 <write_fat_to_disk>:
    b484:	e92d4070 	push	{r4, r5, r6, lr}
    b488:	e1a05000 	mov	r5, r0
    b48c:	e59f4054 	ldr	r4, [pc, #84]	; b4e8 <write_fat_to_disk+0x64>
    b490:	e5d43024 	ldrb	r3, [r4, #36]	; 0x24
    b494:	e5d42025 	ldrb	r2, [r4, #37]	; 0x25
    b498:	e1833402 	orr	r3, r3, r2, lsl #8
    b49c:	e5d42026 	ldrb	r2, [r4, #38]	; 0x26
    b4a0:	e1833802 	orr	r3, r3, r2, lsl #16
    b4a4:	e5d42027 	ldrb	r2, [r4, #39]	; 0x27
    b4a8:	e1832c02 	orr	r2, r3, r2, lsl #24
    b4ac:	e5901004 	ldr	r1, [r0, #4]
    b4b0:	e5900014 	ldr	r0, [r0, #20]
    b4b4:	ebfffd51 	bl	aa00 <pi_sd_write>
    b4b8:	e5951004 	ldr	r1, [r5, #4]
    b4bc:	e5d42024 	ldrb	r2, [r4, #36]	; 0x24
    b4c0:	e5d43025 	ldrb	r3, [r4, #37]	; 0x25
    b4c4:	e1822403 	orr	r2, r2, r3, lsl #8
    b4c8:	e5d43026 	ldrb	r3, [r4, #38]	; 0x26
    b4cc:	e1822803 	orr	r2, r2, r3, lsl #16
    b4d0:	e5d43027 	ldrb	r3, [r4, #39]	; 0x27
    b4d4:	e1822c03 	orr	r2, r2, r3, lsl #24
    b4d8:	e0811002 	add	r1, r1, r2
    b4dc:	e5950014 	ldr	r0, [r5, #20]
    b4e0:	ebfffd46 	bl	aa00 <pi_sd_write>
    b4e4:	e8bd8070 	pop	{r4, r5, r6, pc}
    b4e8:	00014fb8 	.word	0x00014fb8

0000b4ec <get_cluster_chain_length>:
    b4ec:	e92d4070 	push	{r4, r5, r6, lr}
    b4f0:	e1a06000 	mov	r6, r0
    b4f4:	e1a04001 	mov	r4, r1
    b4f8:	e3a05000 	mov	r5, #0, 0
    b4fc:	e1a00004 	mov	r0, r4
    b500:	eb000718 	bl	d168 <fat32_fat_entry_type>
    b504:	e370028f 	cmn	r0, #-268435448	; 0xf0000008
    b508:	15963014 	ldrne	r3, [r6, #20]
    b50c:	17934104 	ldrne	r4, [r3, r4, lsl #2]
    b510:	12855001 	addne	r5, r5, #1, 0
    b514:	1afffff8 	bne	b4fc <get_cluster_chain_length+0x10>
    b518:	e1a00005 	mov	r0, r5
    b51c:	e8bd8070 	pop	{r4, r5, r6, pc}

0000b520 <find_free_cluster>:
    b520:	e92d4070 	push	{r4, r5, r6, lr}
    b524:	e1a05000 	mov	r5, r0
    b528:	e3510002 	cmp	r1, #2, 0
    b52c:	9a00000a 	bls	b55c <find_free_cluster+0x3c>
    b530:	e1a04001 	mov	r4, r1
    b534:	e5953018 	ldr	r3, [r5, #24]
    b538:	e1530004 	cmp	r3, r4
    b53c:	9a000008 	bls	b564 <find_free_cluster+0x44>
    b540:	e5953014 	ldr	r3, [r5, #20]
    b544:	e7930104 	ldr	r0, [r3, r4, lsl #2]
    b548:	eb000706 	bl	d168 <fat32_fat_entry_type>
    b54c:	e3500000 	cmp	r0, #0, 0
    b550:	0a000009 	beq	b57c <find_free_cluster+0x5c>
    b554:	e2844001 	add	r4, r4, #1, 0
    b558:	eafffff5 	b	b534 <find_free_cluster+0x14>
    b55c:	e3a04003 	mov	r4, #3, 0
    b560:	eafffff3 	b	b534 <find_free_cluster+0x14>
    b564:	e59f3018 	ldr	r3, [pc, #24]	; b584 <find_free_cluster+0x64>
    b568:	e59f2018 	ldr	r2, [pc, #24]	; b588 <find_free_cluster+0x68>
    b56c:	e59f1018 	ldr	r1, [pc, #24]	; b58c <find_free_cluster+0x6c>
    b570:	e59f0018 	ldr	r0, [pc, #24]	; b590 <find_free_cluster+0x70>
    b574:	eb0012a2 	bl	10004 <printk>
    b578:	eb0013db 	bl	104ec <clean_reboot>
    b57c:	e1a00004 	mov	r0, r4
    b580:	e8bd8070 	pop	{r4, r5, r6, pc}
    b584:	00000122 	.word	0x00000122
    b588:	00012b20 	.word	0x00012b20
    b58c:	0001286c 	.word	0x0001286c
    b590:	00012894 	.word	0x00012894

0000b594 <read_cluster_chain>:
    b594:	e92d41f0 	push	{r4, r5, r6, r7, r8, lr}
    b598:	e1a05000 	mov	r5, r0
    b59c:	e1a04001 	mov	r4, r1
    b5a0:	e1a06002 	mov	r6, r2
    b5a4:	e590200c 	ldr	r2, [r0, #12]
    b5a8:	e59f3050 	ldr	r3, [pc, #80]	; b600 <read_cluster_chain+0x6c>
    b5ac:	e5d3700b 	ldrb	r7, [r3, #11]
    b5b0:	e5d3300c 	ldrb	r3, [r3, #12]
    b5b4:	e1877403 	orr	r7, r7, r3, lsl #8
    b5b8:	e0070297 	mul	r7, r7, r2
    b5bc:	e1a00004 	mov	r0, r4
    b5c0:	eb0006e8 	bl	d168 <fat32_fat_entry_type>
    b5c4:	e370028f 	cmn	r0, #-268435448	; 0xf0000008
    b5c8:	08bd81f0 	popeq	{r4, r5, r6, r7, r8, pc}
    b5cc:	e1a01004 	mov	r1, r4
    b5d0:	e1a00005 	mov	r0, r5
    b5d4:	ebffff95 	bl	b430 <cluster_to_lba>
    b5d8:	e595100c 	ldr	r1, [r5, #12]
    b5dc:	ebfffce0 	bl	a964 <pi_sec_read>
    b5e0:	e1a01000 	mov	r1, r0
    b5e4:	e1a02007 	mov	r2, r7
    b5e8:	e1a00006 	mov	r0, r6
    b5ec:	eb001212 	bl	fe3c <memcpy>
    b5f0:	e0866007 	add	r6, r6, r7
    b5f4:	e5953014 	ldr	r3, [r5, #20]
    b5f8:	e7934104 	ldr	r4, [r3, r4, lsl #2]
    b5fc:	eaffffee 	b	b5bc <read_cluster_chain+0x28>
    b600:	00014fb8 	.word	0x00014fb8

0000b604 <get_dirents>:
    b604:	e92d47f0 	push	{r4, r5, r6, r7, r8, r9, sl, lr}
    b608:	e1a07000 	mov	r7, r0
    b60c:	e1a09001 	mov	r9, r1
    b610:	e1a06002 	mov	r6, r2
    b614:	ebffffb4 	bl	b4ec <get_cluster_chain_length>
    b618:	e1a04000 	mov	r4, r0
    b61c:	e597300c 	ldr	r3, [r7, #12]
    b620:	e0030390 	mul	r3, r0, r3
    b624:	e59f804c 	ldr	r8, [pc, #76]	; b678 <get_dirents+0x74>
    b628:	e5d8000b 	ldrb	r0, [r8, #11]
    b62c:	e5d8200c 	ldrb	r2, [r8, #12]
    b630:	e1800402 	orr	r0, r0, r2, lsl #8
    b634:	e0000390 	mul	r0, r0, r3
    b638:	eb00110a 	bl	fa68 <kmalloc>
    b63c:	e1a05000 	mov	r5, r0
    b640:	e1a02000 	mov	r2, r0
    b644:	e1a01009 	mov	r1, r9
    b648:	e1a00007 	mov	r0, r7
    b64c:	ebffffd0 	bl	b594 <read_cluster_chain>
    b650:	e597300c 	ldr	r3, [r7, #12]
    b654:	e0040394 	mul	r4, r4, r3
    b658:	e5d8300b 	ldrb	r3, [r8, #11]
    b65c:	e5d8200c 	ldrb	r2, [r8, #12]
    b660:	e1833402 	orr	r3, r3, r2, lsl #8
    b664:	e0030493 	mul	r3, r3, r4
    b668:	e1a032a3 	lsr	r3, r3, #5
    b66c:	e5863000 	str	r3, [r6]
    b670:	e1a00005 	mov	r0, r5
    b674:	e8bd87f0 	pop	{r4, r5, r6, r7, r8, r9, sl, pc}
    b678:	00014fb8 	.word	0x00014fb8

0000b67c <dirent_convert>:
    b67c:	e92d4030 	push	{r4, r5, lr}
    b680:	e24dd034 	sub	sp, sp, #52, 0	; 0x34
    b684:	e1a05000 	mov	r5, r0
    b688:	e1a04001 	mov	r4, r1
    b68c:	e3a0202c 	mov	r2, #44, 0	; 0x2c
    b690:	e3a01000 	mov	r1, #0, 0
    b694:	e28d0004 	add	r0, sp, #4, 0
    b698:	eb00121e 	bl	ff18 <memset>
    b69c:	e5d43014 	ldrb	r3, [r4, #20]
    b6a0:	e5d42015 	ldrb	r2, [r4, #21]
    b6a4:	e1832402 	orr	r2, r3, r2, lsl #8
    b6a8:	e5d4301a 	ldrb	r3, [r4, #26]
    b6ac:	e5d4101b 	ldrb	r1, [r4, #27]
    b6b0:	e1833401 	orr	r3, r3, r1, lsl #8
    b6b4:	e1833802 	orr	r3, r3, r2, lsl #16
    b6b8:	e58d3024 	str	r3, [sp, #36]	; 0x24
    b6bc:	e5d4300b 	ldrb	r3, [r4, #11]
    b6c0:	e3530010 	cmp	r3, #16, 0
    b6c4:	13a03000 	movne	r3, #0, 0
    b6c8:	03a03001 	moveq	r3, #1, 0
    b6cc:	e58d3028 	str	r3, [sp, #40]	; 0x28
    b6d0:	e5d4301c 	ldrb	r3, [r4, #28]
    b6d4:	e5d4201d 	ldrb	r2, [r4, #29]
    b6d8:	e1833402 	orr	r3, r3, r2, lsl #8
    b6dc:	e5d4201e 	ldrb	r2, [r4, #30]
    b6e0:	e1833802 	orr	r3, r3, r2, lsl #16
    b6e4:	e5d4201f 	ldrb	r2, [r4, #31]
    b6e8:	e1833c02 	orr	r3, r3, r2, lsl #24
    b6ec:	e58d302c 	str	r3, [sp, #44]	; 0x2c
    b6f0:	e3a0200b 	mov	r2, #11, 0
    b6f4:	e1a01004 	mov	r1, r4
    b6f8:	e28d0014 	add	r0, sp, #20, 0
    b6fc:	eb0011ce 	bl	fe3c <memcpy>
    b700:	e28d1004 	add	r1, sp, #4, 0
    b704:	e1a00004 	mov	r0, r4
    b708:	eb000741 	bl	d414 <fat32_dirent_name>
    b70c:	e1a0e005 	mov	lr, r5
    b710:	e28dc004 	add	ip, sp, #4, 0
    b714:	e8bc000f 	ldm	ip!, {r0, r1, r2, r3}
    b718:	e8ae000f 	stmia	lr!, {r0, r1, r2, r3}
    b71c:	e8bc000f 	ldm	ip!, {r0, r1, r2, r3}
    b720:	e8ae000f 	stmia	lr!, {r0, r1, r2, r3}
    b724:	e89c0007 	ldm	ip, {r0, r1, r2}
    b728:	e88e0007 	stm	lr, {r0, r1, r2}
    b72c:	e1a00005 	mov	r0, r5
    b730:	e28dd034 	add	sp, sp, #52, 0	; 0x34
    b734:	e8bd8030 	pop	{r4, r5, pc}

0000b738 <find_dirent_with_name>:
    b738:	e92d41f0 	push	{r4, r5, r6, r7, r8, lr}
    b73c:	e24ddb01 	sub	sp, sp, #1024	; 0x400
    b740:	e1a07000 	mov	r7, r0
    b744:	e1a06001 	mov	r6, r1
    b748:	e1a08002 	mov	r8, r2
    b74c:	e3a04000 	mov	r4, #0, 0
    b750:	ea000000 	b	b758 <find_dirent_with_name+0x20>
    b754:	e2844001 	add	r4, r4, #1, 0
    b758:	e1540006 	cmp	r4, r6
    b75c:	aa000012 	bge	b7ac <find_dirent_with_name+0x74>
    b760:	e0875284 	add	r5, r7, r4, lsl #5
    b764:	e1a00005 	mov	r0, r5
    b768:	eb0006a8 	bl	d210 <fat32_dirent_free>
    b76c:	e3500000 	cmp	r0, #0, 0
    b770:	1afffff7 	bne	b754 <find_dirent_with_name+0x1c>
    b774:	e5d5300b 	ldrb	r3, [r5, #11]
    b778:	e353000f 	cmp	r3, #15, 0
    b77c:	0afffff4 	beq	b754 <find_dirent_with_name+0x1c>
    b780:	e3130008 	tst	r3, #8, 0
    b784:	1afffff2 	bne	b754 <find_dirent_with_name+0x1c>
    b788:	e1a0100d 	mov	r1, sp
    b78c:	e1a00005 	mov	r0, r5
    b790:	eb00071f 	bl	d414 <fat32_dirent_name>
    b794:	e1a01008 	mov	r1, r8
    b798:	e1a0000d 	mov	r0, sp
    b79c:	eb001338 	bl	10484 <strcmp>
    b7a0:	e3500000 	cmp	r0, #0, 0
    b7a4:	1affffea 	bne	b754 <find_dirent_with_name+0x1c>
    b7a8:	ea000000 	b	b7b0 <find_dirent_with_name+0x78>
    b7ac:	e3e04000 	mvn	r4, #0, 0
    b7b0:	e1a00004 	mov	r0, r4
    b7b4:	e28ddb01 	add	sp, sp, #1024	; 0x400
    b7b8:	e8bd81f0 	pop	{r4, r5, r6, r7, r8, pc}

0000b7bc <write_cluster_chain>:
    b7bc:	e92d4ff0 	push	{r4, r5, r6, r7, r8, r9, sl, fp, lr}
    b7c0:	e28db020 	add	fp, sp, #32, 0
    b7c4:	e24dd00c 	sub	sp, sp, #12, 0
    b7c8:	e1a05000 	mov	r5, r0
    b7cc:	e1a06001 	mov	r6, r1
    b7d0:	e1a0a002 	mov	sl, r2
    b7d4:	e590100c 	ldr	r1, [r0, #12]
    b7d8:	e59f22c8 	ldr	r2, [pc, #712]	; baa8 <write_cluster_chain+0x2ec>
    b7dc:	e5d2700b 	ldrb	r7, [r2, #11]
    b7e0:	e5d2200c 	ldrb	r2, [r2, #12]
    b7e4:	e1877402 	orr	r7, r7, r2, lsl #8
    b7e8:	e0070197 	mul	r7, r7, r1
    b7ec:	e2538000 	subs	r8, r3, #0, 0
    b7f0:	13a04000 	movne	r4, #0, 0
    b7f4:	11a09004 	movne	r9, r4
    b7f8:	1a000039 	bne	b8e4 <write_cluster_chain+0x128>
    b7fc:	e1a00006 	mov	r0, r6
    b800:	eb000658 	bl	d168 <fat32_fat_entry_type>
    b804:	e370027f 	cmn	r0, #-268435449	; 0xf0000007
    b808:	0a000009 	beq	b834 <write_cluster_chain+0x78>
    b80c:	e1a00006 	mov	r0, r6
    b810:	eb000654 	bl	d168 <fat32_fat_entry_type>
    b814:	e370028f 	cmn	r0, #-268435448	; 0xf0000008
    b818:	1a00000d 	bne	b854 <write_cluster_chain+0x98>
    b81c:	ea000004 	b	b834 <write_cluster_chain+0x78>
    b820:	e5953014 	ldr	r3, [r5, #20]
    b824:	e1a02106 	lsl	r2, r6, #2
    b828:	e7936106 	ldr	r6, [r3, r6, lsl #2]
    b82c:	e3a01000 	mov	r1, #0, 0
    b830:	e7831002 	str	r1, [r3, r2]
    b834:	e1a00006 	mov	r0, r6
    b838:	eb00064a 	bl	d168 <fat32_fat_entry_type>
    b83c:	e370027f 	cmn	r0, #-268435449	; 0xf0000007
    b840:	0afffff6 	beq	b820 <write_cluster_chain+0x64>
    b844:	e1a00006 	mov	r0, r6
    b848:	eb000646 	bl	d168 <fat32_fat_entry_type>
    b84c:	e370028f 	cmn	r0, #-268435448	; 0xf0000008
    b850:	0a000002 	beq	b860 <write_cluster_chain+0xa4>
    b854:	e1a00005 	mov	r0, r5
    b858:	ebffff09 	bl	b484 <write_fat_to_disk>
    b85c:	ea00006f 	b	ba20 <write_cluster_chain+0x264>
    b860:	e5953014 	ldr	r3, [r5, #20]
    b864:	e3a02000 	mov	r2, #0, 0
    b868:	e7832106 	str	r2, [r3, r6, lsl #2]
    b86c:	eafffff8 	b	b854 <write_cluster_chain+0x98>
    b870:	e50bd028 	str	sp, [fp, #-40]	; 0xffffffd8
    b874:	e2873007 	add	r3, r7, #7, 0
    b878:	e3c33007 	bic	r3, r3, #7, 0
    b87c:	e04dd003 	sub	sp, sp, r3
    b880:	e1a02007 	mov	r2, r7
    b884:	e3a01000 	mov	r1, #0, 0
    b888:	e1a0000d 	mov	r0, sp
    b88c:	eb0011a1 	bl	ff18 <memset>
    b890:	e1a02009 	mov	r2, r9
    b894:	e08a1004 	add	r1, sl, r4
    b898:	e1a0000d 	mov	r0, sp
    b89c:	eb001166 	bl	fe3c <memcpy>
    b8a0:	e1a01006 	mov	r1, r6
    b8a4:	e1a00005 	mov	r0, r5
    b8a8:	ebfffee0 	bl	b430 <cluster_to_lba>
    b8ac:	e1a01000 	mov	r1, r0
    b8b0:	e595200c 	ldr	r2, [r5, #12]
    b8b4:	e1a0000d 	mov	r0, sp
    b8b8:	ebfffc50 	bl	aa00 <pi_sd_write>
    b8bc:	e51bd028 	ldr	sp, [fp, #-40]	; 0xffffffd8
    b8c0:	e0844007 	add	r4, r4, r7
    b8c4:	e5953014 	ldr	r3, [r5, #20]
    b8c8:	e7930106 	ldr	r0, [r3, r6, lsl #2]
    b8cc:	eb000625 	bl	d168 <fat32_fat_entry_type>
    b8d0:	e370028f 	cmn	r0, #-268435448	; 0xf0000008
    b8d4:	0a000047 	beq	b9f8 <write_cluster_chain+0x23c>
    b8d8:	e5953014 	ldr	r3, [r5, #20]
    b8dc:	e1a09006 	mov	r9, r6
    b8e0:	e7936106 	ldr	r6, [r3, r6, lsl #2]
    b8e4:	e1540008 	cmp	r4, r8
    b8e8:	2a00002a 	bcs	b998 <write_cluster_chain+0x1dc>
    b8ec:	e1a00006 	mov	r0, r6
    b8f0:	eb00061c 	bl	d168 <fat32_fat_entry_type>
    b8f4:	e370027f 	cmn	r0, #-268435449	; 0xf0000007
    b8f8:	1a00000b 	bne	b92c <write_cluster_chain+0x170>
    b8fc:	e0489004 	sub	r9, r8, r4
    b900:	e1570009 	cmp	r7, r9
    b904:	8affffd9 	bhi	b870 <write_cluster_chain+0xb4>
    b908:	e08a9004 	add	r9, sl, r4
    b90c:	e1a01006 	mov	r1, r6
    b910:	e1a00005 	mov	r0, r5
    b914:	ebfffec5 	bl	b430 <cluster_to_lba>
    b918:	e1a01000 	mov	r1, r0
    b91c:	e595200c 	ldr	r2, [r5, #12]
    b920:	e1a00009 	mov	r0, r9
    b924:	ebfffc35 	bl	aa00 <pi_sd_write>
    b928:	eaffffe4 	b	b8c0 <write_cluster_chain+0x104>
    b92c:	e1a00006 	mov	r0, r6
    b930:	eb00060c 	bl	d168 <fat32_fat_entry_type>
    b934:	e370028f 	cmn	r0, #-268435448	; 0xf0000008
    b938:	0affffef 	beq	b8fc <write_cluster_chain+0x140>
    b93c:	ea000015 	b	b998 <write_cluster_chain+0x1dc>
    b940:	e50bd028 	str	sp, [fp, #-40]	; 0xffffffd8
    b944:	e2873007 	add	r3, r7, #7, 0
    b948:	e3c33007 	bic	r3, r3, #7, 0
    b94c:	e04dd003 	sub	sp, sp, r3
    b950:	e1a02007 	mov	r2, r7
    b954:	e3a01000 	mov	r1, #0, 0
    b958:	e1a0000d 	mov	r0, sp
    b95c:	eb00116d 	bl	ff18 <memset>
    b960:	e1a02009 	mov	r2, r9
    b964:	e08a1004 	add	r1, sl, r4
    b968:	e1a0000d 	mov	r0, sp
    b96c:	eb001132 	bl	fe3c <memcpy>
    b970:	e1a01006 	mov	r1, r6
    b974:	e1a00005 	mov	r0, r5
    b978:	ebfffeac 	bl	b430 <cluster_to_lba>
    b97c:	e1a01000 	mov	r1, r0
    b980:	e595200c 	ldr	r2, [r5, #12]
    b984:	e1a0000d 	mov	r0, sp
    b988:	ebfffc1c 	bl	aa00 <pi_sd_write>
    b98c:	e51bd028 	ldr	sp, [fp, #-40]	; 0xffffffd8
    b990:	e0844007 	add	r4, r4, r7
    b994:	e1a09006 	mov	r9, r6
    b998:	e1540008 	cmp	r4, r8
    b99c:	2a000017 	bcs	ba00 <write_cluster_chain+0x244>
    b9a0:	e3a01003 	mov	r1, #3, 0
    b9a4:	e1a00005 	mov	r0, r5
    b9a8:	ebfffedc 	bl	b520 <find_free_cluster>
    b9ac:	e1a06000 	mov	r6, r0
    b9b0:	e3590000 	cmp	r9, #0, 0
    b9b4:	15953014 	ldrne	r3, [r5, #20]
    b9b8:	17830109 	strne	r0, [r3, r9, lsl #2]
    b9bc:	e5953014 	ldr	r3, [r5, #20]
    b9c0:	e3e0220f 	mvn	r2, #-268435456	; 0xf0000000
    b9c4:	e7832106 	str	r2, [r3, r6, lsl #2]
    b9c8:	e0489004 	sub	r9, r8, r4
    b9cc:	e1570009 	cmp	r7, r9
    b9d0:	8affffda 	bhi	b940 <write_cluster_chain+0x184>
    b9d4:	e08a9004 	add	r9, sl, r4
    b9d8:	e1a01006 	mov	r1, r6
    b9dc:	e1a00005 	mov	r0, r5
    b9e0:	ebfffe92 	bl	b430 <cluster_to_lba>
    b9e4:	e1a01000 	mov	r1, r0
    b9e8:	e595200c 	ldr	r2, [r5, #12]
    b9ec:	e1a00009 	mov	r0, r9
    b9f0:	ebfffc02 	bl	aa00 <pi_sd_write>
    b9f4:	eaffffe5 	b	b990 <write_cluster_chain+0x1d4>
    b9f8:	e1a09006 	mov	r9, r6
    b9fc:	eaffffe5 	b	b998 <write_cluster_chain+0x1dc>
    ba00:	e3590000 	cmp	r9, #0, 0
    ba04:	1a000007 	bne	ba28 <write_cluster_chain+0x26c>
    ba08:	e3590000 	cmp	r9, #0, 0
    ba0c:	15953014 	ldrne	r3, [r5, #20]
    ba10:	13e0220f 	mvnne	r2, #-268435456	; 0xf0000000
    ba14:	17832109 	strne	r2, [r3, r9, lsl #2]
    ba18:	e1a00005 	mov	r0, r5
    ba1c:	ebfffe98 	bl	b484 <write_fat_to_disk>
    ba20:	e24bd020 	sub	sp, fp, #32, 0
    ba24:	e8bd8ff0 	pop	{r4, r5, r6, r7, r8, r9, sl, fp, pc}
    ba28:	e5953014 	ldr	r3, [r5, #20]
    ba2c:	e1a06109 	lsl	r6, r9, #2
    ba30:	e7930109 	ldr	r0, [r3, r9, lsl #2]
    ba34:	eb0005cb 	bl	d168 <fat32_fat_entry_type>
    ba38:	e370028f 	cmn	r0, #-268435448	; 0xf0000008
    ba3c:	0afffff1 	beq	ba08 <write_cluster_chain+0x24c>
    ba40:	e5953014 	ldr	r3, [r5, #20]
    ba44:	e7930109 	ldr	r0, [r3, r9, lsl #2]
    ba48:	eb0005c6 	bl	d168 <fat32_fat_entry_type>
    ba4c:	e370027f 	cmn	r0, #-268435449	; 0xf0000007
    ba50:	1affffec 	bne	ba08 <write_cluster_chain+0x24c>
    ba54:	e5953014 	ldr	r3, [r5, #20]
    ba58:	e7934006 	ldr	r4, [r3, r6]
    ba5c:	e3e0220f 	mvn	r2, #-268435456	; 0xf0000000
    ba60:	e7832006 	str	r2, [r3, r6]
    ba64:	ea000004 	b	ba7c <write_cluster_chain+0x2c0>
    ba68:	e5953014 	ldr	r3, [r5, #20]
    ba6c:	e1a02104 	lsl	r2, r4, #2
    ba70:	e7934104 	ldr	r4, [r3, r4, lsl #2]
    ba74:	e3a01000 	mov	r1, #0, 0
    ba78:	e7831002 	str	r1, [r3, r2]
    ba7c:	e1a00004 	mov	r0, r4
    ba80:	eb0005b8 	bl	d168 <fat32_fat_entry_type>
    ba84:	e370027f 	cmn	r0, #-268435449	; 0xf0000007
    ba88:	0afffff6 	beq	ba68 <write_cluster_chain+0x2ac>
    ba8c:	e1a00004 	mov	r0, r4
    ba90:	eb0005b4 	bl	d168 <fat32_fat_entry_type>
    ba94:	e370028f 	cmn	r0, #-268435448	; 0xf0000008
    ba98:	05953014 	ldreq	r3, [r5, #20]
    ba9c:	03a02000 	moveq	r2, #0, 0
    baa0:	07832104 	streq	r2, [r3, r4, lsl #2]
    baa4:	eaffffdb 	b	ba18 <write_cluster_chain+0x25c>
    baa8:	00014fb8 	.word	0x00014fb8

0000baac <fat32_mk>:
    baac:	e92d4ff0 	push	{r4, r5, r6, r7, r8, r9, sl, fp, lr}
    bab0:	e24ddf85 	sub	sp, sp, #532	; 0x214
    bab4:	e59f3298 	ldr	r3, [pc, #664]	; bd54 <fat32_mk+0x2a8>
    bab8:	e5939000 	ldr	r9, [r3]
    babc:	e3590000 	cmp	r9, #0, 0
    bac0:	1a000072 	bne	bc90 <fat32_mk+0x1e4>
    bac4:	e1a06000 	mov	r6, r0
    bac8:	e1a04001 	mov	r4, r1
    bacc:	e5d13008 	ldrb	r3, [r1, #8]
    bad0:	e5d10009 	ldrb	r0, [r1, #9]
    bad4:	e1833400 	orr	r3, r3, r0, lsl #8
    bad8:	e5d1000a 	ldrb	r0, [r1, #10]
    badc:	e1833800 	orr	r3, r3, r0, lsl #16
    bae0:	e5d1000b 	ldrb	r0, [r1, #11]
    bae4:	e3a01001 	mov	r1, #1, 0
    bae8:	e1830c00 	orr	r0, r3, r0, lsl #24
    baec:	ebfffb9c 	bl	a964 <pi_sec_read>
    baf0:	e1a01000 	mov	r1, r0
    baf4:	e59f525c 	ldr	r5, [pc, #604]	; bd58 <fat32_mk+0x2ac>
    baf8:	e3a02c02 	mov	r2, #512	; 0x200
    bafc:	e1a00005 	mov	r0, r5
    bb00:	eb0010cd 	bl	fe3c <memcpy>
    bb04:	e1a00005 	mov	r0, r5
    bb08:	eb0003c8 	bl	ca30 <fat32_volume_id_check>
    bb0c:	e1a01005 	mov	r1, r5
    bb10:	e59f0244 	ldr	r0, [pc, #580]	; bd5c <fat32_mk+0x2b0>
    bb14:	eb000472 	bl	cce4 <fat32_volume_id_print>
    bb18:	e5d53030 	ldrb	r3, [r5, #48]	; 0x30
    bb1c:	e5d52031 	ldrb	r2, [r5, #49]	; 0x31
    bb20:	e1833402 	orr	r3, r3, r2, lsl #8
    bb24:	e3530001 	cmp	r3, #1, 0
    bb28:	1a000060 	bne	bcb0 <fat32_mk+0x204>
    bb2c:	e5d40008 	ldrb	r0, [r4, #8]
    bb30:	e5d43009 	ldrb	r3, [r4, #9]
    bb34:	e1800403 	orr	r0, r0, r3, lsl #8
    bb38:	e5d4300a 	ldrb	r3, [r4, #10]
    bb3c:	e1800803 	orr	r0, r0, r3, lsl #16
    bb40:	e5d4300b 	ldrb	r3, [r4, #11]
    bb44:	e1800c03 	orr	r0, r0, r3, lsl #24
    bb48:	e3a01001 	mov	r1, #1, 0
    bb4c:	e0800001 	add	r0, r0, r1
    bb50:	ebfffb83 	bl	a964 <pi_sec_read>
    bb54:	e1a01000 	mov	r1, r0
    bb58:	e3a02c02 	mov	r2, #512	; 0x200
    bb5c:	e28d0010 	add	r0, sp, #16, 0
    bb60:	eb0010b5 	bl	fe3c <memcpy>
    bb64:	e28d0010 	add	r0, sp, #16, 0
    bb68:	eb000527 	bl	d00c <fat32_fsinfo_check>
    bb6c:	e28d1010 	add	r1, sp, #16, 0
    bb70:	e59f01e8 	ldr	r0, [pc, #488]	; bd60 <fat32_mk+0x2b4>
    bb74:	eb000509 	bl	cfa0 <fat32_fsinfo_print>
    bb78:	e5d48008 	ldrb	r8, [r4, #8]
    bb7c:	e5d43009 	ldrb	r3, [r4, #9]
    bb80:	e1888403 	orr	r8, r8, r3, lsl #8
    bb84:	e5d4300a 	ldrb	r3, [r4, #10]
    bb88:	e1888803 	orr	r8, r8, r3, lsl #16
    bb8c:	e5d4300b 	ldrb	r3, [r4, #11]
    bb90:	e1888c03 	orr	r8, r8, r3, lsl #24
    bb94:	e59f41bc 	ldr	r4, [pc, #444]	; bd58 <fat32_mk+0x2ac>
    bb98:	e5d4700e 	ldrb	r7, [r4, #14]
    bb9c:	e5d4300f 	ldrb	r3, [r4, #15]
    bba0:	e1877403 	orr	r7, r7, r3, lsl #8
    bba4:	e0877008 	add	r7, r7, r8
    bba8:	e5d4a010 	ldrb	sl, [r4, #16]
    bbac:	e5d45024 	ldrb	r5, [r4, #36]	; 0x24
    bbb0:	e5d43025 	ldrb	r3, [r4, #37]	; 0x25
    bbb4:	e1855403 	orr	r5, r5, r3, lsl #8
    bbb8:	e5d43026 	ldrb	r3, [r4, #38]	; 0x26
    bbbc:	e1855803 	orr	r5, r5, r3, lsl #16
    bbc0:	e5d43027 	ldrb	r3, [r4, #39]	; 0x27
    bbc4:	e1855c03 	orr	r5, r5, r3, lsl #24
    bbc8:	e02a7a95 	mla	sl, r5, sl, r7
    bbcc:	e5d4b00d 	ldrb	fp, [r4, #13]
    bbd0:	e5d4302c 	ldrb	r3, [r4, #44]	; 0x2c
    bbd4:	e5d4202d 	ldrb	r2, [r4, #45]	; 0x2d
    bbd8:	e1833402 	orr	r3, r3, r2, lsl #8
    bbdc:	e5d4202e 	ldrb	r2, [r4, #46]	; 0x2e
    bbe0:	e1833802 	orr	r3, r3, r2, lsl #16
    bbe4:	e5d4202f 	ldrb	r2, [r4, #47]	; 0x2f
    bbe8:	e1833c02 	orr	r3, r3, r2, lsl #24
    bbec:	e58d3008 	str	r3, [sp, #8]
    bbf0:	e5d43020 	ldrb	r3, [r4, #32]
    bbf4:	e5d40021 	ldrb	r0, [r4, #33]	; 0x21
    bbf8:	e1833400 	orr	r3, r3, r0, lsl #8
    bbfc:	e5d40022 	ldrb	r0, [r4, #34]	; 0x22
    bc00:	e1833800 	orr	r3, r3, r0, lsl #16
    bc04:	e5d40023 	ldrb	r0, [r4, #35]	; 0x23
    bc08:	e1a0100b 	mov	r1, fp
    bc0c:	e1830c00 	orr	r0, r3, r0, lsl #24
    bc10:	eb001594 	bl	11268 <__udivsi3>
    bc14:	e58d000c 	str	r0, [sp, #12]
    bc18:	e1a01005 	mov	r1, r5
    bc1c:	e1a00007 	mov	r0, r7
    bc20:	ebfffb4f 	bl	a964 <pi_sec_read>
    bc24:	e1a05000 	mov	r5, r0
    bc28:	e5d41024 	ldrb	r1, [r4, #36]	; 0x24
    bc2c:	e5d40025 	ldrb	r0, [r4, #37]	; 0x25
    bc30:	e1811400 	orr	r1, r1, r0, lsl #8
    bc34:	e5d40026 	ldrb	r0, [r4, #38]	; 0x26
    bc38:	e1811800 	orr	r1, r1, r0, lsl #16
    bc3c:	e5d40027 	ldrb	r0, [r4, #39]	; 0x27
    bc40:	e1811c00 	orr	r1, r1, r0, lsl #24
    bc44:	e0810007 	add	r0, r1, r7
    bc48:	ebfffb45 	bl	a964 <pi_sec_read>
    bc4c:	e1a02009 	mov	r2, r9
    bc50:	e59f1100 	ldr	r1, [pc, #256]	; bd58 <fat32_mk+0x2ac>
    bc54:	e5d13024 	ldrb	r3, [r1, #36]	; 0x24
    bc58:	e5d1c025 	ldrb	ip, [r1, #37]	; 0x25
    bc5c:	e183340c 	orr	r3, r3, ip, lsl #8
    bc60:	e5d1c026 	ldrb	ip, [r1, #38]	; 0x26
    bc64:	e183380c 	orr	r3, r3, ip, lsl #16
    bc68:	e5d11027 	ldrb	r1, [r1, #39]	; 0x27
    bc6c:	e1833c01 	orr	r3, r3, r1, lsl #24
    bc70:	e1520383 	cmp	r2, r3, lsl #7
    bc74:	2a000016 	bcs	bcd4 <fat32_mk+0x228>
    bc78:	e7951102 	ldr	r1, [r5, r2, lsl #2]
    bc7c:	e7903102 	ldr	r3, [r0, r2, lsl #2]
    bc80:	e1510003 	cmp	r1, r3
    bc84:	1a000011 	bne	bcd0 <fat32_mk+0x224>
    bc88:	e2822001 	add	r2, r2, #1, 0
    bc8c:	eaffffef 	b	bc50 <fat32_mk+0x1a4>
    bc90:	e59f30cc 	ldr	r3, [pc, #204]	; bd64 <fat32_mk+0x2b8>
    bc94:	e58d3000 	str	r3, [sp]
    bc98:	e3a0300e 	mov	r3, #14, 0
    bc9c:	e59f20c4 	ldr	r2, [pc, #196]	; bd68 <fat32_mk+0x2bc>
    bca0:	e59f10c4 	ldr	r1, [pc, #196]	; bd6c <fat32_mk+0x2c0>
    bca4:	e59f00c4 	ldr	r0, [pc, #196]	; bd70 <fat32_mk+0x2c4>
    bca8:	eb0010d5 	bl	10004 <printk>
    bcac:	eb00120e 	bl	104ec <clean_reboot>
    bcb0:	e59f30bc 	ldr	r3, [pc, #188]	; bd74 <fat32_mk+0x2c8>
    bcb4:	e58d3000 	str	r3, [sp]
    bcb8:	e3a03018 	mov	r3, #24, 0
    bcbc:	e59f20a4 	ldr	r2, [pc, #164]	; bd68 <fat32_mk+0x2bc>
    bcc0:	e59f10a4 	ldr	r1, [pc, #164]	; bd6c <fat32_mk+0x2c0>
    bcc4:	e59f00ac 	ldr	r0, [pc, #172]	; bd78 <fat32_mk+0x2cc>
    bcc8:	eb0010cd 	bl	10004 <printk>
    bccc:	eb001206 	bl	104ec <clean_reboot>
    bcd0:	e3a09001 	mov	r9, #1, 0
    bcd4:	e3590000 	cmp	r9, #0, 0
    bcd8:	1a00000e 	bne	bd18 <fat32_mk+0x26c>
    bcdc:	e5868000 	str	r8, [r6]
    bce0:	e5867004 	str	r7, [r6, #4]
    bce4:	e586a008 	str	sl, [r6, #8]
    bce8:	e586b00c 	str	fp, [r6, #12]
    bcec:	e59d3008 	ldr	r3, [sp, #8]
    bcf0:	e5863010 	str	r3, [r6, #16]
    bcf4:	e5865014 	str	r5, [r6, #20]
    bcf8:	e59d300c 	ldr	r3, [sp, #12]
    bcfc:	e5863018 	str	r3, [r6, #24]
    bd00:	e59f304c 	ldr	r3, [pc, #76]	; bd54 <fat32_mk+0x2a8>
    bd04:	e3a02001 	mov	r2, #1, 0
    bd08:	e5832000 	str	r2, [r3]
    bd0c:	e1a00006 	mov	r0, r6
    bd10:	e28ddf85 	add	sp, sp, #532	; 0x214
    bd14:	e8bd8ff0 	pop	{r4, r5, r6, r7, r8, r9, sl, fp, pc}
    bd18:	e59f1048 	ldr	r1, [pc, #72]	; bd68 <fat32_mk+0x2bc>
    bd1c:	e59f0058 	ldr	r0, [pc, #88]	; bd7c <fat32_mk+0x2d0>
    bd20:	eb0010b7 	bl	10004 <printk>
    bd24:	e59f302c 	ldr	r3, [pc, #44]	; bd58 <fat32_mk+0x2ac>
    bd28:	e5d32024 	ldrb	r2, [r3, #36]	; 0x24
    bd2c:	e5d31025 	ldrb	r1, [r3, #37]	; 0x25
    bd30:	e1822401 	orr	r2, r2, r1, lsl #8
    bd34:	e5d31026 	ldrb	r1, [r3, #38]	; 0x26
    bd38:	e1822801 	orr	r2, r2, r1, lsl #16
    bd3c:	e5d31027 	ldrb	r1, [r3, #39]	; 0x27
    bd40:	e1822c01 	orr	r2, r2, r1, lsl #24
    bd44:	e0821007 	add	r1, r2, r7
    bd48:	e1a00005 	mov	r0, r5
    bd4c:	ebfffb2b 	bl	aa00 <pi_sd_write>
    bd50:	eaffffe1 	b	bcdc <fat32_mk+0x230>
    bd54:	00014ca4 	.word	0x00014ca4
    bd58:	00014fb8 	.word	0x00014fb8
    bd5c:	00012920 	.word	0x00012920
    bd60:	0001294c 	.word	0x0001294c
    bd64:	00012918 	.word	0x00012918
    bd68:	00012b34 	.word	0x00012b34
    bd6c:	0001286c 	.word	0x0001286c
    bd70:	000128c4 	.word	0x000128c4
    bd74:	0001292c 	.word	0x0001292c
    bd78:	00011458 	.word	0x00011458
    bd7c:	00012958 	.word	0x00012958

0000bd80 <fat32_get_root>:
    bd80:	e59f3070 	ldr	r3, [pc, #112]	; bdf8 <fat32_get_root+0x78>
    bd84:	e5933000 	ldr	r3, [r3]
    bd88:	e3530000 	cmp	r3, #0, 0
    bd8c:	0a00000f 	beq	bdd0 <fat32_get_root+0x50>
    bd90:	e5911010 	ldr	r1, [r1, #16]
    bd94:	e3a03000 	mov	r3, #0, 0
    bd98:	e1a02000 	mov	r2, r0
    bd9c:	e4823004 	str	r3, [r2], #4
    bda0:	e5803004 	str	r3, [r0, #4]
    bda4:	e5823004 	str	r3, [r2, #4]
    bda8:	e5823008 	str	r3, [r2, #8]
    bdac:	e5803010 	str	r3, [r0, #16]
    bdb0:	e5803014 	str	r3, [r0, #20]
    bdb4:	e5803018 	str	r3, [r0, #24]
    bdb8:	e580301c 	str	r3, [r0, #28]
    bdbc:	e5801020 	str	r1, [r0, #32]
    bdc0:	e3a02001 	mov	r2, #1, 0
    bdc4:	e5802024 	str	r2, [r0, #36]	; 0x24
    bdc8:	e5803028 	str	r3, [r0, #40]	; 0x28
    bdcc:	e12fff1e 	bx	lr
    bdd0:	e52de004 	push	{lr}		; (str lr, [sp, #-4]!)
    bdd4:	e24dd00c 	sub	sp, sp, #12, 0
    bdd8:	e59f301c 	ldr	r3, [pc, #28]	; bdfc <fat32_get_root+0x7c>
    bddc:	e58d3000 	str	r3, [sp]
    bde0:	e3a03064 	mov	r3, #100, 0	; 0x64
    bde4:	e59f2014 	ldr	r2, [pc, #20]	; be00 <fat32_get_root+0x80>
    bde8:	e59f1014 	ldr	r1, [pc, #20]	; be04 <fat32_get_root+0x84>
    bdec:	e59f0014 	ldr	r0, [pc, #20]	; be08 <fat32_get_root+0x88>
    bdf0:	eb001083 	bl	10004 <printk>
    bdf4:	eb0011bc 	bl	104ec <clean_reboot>
    bdf8:	00014ca4 	.word	0x00014ca4
    bdfc:	000122b8 	.word	0x000122b8
    be00:	00012b40 	.word	0x00012b40
    be04:	0001286c 	.word	0x0001286c
    be08:	00012990 	.word	0x00012990

0000be0c <fat32_readdir>:
    be0c:	e92d47f0 	push	{r4, r5, r6, r7, r8, r9, sl, lr}
    be10:	e24dd040 	sub	sp, sp, #64, 0	; 0x40
    be14:	e1a03002 	mov	r3, r2
    be18:	e59f211c 	ldr	r2, [pc, #284]	; bf3c <fat32_readdir+0x130>
    be1c:	e5922000 	ldr	r2, [r2]
    be20:	e3520000 	cmp	r2, #0, 0
    be24:	0a000011 	beq	be70 <fat32_readdir+0x64>
    be28:	e1a09000 	mov	r9, r0
    be2c:	e1a00001 	mov	r0, r1
    be30:	e5932024 	ldr	r2, [r3, #36]	; 0x24
    be34:	e3520000 	cmp	r2, #0, 0
    be38:	0a000014 	beq	be90 <fat32_readdir+0x84>
    be3c:	e28d203c 	add	r2, sp, #60, 0	; 0x3c
    be40:	e5931020 	ldr	r1, [r3, #32]
    be44:	ebfffdee 	bl	b604 <get_dirents>
    be48:	e1a07000 	mov	r7, r0
    be4c:	e59d003c 	ldr	r0, [sp, #60]	; 0x3c
    be50:	e0803100 	add	r3, r0, r0, lsl #2
    be54:	e0800083 	add	r0, r0, r3, lsl #1
    be58:	e1a00100 	lsl	r0, r0, #2
    be5c:	eb000f01 	bl	fa68 <kmalloc>
    be60:	e1a08000 	mov	r8, r0
    be64:	e3a05000 	mov	r5, #0, 0
    be68:	e1a06005 	mov	r6, r5
    be6c:	ea000010 	b	beb4 <fat32_readdir+0xa8>
    be70:	e59f30c8 	ldr	r3, [pc, #200]	; bf40 <fat32_readdir+0x134>
    be74:	e58d3000 	str	r3, [sp]
    be78:	e3a030b6 	mov	r3, #182, 0	; 0xb6
    be7c:	e59f20c0 	ldr	r2, [pc, #192]	; bf44 <fat32_readdir+0x138>
    be80:	e59f10c0 	ldr	r1, [pc, #192]	; bf48 <fat32_readdir+0x13c>
    be84:	e59f00c0 	ldr	r0, [pc, #192]	; bf4c <fat32_readdir+0x140>
    be88:	eb00105d 	bl	10004 <printk>
    be8c:	eb001196 	bl	104ec <clean_reboot>
    be90:	e59f30b8 	ldr	r3, [pc, #184]	; bf50 <fat32_readdir+0x144>
    be94:	e58d3000 	str	r3, [sp]
    be98:	e3a030b7 	mov	r3, #183, 0	; 0xb7
    be9c:	e59f20a0 	ldr	r2, [pc, #160]	; bf44 <fat32_readdir+0x138>
    bea0:	e59f10a0 	ldr	r1, [pc, #160]	; bf48 <fat32_readdir+0x13c>
    bea4:	e59f00a8 	ldr	r0, [pc, #168]	; bf54 <fat32_readdir+0x148>
    bea8:	eb001055 	bl	10004 <printk>
    beac:	eb00118e 	bl	104ec <clean_reboot>
    beb0:	e2855001 	add	r5, r5, #1, 0
    beb4:	e59d303c 	ldr	r3, [sp, #60]	; 0x3c
    beb8:	e1550003 	cmp	r5, r3
    bebc:	2a000019 	bcs	bf28 <fat32_readdir+0x11c>
    bec0:	e087a285 	add	sl, r7, r5, lsl #5
    bec4:	e1a0000a 	mov	r0, sl
    bec8:	eb0004d0 	bl	d210 <fat32_dirent_free>
    becc:	e3500000 	cmp	r0, #0, 0
    bed0:	1afffff6 	bne	beb0 <fat32_readdir+0xa4>
    bed4:	e5da300b 	ldrb	r3, [sl, #11]
    bed8:	e353000f 	cmp	r3, #15, 0
    bedc:	0afffff3 	beq	beb0 <fat32_readdir+0xa4>
    bee0:	e3130008 	tst	r3, #8, 0
    bee4:	1afffff1 	bne	beb0 <fat32_readdir+0xa4>
    bee8:	e086c106 	add	ip, r6, r6, lsl #2
    beec:	e086c08c 	add	ip, r6, ip, lsl #1
    bef0:	e088410c 	add	r4, r8, ip, lsl #2
    bef4:	e1a0100a 	mov	r1, sl
    bef8:	e28d0008 	add	r0, sp, #8, 0
    befc:	ebfffdde 	bl	b67c <dirent_convert>
    bf00:	e1a0c004 	mov	ip, r4
    bf04:	e28de008 	add	lr, sp, #8, 0
    bf08:	e8be000f 	ldm	lr!, {r0, r1, r2, r3}
    bf0c:	e8ac000f 	stmia	ip!, {r0, r1, r2, r3}
    bf10:	e8be000f 	ldm	lr!, {r0, r1, r2, r3}
    bf14:	e8ac000f 	stmia	ip!, {r0, r1, r2, r3}
    bf18:	e89e0007 	ldm	lr, {r0, r1, r2}
    bf1c:	e88c0007 	stm	ip, {r0, r1, r2}
    bf20:	e2866001 	add	r6, r6, #1, 0
    bf24:	eaffffe1 	b	beb0 <fat32_readdir+0xa4>
    bf28:	e5898000 	str	r8, [r9]
    bf2c:	e5896004 	str	r6, [r9, #4]
    bf30:	e1a00009 	mov	r0, r9
    bf34:	e28dd040 	add	sp, sp, #64, 0	; 0x40
    bf38:	e8bd87f0 	pop	{r4, r5, r6, r7, r8, r9, sl, pc}
    bf3c:	00014ca4 	.word	0x00014ca4
    bf40:	000122b8 	.word	0x000122b8
    bf44:	00012b50 	.word	0x00012b50
    bf48:	0001286c 	.word	0x0001286c
    bf4c:	00012990 	.word	0x00012990
    bf50:	00012a1c 	.word	0x00012a1c
    bf54:	000129d4 	.word	0x000129d4

0000bf58 <fat32_stat>:
    bf58:	e92d4070 	push	{r4, r5, r6, lr}
    bf5c:	e24dd040 	sub	sp, sp, #64, 0	; 0x40
    bf60:	e59f30cc 	ldr	r3, [pc, #204]	; c034 <fat32_stat+0xdc>
    bf64:	e5933000 	ldr	r3, [r3]
    bf68:	e3530000 	cmp	r3, #0, 0
    bf6c:	0a00001e 	beq	bfec <fat32_stat+0x94>
    bf70:	e1a04002 	mov	r4, r2
    bf74:	e5913024 	ldr	r3, [r1, #36]	; 0x24
    bf78:	e3530000 	cmp	r3, #0, 0
    bf7c:	0a000022 	beq	c00c <fat32_stat+0xb4>
    bf80:	e28d203c 	add	r2, sp, #60, 0	; 0x3c
    bf84:	e5911020 	ldr	r1, [r1, #32]
    bf88:	ebfffd9d 	bl	b604 <get_dirents>
    bf8c:	e1a06000 	mov	r6, r0
    bf90:	e1a02004 	mov	r2, r4
    bf94:	e59d103c 	ldr	r1, [sp, #60]	; 0x3c
    bf98:	ebfffde6 	bl	b738 <find_dirent_with_name>
    bf9c:	e1a04000 	mov	r4, r0
    bfa0:	e3700001 	cmn	r0, #1, 0
    bfa4:	0a000020 	beq	c02c <fat32_stat+0xd4>
    bfa8:	e3a0002c 	mov	r0, #44, 0	; 0x2c
    bfac:	eb000ead 	bl	fa68 <kmalloc>
    bfb0:	e1a05000 	mov	r5, r0
    bfb4:	e0861284 	add	r1, r6, r4, lsl #5
    bfb8:	e28d0008 	add	r0, sp, #8, 0
    bfbc:	ebfffdae 	bl	b67c <dirent_convert>
    bfc0:	e1a0e005 	mov	lr, r5
    bfc4:	e28dc008 	add	ip, sp, #8, 0
    bfc8:	e8bc000f 	ldm	ip!, {r0, r1, r2, r3}
    bfcc:	e8ae000f 	stmia	lr!, {r0, r1, r2, r3}
    bfd0:	e8bc000f 	ldm	ip!, {r0, r1, r2, r3}
    bfd4:	e8ae000f 	stmia	lr!, {r0, r1, r2, r3}
    bfd8:	e89c0007 	ldm	ip, {r0, r1, r2}
    bfdc:	e88e0007 	stm	lr, {r0, r1, r2}
    bfe0:	e1a00005 	mov	r0, r5
    bfe4:	e28dd040 	add	sp, sp, #64, 0	; 0x40
    bfe8:	e8bd8070 	pop	{r4, r5, r6, pc}
    bfec:	e59f3044 	ldr	r3, [pc, #68]	; c038 <fat32_stat+0xe0>
    bff0:	e58d3000 	str	r3, [sp]
    bff4:	e3a030e3 	mov	r3, #227, 0	; 0xe3
    bff8:	e59f203c 	ldr	r2, [pc, #60]	; c03c <fat32_stat+0xe4>
    bffc:	e59f103c 	ldr	r1, [pc, #60]	; c040 <fat32_stat+0xe8>
    c000:	e59f003c 	ldr	r0, [pc, #60]	; c044 <fat32_stat+0xec>
    c004:	eb000ffe 	bl	10004 <printk>
    c008:	eb001137 	bl	104ec <clean_reboot>
    c00c:	e59f3034 	ldr	r3, [pc, #52]	; c048 <fat32_stat+0xf0>
    c010:	e58d3000 	str	r3, [sp]
    c014:	e3a030e4 	mov	r3, #228, 0	; 0xe4
    c018:	e59f201c 	ldr	r2, [pc, #28]	; c03c <fat32_stat+0xe4>
    c01c:	e59f101c 	ldr	r1, [pc, #28]	; c040 <fat32_stat+0xe8>
    c020:	e59f0024 	ldr	r0, [pc, #36]	; c04c <fat32_stat+0xf4>
    c024:	eb000ff6 	bl	10004 <printk>
    c028:	eb00112f 	bl	104ec <clean_reboot>
    c02c:	e3a05000 	mov	r5, #0, 0
    c030:	eaffffea 	b	bfe0 <fat32_stat+0x88>
    c034:	00014ca4 	.word	0x00014ca4
    c038:	000122b8 	.word	0x000122b8
    c03c:	00012b60 	.word	0x00012b60
    c040:	0001286c 	.word	0x0001286c
    c044:	00012990 	.word	0x00012990
    c048:	00012a80 	.word	0x00012a80
    c04c:	00012a30 	.word	0x00012a30

0000c050 <fat32_read>:
    c050:	e92d40f0 	push	{r4, r5, r6, r7, lr}
    c054:	e24dd014 	sub	sp, sp, #20, 0
    c058:	e59f3178 	ldr	r3, [pc, #376]	; c1d8 <fat32_read+0x188>
    c05c:	e5933000 	ldr	r3, [r3]
    c060:	e3530000 	cmp	r3, #0, 0
    c064:	0a00003e 	beq	c164 <fat32_read+0x114>
    c068:	e1a05000 	mov	r5, r0
    c06c:	e1a06002 	mov	r6, r2
    c070:	e5913024 	ldr	r3, [r1, #36]	; 0x24
    c074:	e3530000 	cmp	r3, #0, 0
    c078:	0a000041 	beq	c184 <fat32_read+0x134>
    c07c:	e28d200c 	add	r2, sp, #12, 0
    c080:	e5911020 	ldr	r1, [r1, #32]
    c084:	ebfffd5e 	bl	b604 <get_dirents>
    c088:	e1a04000 	mov	r4, r0
    c08c:	e1a02006 	mov	r2, r6
    c090:	e59d100c 	ldr	r1, [sp, #12]
    c094:	ebfffda7 	bl	b738 <find_dirent_with_name>
    c098:	e3700001 	cmn	r0, #1, 0
    c09c:	0a00004b 	beq	c1d0 <fat32_read+0x180>
    c0a0:	e0844280 	add	r4, r4, r0, lsl #5
    c0a4:	e5d41014 	ldrb	r1, [r4, #20]
    c0a8:	e5d43015 	ldrb	r3, [r4, #21]
    c0ac:	e1811403 	orr	r1, r1, r3, lsl #8
    c0b0:	e5d4301a 	ldrb	r3, [r4, #26]
    c0b4:	e5d4201b 	ldrb	r2, [r4, #27]
    c0b8:	e1833402 	orr	r3, r3, r2, lsl #8
    c0bc:	e1831801 	orr	r1, r3, r1, lsl #16
    c0c0:	e1a00005 	mov	r0, r5
    c0c4:	ebfffd08 	bl	b4ec <get_cluster_chain_length>
    c0c8:	e1a07000 	mov	r7, r0
    c0cc:	e595300c 	ldr	r3, [r5, #12]
    c0d0:	e0030390 	mul	r3, r0, r3
    c0d4:	e59f2100 	ldr	r2, [pc, #256]	; c1dc <fat32_read+0x18c>
    c0d8:	e5d2000b 	ldrb	r0, [r2, #11]
    c0dc:	e5d2200c 	ldrb	r2, [r2, #12]
    c0e0:	e1800402 	orr	r0, r0, r2, lsl #8
    c0e4:	e0000390 	mul	r0, r0, r3
    c0e8:	eb000e5e 	bl	fa68 <kmalloc>
    c0ec:	e1a06000 	mov	r6, r0
    c0f0:	e5d4301c 	ldrb	r3, [r4, #28]
    c0f4:	e5d4201d 	ldrb	r2, [r4, #29]
    c0f8:	e1833402 	orr	r3, r3, r2, lsl #8
    c0fc:	e5d4201e 	ldrb	r2, [r4, #30]
    c100:	e1833802 	orr	r3, r3, r2, lsl #16
    c104:	e5d4201f 	ldrb	r2, [r4, #31]
    c108:	e1933c02 	orrs	r3, r3, r2, lsl #24
    c10c:	1a000024 	bne	c1a4 <fat32_read+0x154>
    c110:	e3a0000c 	mov	r0, #12, 0
    c114:	eb000e53 	bl	fa68 <kmalloc>
    c118:	e595300c 	ldr	r3, [r5, #12]
    c11c:	e0030397 	mul	r3, r7, r3
    c120:	e59f20b4 	ldr	r2, [pc, #180]	; c1dc <fat32_read+0x18c>
    c124:	e5d2700b 	ldrb	r7, [r2, #11]
    c128:	e5d2200c 	ldrb	r2, [r2, #12]
    c12c:	e1877402 	orr	r7, r7, r2, lsl #8
    c130:	e0070397 	mul	r7, r7, r3
    c134:	e5d4301c 	ldrb	r3, [r4, #28]
    c138:	e5d4201d 	ldrb	r2, [r4, #29]
    c13c:	e1833402 	orr	r3, r3, r2, lsl #8
    c140:	e5d4201e 	ldrb	r2, [r4, #30]
    c144:	e1833802 	orr	r3, r3, r2, lsl #16
    c148:	e5d4201f 	ldrb	r2, [r4, #31]
    c14c:	e1833c02 	orr	r3, r3, r2, lsl #24
    c150:	e5806000 	str	r6, [r0]
    c154:	e5807004 	str	r7, [r0, #4]
    c158:	e5803008 	str	r3, [r0, #8]
    c15c:	e28dd014 	add	sp, sp, #20, 0
    c160:	e8bd80f0 	pop	{r4, r5, r6, r7, pc}
    c164:	e59f3074 	ldr	r3, [pc, #116]	; c1e0 <fat32_read+0x190>
    c168:	e58d3000 	str	r3, [sp]
    c16c:	e3a030f9 	mov	r3, #249, 0	; 0xf9
    c170:	e59f206c 	ldr	r2, [pc, #108]	; c1e4 <fat32_read+0x194>
    c174:	e59f106c 	ldr	r1, [pc, #108]	; c1e8 <fat32_read+0x198>
    c178:	e59f006c 	ldr	r0, [pc, #108]	; c1ec <fat32_read+0x19c>
    c17c:	eb000fa0 	bl	10004 <printk>
    c180:	eb0010d9 	bl	104ec <clean_reboot>
    c184:	e59f3064 	ldr	r3, [pc, #100]	; c1f0 <fat32_read+0x1a0>
    c188:	e58d3000 	str	r3, [sp]
    c18c:	e3a030fa 	mov	r3, #250, 0	; 0xfa
    c190:	e59f204c 	ldr	r2, [pc, #76]	; c1e4 <fat32_read+0x194>
    c194:	e59f104c 	ldr	r1, [pc, #76]	; c1e8 <fat32_read+0x198>
    c198:	e59f0054 	ldr	r0, [pc, #84]	; c1f4 <fat32_read+0x1a4>
    c19c:	eb000f98 	bl	10004 <printk>
    c1a0:	eb0010d1 	bl	104ec <clean_reboot>
    c1a4:	e5d41014 	ldrb	r1, [r4, #20]
    c1a8:	e5d43015 	ldrb	r3, [r4, #21]
    c1ac:	e1811403 	orr	r1, r1, r3, lsl #8
    c1b0:	e5d4301a 	ldrb	r3, [r4, #26]
    c1b4:	e5d4201b 	ldrb	r2, [r4, #27]
    c1b8:	e1833402 	orr	r3, r3, r2, lsl #8
    c1bc:	e1a02000 	mov	r2, r0
    c1c0:	e1831801 	orr	r1, r3, r1, lsl #16
    c1c4:	e1a00005 	mov	r0, r5
    c1c8:	ebfffcf1 	bl	b594 <read_cluster_chain>
    c1cc:	eaffffcf 	b	c110 <fat32_read+0xc0>
    c1d0:	e3a00000 	mov	r0, #0, 0
    c1d4:	eaffffe0 	b	c15c <fat32_read+0x10c>
    c1d8:	00014ca4 	.word	0x00014ca4
    c1dc:	00014fb8 	.word	0x00014fb8
    c1e0:	000122b8 	.word	0x000122b8
    c1e4:	00012b6c 	.word	0x00012b6c
    c1e8:	0001286c 	.word	0x0001286c
    c1ec:	00012990 	.word	0x00012990
    c1f0:	00012a80 	.word	0x00012a80
    c1f4:	00012a94 	.word	0x00012a94

0000c1f8 <fat32_rename>:
    c1f8:	e92d41f0 	push	{r4, r5, r6, r7, r8, lr}
    c1fc:	e24dd010 	sub	sp, sp, #16, 0
    c200:	e1a04003 	mov	r4, r3
    c204:	e59f30c4 	ldr	r3, [pc, #196]	; c2d0 <fat32_rename+0xd8>
    c208:	e5933000 	ldr	r3, [r3]
    c20c:	e3530000 	cmp	r3, #0, 0
    c210:	0a000008 	beq	c238 <fat32_rename+0x40>
    c214:	e1a05000 	mov	r5, r0
    c218:	e1a06001 	mov	r6, r1
    c21c:	e1a07002 	mov	r7, r2
    c220:	e1a00004 	mov	r0, r4
    c224:	eb000481 	bl	d430 <fat32_is_valid_name>
    c228:	e3500000 	cmp	r0, #0, 0
    c22c:	1a000009 	bne	c258 <fat32_rename+0x60>
    c230:	e28dd010 	add	sp, sp, #16, 0
    c234:	e8bd81f0 	pop	{r4, r5, r6, r7, r8, pc}
    c238:	e59f3094 	ldr	r3, [pc, #148]	; c2d4 <fat32_rename+0xdc>
    c23c:	e58d3000 	str	r3, [sp]
    c240:	e3a03f61 	mov	r3, #388	; 0x184
    c244:	e59f208c 	ldr	r2, [pc, #140]	; c2d8 <fat32_rename+0xe0>
    c248:	e59f108c 	ldr	r1, [pc, #140]	; c2dc <fat32_rename+0xe4>
    c24c:	e59f008c 	ldr	r0, [pc, #140]	; c2e0 <fat32_rename+0xe8>
    c250:	eb000f6b 	bl	10004 <printk>
    c254:	eb0010a4 	bl	104ec <clean_reboot>
    c258:	e28d200c 	add	r2, sp, #12, 0
    c25c:	e5961020 	ldr	r1, [r6, #32]
    c260:	e1a00005 	mov	r0, r5
    c264:	ebfffce6 	bl	b604 <get_dirents>
    c268:	e1a08000 	mov	r8, r0
    c26c:	e1a02004 	mov	r2, r4
    c270:	e59d100c 	ldr	r1, [sp, #12]
    c274:	ebfffd2f 	bl	b738 <find_dirent_with_name>
    c278:	e3500000 	cmp	r0, #0, 0
    c27c:	a3a00000 	movge	r0, #0, 0
    c280:	aaffffea 	bge	c230 <fat32_rename+0x38>
    c284:	e1a02007 	mov	r2, r7
    c288:	e59d100c 	ldr	r1, [sp, #12]
    c28c:	e1a00008 	mov	r0, r8
    c290:	ebfffd28 	bl	b738 <find_dirent_with_name>
    c294:	e3500000 	cmp	r0, #0, 0
    c298:	ba00000a 	blt	c2c8 <fat32_rename+0xd0>
    c29c:	e1a01004 	mov	r1, r4
    c2a0:	e0880280 	add	r0, r8, r0, lsl #5
    c2a4:	eb0004a5 	bl	d540 <fat32_dirent_set_name>
    c2a8:	e59d300c 	ldr	r3, [sp, #12]
    c2ac:	e1a03283 	lsl	r3, r3, #5
    c2b0:	e1a02008 	mov	r2, r8
    c2b4:	e5961020 	ldr	r1, [r6, #32]
    c2b8:	e1a00005 	mov	r0, r5
    c2bc:	ebfffd3e 	bl	b7bc <write_cluster_chain>
    c2c0:	e3a00001 	mov	r0, #1, 0
    c2c4:	eaffffd9 	b	c230 <fat32_rename+0x38>
    c2c8:	e3a00000 	mov	r0, #0, 0
    c2cc:	eaffffd7 	b	c230 <fat32_rename+0x38>
    c2d0:	00014ca4 	.word	0x00014ca4
    c2d4:	000122b8 	.word	0x000122b8
    c2d8:	00012b78 	.word	0x00012b78
    c2dc:	0001286c 	.word	0x0001286c
    c2e0:	00012990 	.word	0x00012990

0000c2e4 <fat32_create>:
    c2e4:	e92d43f0 	push	{r4, r5, r6, r7, r8, r9, lr}
    c2e8:	e24dd044 	sub	sp, sp, #68, 0	; 0x44
    c2ec:	e1a09003 	mov	r9, r3
    c2f0:	e59f3190 	ldr	r3, [pc, #400]	; c488 <fat32_create+0x1a4>
    c2f4:	e5933000 	ldr	r3, [r3]
    c2f8:	e3530000 	cmp	r3, #0, 0
    c2fc:	0a00001e 	beq	c37c <fat32_create+0x98>
    c300:	e1a07000 	mov	r7, r0
    c304:	e1a08001 	mov	r8, r1
    c308:	e1a06002 	mov	r6, r2
    c30c:	e1a00002 	mov	r0, r2
    c310:	eb000446 	bl	d430 <fat32_is_valid_name>
    c314:	e3500000 	cmp	r0, #0, 0
    c318:	0a000056 	beq	c478 <fat32_create+0x194>
    c31c:	e28d203c 	add	r2, sp, #60, 0	; 0x3c
    c320:	e5981020 	ldr	r1, [r8, #32]
    c324:	e1a00007 	mov	r0, r7
    c328:	ebfffcb5 	bl	b604 <get_dirents>
    c32c:	e1a05000 	mov	r5, r0
    c330:	e1a02006 	mov	r2, r6
    c334:	e59d103c 	ldr	r1, [sp, #60]	; 0x3c
    c338:	ebfffcfe 	bl	b738 <find_dirent_with_name>
    c33c:	e3500000 	cmp	r0, #0, 0
    c340:	aa00004e 	bge	c480 <fat32_create+0x19c>
    c344:	e3a0c000 	mov	ip, #0, 0
    c348:	e59d303c 	ldr	r3, [sp, #60]	; 0x3c
    c34c:	e153000c 	cmp	r3, ip
    c350:	9a000011 	bls	c39c <fat32_create+0xb8>
    c354:	e7d5228c 	ldrb	r2, [r5, ip, lsl #5]
    c358:	e35200e5 	cmp	r2, #229, 0	; 0xe5
    c35c:	13a03000 	movne	r3, #0, 0
    c360:	03a03001 	moveq	r3, #1, 0
    c364:	e3520000 	cmp	r2, #0, 0
    c368:	03a03001 	moveq	r3, #1, 0
    c36c:	e3530000 	cmp	r3, #0, 0
    c370:	1a00000a 	bne	c3a0 <fat32_create+0xbc>
    c374:	e28cc001 	add	ip, ip, #1, 0
    c378:	eafffff2 	b	c348 <fat32_create+0x64>
    c37c:	e59f3108 	ldr	r3, [pc, #264]	; c48c <fat32_create+0x1a8>
    c380:	e58d3000 	str	r3, [sp]
    c384:	e59f3104 	ldr	r3, [pc, #260]	; c490 <fat32_create+0x1ac>
    c388:	e59f2104 	ldr	r2, [pc, #260]	; c494 <fat32_create+0x1b0>
    c38c:	e59f1104 	ldr	r1, [pc, #260]	; c498 <fat32_create+0x1b4>
    c390:	e59f0104 	ldr	r0, [pc, #260]	; c49c <fat32_create+0x1b8>
    c394:	eb000f1a 	bl	10004 <printk>
    c398:	eb001053 	bl	104ec <clean_reboot>
    c39c:	e3e0c000 	mvn	ip, #0, 0
    c3a0:	e35c0000 	cmp	ip, #0, 0
    c3a4:	ba00002b 	blt	c458 <fat32_create+0x174>
    c3a8:	e085428c 	add	r4, r5, ip, lsl #5
    c3ac:	e3a02020 	mov	r2, #32, 0
    c3b0:	e3a01000 	mov	r1, #0, 0
    c3b4:	e1a00004 	mov	r0, r4
    c3b8:	eb000ed6 	bl	ff18 <memset>
    c3bc:	e1a01006 	mov	r1, r6
    c3c0:	e1a00004 	mov	r0, r4
    c3c4:	eb00045d 	bl	d540 <fat32_dirent_set_name>
    c3c8:	e3590000 	cmp	r9, #0, 0
    c3cc:	0a000027 	beq	c470 <fat32_create+0x18c>
    c3d0:	e3a03010 	mov	r3, #16, 0
    c3d4:	e5c4300b 	strb	r3, [r4, #11]
    c3d8:	e3a03000 	mov	r3, #0, 0
    c3dc:	e5c43014 	strb	r3, [r4, #20]
    c3e0:	e5c43015 	strb	r3, [r4, #21]
    c3e4:	e5c4301a 	strb	r3, [r4, #26]
    c3e8:	e5c4301b 	strb	r3, [r4, #27]
    c3ec:	e5c4301c 	strb	r3, [r4, #28]
    c3f0:	e5c4301d 	strb	r3, [r4, #29]
    c3f4:	e5c4301e 	strb	r3, [r4, #30]
    c3f8:	e5c4301f 	strb	r3, [r4, #31]
    c3fc:	e59d303c 	ldr	r3, [sp, #60]	; 0x3c
    c400:	e1a03283 	lsl	r3, r3, #5
    c404:	e1a02005 	mov	r2, r5
    c408:	e5981020 	ldr	r1, [r8, #32]
    c40c:	e1a00007 	mov	r0, r7
    c410:	ebfffce9 	bl	b7bc <write_cluster_chain>
    c414:	e3a0002c 	mov	r0, #44, 0	; 0x2c
    c418:	eb000d92 	bl	fa68 <kmalloc>
    c41c:	e1a05000 	mov	r5, r0
    c420:	e1a01004 	mov	r1, r4
    c424:	e28d0008 	add	r0, sp, #8, 0
    c428:	ebfffc93 	bl	b67c <dirent_convert>
    c42c:	e1a0e005 	mov	lr, r5
    c430:	e28dc008 	add	ip, sp, #8, 0
    c434:	e8bc000f 	ldm	ip!, {r0, r1, r2, r3}
    c438:	e8ae000f 	stmia	lr!, {r0, r1, r2, r3}
    c43c:	e8bc000f 	ldm	ip!, {r0, r1, r2, r3}
    c440:	e8ae000f 	stmia	lr!, {r0, r1, r2, r3}
    c444:	e89c0007 	ldm	ip, {r0, r1, r2}
    c448:	e88e0007 	stm	lr, {r0, r1, r2}
    c44c:	e1a00005 	mov	r0, r5
    c450:	e28dd044 	add	sp, sp, #68, 0	; 0x44
    c454:	e8bd83f0 	pop	{r4, r5, r6, r7, r8, r9, pc}
    c458:	e3a03e1b 	mov	r3, #432	; 0x1b0
    c45c:	e59f2030 	ldr	r2, [pc, #48]	; c494 <fat32_create+0x1b0>
    c460:	e59f1030 	ldr	r1, [pc, #48]	; c498 <fat32_create+0x1b4>
    c464:	e59f0034 	ldr	r0, [pc, #52]	; c4a0 <fat32_create+0x1bc>
    c468:	eb000ee5 	bl	10004 <printk>
    c46c:	eb00101e 	bl	104ec <clean_reboot>
    c470:	e3a03020 	mov	r3, #32, 0
    c474:	eaffffd6 	b	c3d4 <fat32_create+0xf0>
    c478:	e3a05000 	mov	r5, #0, 0
    c47c:	eafffff2 	b	c44c <fat32_create+0x168>
    c480:	e3a05000 	mov	r5, #0, 0
    c484:	eafffff0 	b	c44c <fat32_create+0x168>
    c488:	00014ca4 	.word	0x00014ca4
    c48c:	000122b8 	.word	0x000122b8
    c490:	0000019a 	.word	0x0000019a
    c494:	00012b88 	.word	0x00012b88
    c498:	0001286c 	.word	0x0001286c
    c49c:	00012990 	.word	0x00012990
    c4a0:	00012ae4 	.word	0x00012ae4

0000c4a4 <fat32_delete>:
    c4a4:	e92d40f0 	push	{r4, r5, r6, r7, lr}
    c4a8:	e24dd014 	sub	sp, sp, #20, 0
    c4ac:	e59f311c 	ldr	r3, [pc, #284]	; c5d0 <fat32_delete+0x12c>
    c4b0:	e5933000 	ldr	r3, [r3]
    c4b4:	e3530000 	cmp	r3, #0, 0
    c4b8:	0a000008 	beq	c4e0 <fat32_delete+0x3c>
    c4bc:	e1a05000 	mov	r5, r0
    c4c0:	e1a06001 	mov	r6, r1
    c4c4:	e1a04002 	mov	r4, r2
    c4c8:	e1a00002 	mov	r0, r2
    c4cc:	eb0003d7 	bl	d430 <fat32_is_valid_name>
    c4d0:	e3500000 	cmp	r0, #0, 0
    c4d4:	1a000009 	bne	c500 <fat32_delete+0x5c>
    c4d8:	e28dd014 	add	sp, sp, #20, 0
    c4dc:	e8bd80f0 	pop	{r4, r5, r6, r7, pc}
    c4e0:	e59f30ec 	ldr	r3, [pc, #236]	; c5d4 <fat32_delete+0x130>
    c4e4:	e58d3000 	str	r3, [sp]
    c4e8:	e59f30e8 	ldr	r3, [pc, #232]	; c5d8 <fat32_delete+0x134>
    c4ec:	e59f20e8 	ldr	r2, [pc, #232]	; c5dc <fat32_delete+0x138>
    c4f0:	e59f10e8 	ldr	r1, [pc, #232]	; c5e0 <fat32_delete+0x13c>
    c4f4:	e59f00e8 	ldr	r0, [pc, #232]	; c5e4 <fat32_delete+0x140>
    c4f8:	eb000ec1 	bl	10004 <printk>
    c4fc:	eb000ffa 	bl	104ec <clean_reboot>
    c500:	e28d200c 	add	r2, sp, #12, 0
    c504:	e5961020 	ldr	r1, [r6, #32]
    c508:	e1a00005 	mov	r0, r5
    c50c:	ebfffc3c 	bl	b604 <get_dirents>
    c510:	e1a07000 	mov	r7, r0
    c514:	e1a02004 	mov	r2, r4
    c518:	e59d100c 	ldr	r1, [sp, #12]
    c51c:	ebfffc85 	bl	b738 <find_dirent_with_name>
    c520:	e3500000 	cmp	r0, #0, 0
    c524:	ba000027 	blt	c5c8 <fat32_delete+0x124>
    c528:	e0873280 	add	r3, r7, r0, lsl #5
    c52c:	e3e0201a 	mvn	r2, #26, 0
    c530:	e7c72280 	strb	r2, [r7, r0, lsl #5]
    c534:	e5d34014 	ldrb	r4, [r3, #20]
    c538:	e5d32015 	ldrb	r2, [r3, #21]
    c53c:	e1842402 	orr	r2, r4, r2, lsl #8
    c540:	e5d3401a 	ldrb	r4, [r3, #26]
    c544:	e5d3301b 	ldrb	r3, [r3, #27]
    c548:	e1844403 	orr	r4, r4, r3, lsl #8
    c54c:	e1844802 	orr	r4, r4, r2, lsl #16
    c550:	e3540001 	cmp	r4, #1, 0
    c554:	9a00000d 	bls	c590 <fat32_delete+0xec>
    c558:	e1a00004 	mov	r0, r4
    c55c:	eb000301 	bl	d168 <fat32_fat_entry_type>
    c560:	e370027f 	cmn	r0, #-268435449	; 0xf0000007
    c564:	1a000005 	bne	c580 <fat32_delete+0xdc>
    c568:	e5953014 	ldr	r3, [r5, #20]
    c56c:	e1a02104 	lsl	r2, r4, #2
    c570:	e7934104 	ldr	r4, [r3, r4, lsl #2]
    c574:	e3a01000 	mov	r1, #0, 0
    c578:	e7831002 	str	r1, [r3, r2]
    c57c:	eafffff5 	b	c558 <fat32_delete+0xb4>
    c580:	e1a00004 	mov	r0, r4
    c584:	eb0002f7 	bl	d168 <fat32_fat_entry_type>
    c588:	e370028f 	cmn	r0, #-268435448	; 0xf0000008
    c58c:	0a000009 	beq	c5b8 <fat32_delete+0x114>
    c590:	e59d300c 	ldr	r3, [sp, #12]
    c594:	e1a03283 	lsl	r3, r3, #5
    c598:	e1a02007 	mov	r2, r7
    c59c:	e5961020 	ldr	r1, [r6, #32]
    c5a0:	e1a00005 	mov	r0, r5
    c5a4:	ebfffc84 	bl	b7bc <write_cluster_chain>
    c5a8:	e1a00005 	mov	r0, r5
    c5ac:	ebfffbb4 	bl	b484 <write_fat_to_disk>
    c5b0:	e3a00001 	mov	r0, #1, 0
    c5b4:	eaffffc7 	b	c4d8 <fat32_delete+0x34>
    c5b8:	e5953014 	ldr	r3, [r5, #20]
    c5bc:	e3a02000 	mov	r2, #0, 0
    c5c0:	e7832104 	str	r2, [r3, r4, lsl #2]
    c5c4:	eafffff1 	b	c590 <fat32_delete+0xec>
    c5c8:	e3a00000 	mov	r0, #0, 0
    c5cc:	eaffffc1 	b	c4d8 <fat32_delete+0x34>
    c5d0:	00014ca4 	.word	0x00014ca4
    c5d4:	000122b8 	.word	0x000122b8
    c5d8:	000001c6 	.word	0x000001c6
    c5dc:	00012b98 	.word	0x00012b98
    c5e0:	0001286c 	.word	0x0001286c
    c5e4:	00012990 	.word	0x00012990

0000c5e8 <fat32_truncate>:
    c5e8:	e92d43f0 	push	{r4, r5, r6, r7, r8, r9, lr}
    c5ec:	e24dd014 	sub	sp, sp, #20, 0
    c5f0:	e1a09003 	mov	r9, r3
    c5f4:	e59f3170 	ldr	r3, [pc, #368]	; c76c <fat32_truncate+0x184>
    c5f8:	e5933000 	ldr	r3, [r3]
    c5fc:	e3530000 	cmp	r3, #0, 0
    c600:	0a00002e 	beq	c6c0 <fat32_truncate+0xd8>
    c604:	e1a06000 	mov	r6, r0
    c608:	e1a07001 	mov	r7, r1
    c60c:	e1a04002 	mov	r4, r2
    c610:	e28d200c 	add	r2, sp, #12, 0
    c614:	e5911020 	ldr	r1, [r1, #32]
    c618:	ebfffbf9 	bl	b604 <get_dirents>
    c61c:	e1a08000 	mov	r8, r0
    c620:	e1a02004 	mov	r2, r4
    c624:	e59d100c 	ldr	r1, [sp, #12]
    c628:	ebfffc42 	bl	b738 <find_dirent_with_name>
    c62c:	e3500000 	cmp	r0, #0, 0
    c630:	ba00004b 	blt	c764 <fat32_truncate+0x17c>
    c634:	e0884280 	add	r4, r8, r0, lsl #5
    c638:	e5d45014 	ldrb	r5, [r4, #20]
    c63c:	e5d43015 	ldrb	r3, [r4, #21]
    c640:	e1853403 	orr	r3, r5, r3, lsl #8
    c644:	e5d4501a 	ldrb	r5, [r4, #26]
    c648:	e5d4201b 	ldrb	r2, [r4, #27]
    c64c:	e1855402 	orr	r5, r5, r2, lsl #8
    c650:	e1855803 	orr	r5, r5, r3, lsl #16
    c654:	e3590000 	cmp	r9, #0, 0
    c658:	1a000030 	bne	c720 <fat32_truncate+0x138>
    c65c:	e3550001 	cmp	r5, #1, 0
    c660:	8a000023 	bhi	c6f4 <fat32_truncate+0x10c>
    c664:	e3a03000 	mov	r3, #0, 0
    c668:	e5c43014 	strb	r3, [r4, #20]
    c66c:	e5c43015 	strb	r3, [r4, #21]
    c670:	e5c4301a 	strb	r3, [r4, #26]
    c674:	e5c4301b 	strb	r3, [r4, #27]
    c678:	e5c4901c 	strb	r9, [r4, #28]
    c67c:	e1a03429 	lsr	r3, r9, #8
    c680:	e5c4301d 	strb	r3, [r4, #29]
    c684:	e1a03829 	lsr	r3, r9, #16
    c688:	e5c4301e 	strb	r3, [r4, #30]
    c68c:	e1a03c29 	lsr	r3, r9, #24
    c690:	e5c4301f 	strb	r3, [r4, #31]
    c694:	e1a00006 	mov	r0, r6
    c698:	ebfffb79 	bl	b484 <write_fat_to_disk>
    c69c:	e59d300c 	ldr	r3, [sp, #12]
    c6a0:	e1a03283 	lsl	r3, r3, #5
    c6a4:	e1a02008 	mov	r2, r8
    c6a8:	e5971020 	ldr	r1, [r7, #32]
    c6ac:	e1a00006 	mov	r0, r6
    c6b0:	ebfffc41 	bl	b7bc <write_cluster_chain>
    c6b4:	e3a00001 	mov	r0, #1, 0
    c6b8:	e28dd014 	add	sp, sp, #20, 0
    c6bc:	e8bd83f0 	pop	{r4, r5, r6, r7, r8, r9, pc}
    c6c0:	e59f30a8 	ldr	r3, [pc, #168]	; c770 <fat32_truncate+0x188>
    c6c4:	e58d3000 	str	r3, [sp]
    c6c8:	e59f30a4 	ldr	r3, [pc, #164]	; c774 <fat32_truncate+0x18c>
    c6cc:	e59f20a4 	ldr	r2, [pc, #164]	; c778 <fat32_truncate+0x190>
    c6d0:	e59f10a4 	ldr	r1, [pc, #164]	; c77c <fat32_truncate+0x194>
    c6d4:	e59f00a4 	ldr	r0, [pc, #164]	; c780 <fat32_truncate+0x198>
    c6d8:	eb000e49 	bl	10004 <printk>
    c6dc:	eb000f82 	bl	104ec <clean_reboot>
    c6e0:	e5962014 	ldr	r2, [r6, #20]
    c6e4:	e1a03105 	lsl	r3, r5, #2
    c6e8:	e7925105 	ldr	r5, [r2, r5, lsl #2]
    c6ec:	e3a01000 	mov	r1, #0, 0
    c6f0:	e7821003 	str	r1, [r2, r3]
    c6f4:	e1a00005 	mov	r0, r5
    c6f8:	eb00029a 	bl	d168 <fat32_fat_entry_type>
    c6fc:	e370027f 	cmn	r0, #-268435449	; 0xf0000007
    c700:	0afffff6 	beq	c6e0 <fat32_truncate+0xf8>
    c704:	e1a00005 	mov	r0, r5
    c708:	eb000296 	bl	d168 <fat32_fat_entry_type>
    c70c:	e370028f 	cmn	r0, #-268435448	; 0xf0000008
    c710:	05963014 	ldreq	r3, [r6, #20]
    c714:	03a02000 	moveq	r2, #0, 0
    c718:	07832105 	streq	r2, [r3, r5, lsl #2]
    c71c:	eaffffd0 	b	c664 <fat32_truncate+0x7c>
    c720:	e3550001 	cmp	r5, #1, 0
    c724:	8affffd3 	bhi	c678 <fat32_truncate+0x90>
    c728:	e3a01003 	mov	r1, #3, 0
    c72c:	e1a00006 	mov	r0, r6
    c730:	ebfffb7a 	bl	b520 <find_free_cluster>
    c734:	e5963014 	ldr	r3, [r6, #20]
    c738:	e3e0220f 	mvn	r2, #-268435456	; 0xf0000000
    c73c:	e7832100 	str	r2, [r3, r0, lsl #2]
    c740:	e1a03820 	lsr	r3, r0, #16
    c744:	e5c43014 	strb	r3, [r4, #20]
    c748:	e1a03423 	lsr	r3, r3, #8
    c74c:	e5c43015 	strb	r3, [r4, #21]
    c750:	e6ff3070 	uxth	r3, r0
    c754:	e5c4001a 	strb	r0, [r4, #26]
    c758:	e1a03423 	lsr	r3, r3, #8
    c75c:	e5c4301b 	strb	r3, [r4, #27]
    c760:	eaffffc4 	b	c678 <fat32_truncate+0x90>
    c764:	e3a00000 	mov	r0, #0, 0
    c768:	eaffffd2 	b	c6b8 <fat32_truncate+0xd0>
    c76c:	00014ca4 	.word	0x00014ca4
    c770:	000122b8 	.word	0x000122b8
    c774:	000001ea 	.word	0x000001ea
    c778:	00012ba8 	.word	0x00012ba8
    c77c:	0001286c 	.word	0x0001286c
    c780:	00012990 	.word	0x00012990

0000c784 <fat32_write>:
    c784:	e92d41f0 	push	{r4, r5, r6, r7, r8, lr}
    c788:	e24dd010 	sub	sp, sp, #16, 0
    c78c:	e1a07003 	mov	r7, r3
    c790:	e59f3160 	ldr	r3, [pc, #352]	; c8f8 <fat32_write+0x174>
    c794:	e5933000 	ldr	r3, [r3]
    c798:	e3530000 	cmp	r3, #0, 0
    c79c:	0a00002c 	beq	c854 <fat32_write+0xd0>
    c7a0:	e1a06000 	mov	r6, r0
    c7a4:	e1a05001 	mov	r5, r1
    c7a8:	e1a04002 	mov	r4, r2
    c7ac:	e5913024 	ldr	r3, [r1, #36]	; 0x24
    c7b0:	e3530000 	cmp	r3, #0, 0
    c7b4:	0a00002e 	beq	c874 <fat32_write+0xf0>
    c7b8:	e28d200c 	add	r2, sp, #12, 0
    c7bc:	e5911020 	ldr	r1, [r1, #32]
    c7c0:	ebfffb8f 	bl	b604 <get_dirents>
    c7c4:	e1a08000 	mov	r8, r0
    c7c8:	e1a02004 	mov	r2, r4
    c7cc:	e59d100c 	ldr	r1, [sp, #12]
    c7d0:	ebfffbd8 	bl	b738 <find_dirent_with_name>
    c7d4:	e3500000 	cmp	r0, #0, 0
    c7d8:	ba000044 	blt	c8f0 <fat32_write+0x16c>
    c7dc:	e0884280 	add	r4, r8, r0, lsl #5
    c7e0:	e5d41014 	ldrb	r1, [r4, #20]
    c7e4:	e5d40015 	ldrb	r0, [r4, #21]
    c7e8:	e1810400 	orr	r0, r1, r0, lsl #8
    c7ec:	e5d4101a 	ldrb	r1, [r4, #26]
    c7f0:	e5d4301b 	ldrb	r3, [r4, #27]
    c7f4:	e1811403 	orr	r1, r1, r3, lsl #8
    c7f8:	e1811800 	orr	r1, r1, r0, lsl #16
    c7fc:	e3510001 	cmp	r1, #1, 0
    c800:	9a000023 	bls	c894 <fat32_write+0x110>
    c804:	e5972008 	ldr	r2, [r7, #8]
    c808:	e5c4201c 	strb	r2, [r4, #28]
    c80c:	e1a03422 	lsr	r3, r2, #8
    c810:	e5c4301d 	strb	r3, [r4, #29]
    c814:	e1a03822 	lsr	r3, r2, #16
    c818:	e5c4301e 	strb	r3, [r4, #30]
    c81c:	e1a02c22 	lsr	r2, r2, #24
    c820:	e5c4201f 	strb	r2, [r4, #31]
    c824:	e5973008 	ldr	r3, [r7, #8]
    c828:	e3530000 	cmp	r3, #0, 0
    c82c:	1a00002b 	bne	c8e0 <fat32_write+0x15c>
    c830:	e59d300c 	ldr	r3, [sp, #12]
    c834:	e1a03283 	lsl	r3, r3, #5
    c838:	e1a02008 	mov	r2, r8
    c83c:	e5951020 	ldr	r1, [r5, #32]
    c840:	e1a00006 	mov	r0, r6
    c844:	ebfffbdc 	bl	b7bc <write_cluster_chain>
    c848:	e3a00001 	mov	r0, #1, 0
    c84c:	e28dd010 	add	sp, sp, #16, 0
    c850:	e8bd81f0 	pop	{r4, r5, r6, r7, r8, pc}
    c854:	e59f30a0 	ldr	r3, [pc, #160]	; c8fc <fat32_write+0x178>
    c858:	e58d3000 	str	r3, [sp]
    c85c:	e59f309c 	ldr	r3, [pc, #156]	; c900 <fat32_write+0x17c>
    c860:	e59f209c 	ldr	r2, [pc, #156]	; c904 <fat32_write+0x180>
    c864:	e59f109c 	ldr	r1, [pc, #156]	; c908 <fat32_write+0x184>
    c868:	e59f009c 	ldr	r0, [pc, #156]	; c90c <fat32_write+0x188>
    c86c:	eb000de4 	bl	10004 <printk>
    c870:	eb000f1d 	bl	104ec <clean_reboot>
    c874:	e59f3094 	ldr	r3, [pc, #148]	; c910 <fat32_write+0x18c>
    c878:	e58d3000 	str	r3, [sp]
    c87c:	e59f3090 	ldr	r3, [pc, #144]	; c914 <fat32_write+0x190>
    c880:	e59f207c 	ldr	r2, [pc, #124]	; c904 <fat32_write+0x180>
    c884:	e59f107c 	ldr	r1, [pc, #124]	; c908 <fat32_write+0x184>
    c888:	e59f0088 	ldr	r0, [pc, #136]	; c918 <fat32_write+0x194>
    c88c:	eb000ddc 	bl	10004 <printk>
    c890:	eb000f15 	bl	104ec <clean_reboot>
    c894:	e5973008 	ldr	r3, [r7, #8]
    c898:	e3530000 	cmp	r3, #0, 0
    c89c:	0affffd8 	beq	c804 <fat32_write+0x80>
    c8a0:	e3a01003 	mov	r1, #3, 0
    c8a4:	e1a00006 	mov	r0, r6
    c8a8:	ebfffb1c 	bl	b520 <find_free_cluster>
    c8ac:	e1a01000 	mov	r1, r0
    c8b0:	e5963014 	ldr	r3, [r6, #20]
    c8b4:	e3e0220f 	mvn	r2, #-268435456	; 0xf0000000
    c8b8:	e7832100 	str	r2, [r3, r0, lsl #2]
    c8bc:	e1a03820 	lsr	r3, r0, #16
    c8c0:	e5c43014 	strb	r3, [r4, #20]
    c8c4:	e1a03423 	lsr	r3, r3, #8
    c8c8:	e5c43015 	strb	r3, [r4, #21]
    c8cc:	e6ff3070 	uxth	r3, r0
    c8d0:	e5c4001a 	strb	r0, [r4, #26]
    c8d4:	e1a03423 	lsr	r3, r3, #8
    c8d8:	e5c4301b 	strb	r3, [r4, #27]
    c8dc:	eaffffc8 	b	c804 <fat32_write+0x80>
    c8e0:	e5972000 	ldr	r2, [r7]
    c8e4:	e1a00006 	mov	r0, r6
    c8e8:	ebfffbb3 	bl	b7bc <write_cluster_chain>
    c8ec:	eaffffcf 	b	c830 <fat32_write+0xac>
    c8f0:	e3a00000 	mov	r0, #0, 0
    c8f4:	eaffffd4 	b	c84c <fat32_write+0xc8>
    c8f8:	00014ca4 	.word	0x00014ca4
    c8fc:	000122b8 	.word	0x000122b8
    c900:	00000212 	.word	0x00000212
    c904:	00012bb8 	.word	0x00012bb8
    c908:	0001286c 	.word	0x0001286c
    c90c:	00012990 	.word	0x00012990
    c910:	00012a80 	.word	0x00012a80
    c914:	00000213 	.word	0x00000213
    c918:	00012a94 	.word	0x00012a94

0000c91c <fat32_flush>:
    c91c:	e59f3038 	ldr	r3, [pc, #56]	; c95c <fat32_flush+0x40>
    c920:	e5933000 	ldr	r3, [r3]
    c924:	e3530000 	cmp	r3, #0, 0
    c928:	0a000001 	beq	c934 <fat32_flush+0x18>
    c92c:	e3a00000 	mov	r0, #0, 0
    c930:	e12fff1e 	bx	lr
    c934:	e52de004 	push	{lr}		; (str lr, [sp, #-4]!)
    c938:	e24dd00c 	sub	sp, sp, #12, 0
    c93c:	e59f301c 	ldr	r3, [pc, #28]	; c960 <fat32_flush+0x44>
    c940:	e58d3000 	str	r3, [sp]
    c944:	e59f3018 	ldr	r3, [pc, #24]	; c964 <fat32_flush+0x48>
    c948:	e59f2018 	ldr	r2, [pc, #24]	; c968 <fat32_flush+0x4c>
    c94c:	e59f1018 	ldr	r1, [pc, #24]	; c96c <fat32_flush+0x50>
    c950:	e59f0018 	ldr	r0, [pc, #24]	; c970 <fat32_flush+0x54>
    c954:	eb000daa 	bl	10004 <printk>
    c958:	eb000ee3 	bl	104ec <clean_reboot>
    c95c:	00014ca4 	.word	0x00014ca4
    c960:	000122b8 	.word	0x000122b8
    c964:	00000232 	.word	0x00000232
    c968:	00012bc4 	.word	0x00012bc4
    c96c:	0001286c 	.word	0x0001286c
    c970:	00012990 	.word	0x00012990

0000c974 <to_8dot3>:
    c974:	e92d4010 	push	{r4, lr}
    c978:	e1a04000 	mov	r4, r0
    c97c:	e3a02008 	mov	r2, #8, 0
    c980:	e1a01000 	mov	r1, r0
    c984:	e59f0070 	ldr	r0, [pc, #112]	; c9fc <to_8dot3+0x88>
    c988:	eb000d2b 	bl	fe3c <memcpy>
    c98c:	e3a03007 	mov	r3, #7, 0
    c990:	ea000000 	b	c998 <to_8dot3+0x24>
    c994:	e2433001 	sub	r3, r3, #1, 0
    c998:	e3530000 	cmp	r3, #0, 0
    c99c:	ba000004 	blt	c9b4 <to_8dot3+0x40>
    c9a0:	e59f2054 	ldr	r2, [pc, #84]	; c9fc <to_8dot3+0x88>
    c9a4:	e7d22003 	ldrb	r2, [r2, r3]
    c9a8:	e3520020 	cmp	r2, #32, 0
    c9ac:	0afffff8 	beq	c994 <to_8dot3+0x20>
    c9b0:	e2833001 	add	r3, r3, #1, 0
    c9b4:	e2832001 	add	r2, r3, #1, 0
    c9b8:	e59f103c 	ldr	r1, [pc, #60]	; c9fc <to_8dot3+0x88>
    c9bc:	e3a0002e 	mov	r0, #46, 0	; 0x2e
    c9c0:	e7c10003 	strb	r0, [r1, r3]
    c9c4:	e3a03000 	mov	r3, #0, 0
    c9c8:	e3530002 	cmp	r3, #2, 0
    c9cc:	ca000006 	bgt	c9ec <to_8dot3+0x78>
    c9d0:	e0841003 	add	r1, r4, r3
    c9d4:	e5d10008 	ldrb	r0, [r1, #8]
    c9d8:	e59f101c 	ldr	r1, [pc, #28]	; c9fc <to_8dot3+0x88>
    c9dc:	e7c10002 	strb	r0, [r1, r2]
    c9e0:	e2833001 	add	r3, r3, #1, 0
    c9e4:	e2822001 	add	r2, r2, #1, 0
    c9e8:	eafffff6 	b	c9c8 <to_8dot3+0x54>
    c9ec:	e59f0008 	ldr	r0, [pc, #8]	; c9fc <to_8dot3+0x88>
    c9f0:	e3a03000 	mov	r3, #0, 0
    c9f4:	e7c03002 	strb	r3, [r0, r2]
    c9f8:	e8bd8010 	pop	{r4, pc}
    c9fc:	00014ca8 	.word	0x00014ca8

0000ca00 <add_nul>:
    ca00:	e92d4070 	push	{r4, r5, r6, lr}
    ca04:	e1a01000 	mov	r1, r0
    ca08:	e59f501c 	ldr	r5, [pc, #28]	; ca2c <add_nul+0x2c>
    ca0c:	e2854010 	add	r4, r5, #16, 0
    ca10:	e3a0200b 	mov	r2, #11, 0
    ca14:	e1a00004 	mov	r0, r4
    ca18:	eb000d07 	bl	fe3c <memcpy>
    ca1c:	e3a03000 	mov	r3, #0, 0
    ca20:	e5c5301b 	strb	r3, [r5, #27]
    ca24:	e1a00004 	mov	r0, r4
    ca28:	e8bd8070 	pop	{r4, r5, r6, pc}
    ca2c:	00014ca8 	.word	0x00014ca8

0000ca30 <fat32_volume_id_check>:
    ca30:	e52de004 	push	{lr}		; (str lr, [sp, #-4]!)
    ca34:	e24dd00c 	sub	sp, sp, #12, 0
    ca38:	e5d0300b 	ldrb	r3, [r0, #11]
    ca3c:	e5d0200c 	ldrb	r2, [r0, #12]
    ca40:	e1833402 	orr	r3, r3, r2, lsl #8
    ca44:	e3530c02 	cmp	r3, #512	; 0x200
    ca48:	1a000035 	bne	cb24 <fat32_volume_id_check+0xf4>
    ca4c:	e5d02010 	ldrb	r2, [r0, #16]
    ca50:	e3520002 	cmp	r2, #2, 0
    ca54:	1a00003a 	bne	cb44 <fat32_volume_id_check+0x114>
    ca58:	e5d021fe 	ldrb	r2, [r0, #510]	; 0x1fe
    ca5c:	e5d011ff 	ldrb	r1, [r0, #511]	; 0x1ff
    ca60:	e1822401 	orr	r2, r2, r1, lsl #8
    ca64:	e59f1238 	ldr	r1, [pc, #568]	; cca4 <fat32_volume_id_check+0x274>
    ca68:	e1520001 	cmp	r2, r1
    ca6c:	1a00003c 	bne	cb64 <fat32_volume_id_check+0x134>
    ca70:	e5d0200d 	ldrb	r2, [r0, #13]
    ca74:	e2621000 	rsb	r1, r2, #0, 0
    ca78:	e1d22001 	bics	r2, r2, r1
    ca7c:	1a000040 	bne	cb84 <fat32_volume_id_check+0x154>
    ca80:	e3530b01 	cmp	r3, #1024	; 0x400
    ca84:	13530c02 	cmpne	r3, #512	; 0x200
    ca88:	0a000002 	beq	ca98 <fat32_volume_id_check+0x68>
    ca8c:	e3530a01 	cmp	r3, #4096	; 0x1000
    ca90:	13530b02 	cmpne	r3, #2048	; 0x800
    ca94:	1a000042 	bne	cba4 <fat32_volume_id_check+0x174>
    ca98:	e5d03011 	ldrb	r3, [r0, #17]
    ca9c:	e5d02012 	ldrb	r2, [r0, #18]
    caa0:	e1933402 	orrs	r3, r3, r2, lsl #8
    caa4:	1a000046 	bne	cbc4 <fat32_volume_id_check+0x194>
    caa8:	e5d03013 	ldrb	r3, [r0, #19]
    caac:	e5d02014 	ldrb	r2, [r0, #20]
    cab0:	e1933402 	orrs	r3, r3, r2, lsl #8
    cab4:	1a00004a 	bne	cbe4 <fat32_volume_id_check+0x1b4>
    cab8:	e5d03016 	ldrb	r3, [r0, #22]
    cabc:	e5d02017 	ldrb	r2, [r0, #23]
    cac0:	e1933402 	orrs	r3, r3, r2, lsl #8
    cac4:	1a00004e 	bne	cc04 <fat32_volume_id_check+0x1d4>
    cac8:	e5d03020 	ldrb	r3, [r0, #32]
    cacc:	e5d02021 	ldrb	r2, [r0, #33]	; 0x21
    cad0:	e1833402 	orr	r3, r3, r2, lsl #8
    cad4:	e5d02022 	ldrb	r2, [r0, #34]	; 0x22
    cad8:	e1833802 	orr	r3, r3, r2, lsl #16
    cadc:	e5d02023 	ldrb	r2, [r0, #35]	; 0x23
    cae0:	e1933c02 	orrs	r3, r3, r2, lsl #24
    cae4:	0a00004e 	beq	cc24 <fat32_volume_id_check+0x1f4>
    cae8:	e5d03030 	ldrb	r3, [r0, #48]	; 0x30
    caec:	e5d02031 	ldrb	r2, [r0, #49]	; 0x31
    caf0:	e1833402 	orr	r3, r3, r2, lsl #8
    caf4:	e3530001 	cmp	r3, #1, 0
    caf8:	1a000051 	bne	cc44 <fat32_volume_id_check+0x214>
    cafc:	e5d03032 	ldrb	r3, [r0, #50]	; 0x32
    cb00:	e5d02033 	ldrb	r2, [r0, #51]	; 0x33
    cb04:	e1833402 	orr	r3, r3, r2, lsl #8
    cb08:	e3530006 	cmp	r3, #6, 0
    cb0c:	1a000054 	bne	cc64 <fat32_volume_id_check+0x234>
    cb10:	e5d03042 	ldrb	r3, [r0, #66]	; 0x42
    cb14:	e3530029 	cmp	r3, #41, 0	; 0x29
    cb18:	1a000059 	bne	cc84 <fat32_volume_id_check+0x254>
    cb1c:	e28dd00c 	add	sp, sp, #12, 0
    cb20:	e49df004 	pop	{pc}		; (ldr pc, [sp], #4)
    cb24:	e59f317c 	ldr	r3, [pc, #380]	; cca8 <fat32_volume_id_check+0x278>
    cb28:	e58d3000 	str	r3, [sp]
    cb2c:	e3a0300f 	mov	r3, #15, 0
    cb30:	e59f2174 	ldr	r2, [pc, #372]	; ccac <fat32_volume_id_check+0x27c>
    cb34:	e59f1174 	ldr	r1, [pc, #372]	; ccb0 <fat32_volume_id_check+0x280>
    cb38:	e59f0174 	ldr	r0, [pc, #372]	; ccb4 <fat32_volume_id_check+0x284>
    cb3c:	eb000d30 	bl	10004 <printk>
    cb40:	eb000e69 	bl	104ec <clean_reboot>
    cb44:	e59f316c 	ldr	r3, [pc, #364]	; ccb8 <fat32_volume_id_check+0x288>
    cb48:	e58d3000 	str	r3, [sp]
    cb4c:	e3a03010 	mov	r3, #16, 0
    cb50:	e59f2154 	ldr	r2, [pc, #340]	; ccac <fat32_volume_id_check+0x27c>
    cb54:	e59f1154 	ldr	r1, [pc, #340]	; ccb0 <fat32_volume_id_check+0x280>
    cb58:	e59f0154 	ldr	r0, [pc, #340]	; ccb4 <fat32_volume_id_check+0x284>
    cb5c:	eb000d28 	bl	10004 <printk>
    cb60:	eb000e61 	bl	104ec <clean_reboot>
    cb64:	e59f3150 	ldr	r3, [pc, #336]	; ccbc <fat32_volume_id_check+0x28c>
    cb68:	e58d3000 	str	r3, [sp]
    cb6c:	e3a03011 	mov	r3, #17, 0
    cb70:	e59f2134 	ldr	r2, [pc, #308]	; ccac <fat32_volume_id_check+0x27c>
    cb74:	e59f1134 	ldr	r1, [pc, #308]	; ccb0 <fat32_volume_id_check+0x280>
    cb78:	e59f0134 	ldr	r0, [pc, #308]	; ccb4 <fat32_volume_id_check+0x284>
    cb7c:	eb000d20 	bl	10004 <printk>
    cb80:	eb000e59 	bl	104ec <clean_reboot>
    cb84:	e59f3134 	ldr	r3, [pc, #308]	; ccc0 <fat32_volume_id_check+0x290>
    cb88:	e58d3000 	str	r3, [sp]
    cb8c:	e3a03013 	mov	r3, #19, 0
    cb90:	e59f2114 	ldr	r2, [pc, #276]	; ccac <fat32_volume_id_check+0x27c>
    cb94:	e59f1114 	ldr	r1, [pc, #276]	; ccb0 <fat32_volume_id_check+0x280>
    cb98:	e59f0114 	ldr	r0, [pc, #276]	; ccb4 <fat32_volume_id_check+0x284>
    cb9c:	eb000d18 	bl	10004 <printk>
    cba0:	eb000e51 	bl	104ec <clean_reboot>
    cba4:	e59f3118 	ldr	r3, [pc, #280]	; ccc4 <fat32_volume_id_check+0x294>
    cba8:	e58d3000 	str	r3, [sp]
    cbac:	e3a03015 	mov	r3, #21, 0
    cbb0:	e59f20f4 	ldr	r2, [pc, #244]	; ccac <fat32_volume_id_check+0x27c>
    cbb4:	e59f10f4 	ldr	r1, [pc, #244]	; ccb0 <fat32_volume_id_check+0x280>
    cbb8:	e59f00f4 	ldr	r0, [pc, #244]	; ccb4 <fat32_volume_id_check+0x284>
    cbbc:	eb000d10 	bl	10004 <printk>
    cbc0:	eb000e49 	bl	104ec <clean_reboot>
    cbc4:	e59f30fc 	ldr	r3, [pc, #252]	; ccc8 <fat32_volume_id_check+0x298>
    cbc8:	e58d3000 	str	r3, [sp]
    cbcc:	e3a03016 	mov	r3, #22, 0
    cbd0:	e59f20d4 	ldr	r2, [pc, #212]	; ccac <fat32_volume_id_check+0x27c>
    cbd4:	e59f10d4 	ldr	r1, [pc, #212]	; ccb0 <fat32_volume_id_check+0x280>
    cbd8:	e59f00d4 	ldr	r0, [pc, #212]	; ccb4 <fat32_volume_id_check+0x284>
    cbdc:	eb000d08 	bl	10004 <printk>
    cbe0:	eb000e41 	bl	104ec <clean_reboot>
    cbe4:	e59f30e0 	ldr	r3, [pc, #224]	; cccc <fat32_volume_id_check+0x29c>
    cbe8:	e58d3000 	str	r3, [sp]
    cbec:	e3a03018 	mov	r3, #24, 0
    cbf0:	e59f20b4 	ldr	r2, [pc, #180]	; ccac <fat32_volume_id_check+0x27c>
    cbf4:	e59f10b4 	ldr	r1, [pc, #180]	; ccb0 <fat32_volume_id_check+0x280>
    cbf8:	e59f00b4 	ldr	r0, [pc, #180]	; ccb4 <fat32_volume_id_check+0x284>
    cbfc:	eb000d00 	bl	10004 <printk>
    cc00:	eb000e39 	bl	104ec <clean_reboot>
    cc04:	e59f30c4 	ldr	r3, [pc, #196]	; ccd0 <fat32_volume_id_check+0x2a0>
    cc08:	e58d3000 	str	r3, [sp]
    cc0c:	e3a0301b 	mov	r3, #27, 0
    cc10:	e59f2094 	ldr	r2, [pc, #148]	; ccac <fat32_volume_id_check+0x27c>
    cc14:	e59f1094 	ldr	r1, [pc, #148]	; ccb0 <fat32_volume_id_check+0x280>
    cc18:	e59f0094 	ldr	r0, [pc, #148]	; ccb4 <fat32_volume_id_check+0x284>
    cc1c:	eb000cf8 	bl	10004 <printk>
    cc20:	eb000e31 	bl	104ec <clean_reboot>
    cc24:	e59f30a8 	ldr	r3, [pc, #168]	; ccd4 <fat32_volume_id_check+0x2a4>
    cc28:	e58d3000 	str	r3, [sp]
    cc2c:	e3a0301c 	mov	r3, #28, 0
    cc30:	e59f2074 	ldr	r2, [pc, #116]	; ccac <fat32_volume_id_check+0x27c>
    cc34:	e59f1074 	ldr	r1, [pc, #116]	; ccb0 <fat32_volume_id_check+0x280>
    cc38:	e59f0074 	ldr	r0, [pc, #116]	; ccb4 <fat32_volume_id_check+0x284>
    cc3c:	eb000cf0 	bl	10004 <printk>
    cc40:	eb000e29 	bl	104ec <clean_reboot>
    cc44:	e59f308c 	ldr	r3, [pc, #140]	; ccd8 <fat32_volume_id_check+0x2a8>
    cc48:	e58d3000 	str	r3, [sp]
    cc4c:	e3a0301f 	mov	r3, #31, 0
    cc50:	e59f2054 	ldr	r2, [pc, #84]	; ccac <fat32_volume_id_check+0x27c>
    cc54:	e59f1054 	ldr	r1, [pc, #84]	; ccb0 <fat32_volume_id_check+0x280>
    cc58:	e59f0054 	ldr	r0, [pc, #84]	; ccb4 <fat32_volume_id_check+0x284>
    cc5c:	eb000ce8 	bl	10004 <printk>
    cc60:	eb000e21 	bl	104ec <clean_reboot>
    cc64:	e59f3070 	ldr	r3, [pc, #112]	; ccdc <fat32_volume_id_check+0x2ac>
    cc68:	e58d3000 	str	r3, [sp]
    cc6c:	e3a03020 	mov	r3, #32, 0
    cc70:	e59f2034 	ldr	r2, [pc, #52]	; ccac <fat32_volume_id_check+0x27c>
    cc74:	e59f1034 	ldr	r1, [pc, #52]	; ccb0 <fat32_volume_id_check+0x280>
    cc78:	e59f0034 	ldr	r0, [pc, #52]	; ccb4 <fat32_volume_id_check+0x284>
    cc7c:	eb000ce0 	bl	10004 <printk>
    cc80:	eb000e19 	bl	104ec <clean_reboot>
    cc84:	e59f3054 	ldr	r3, [pc, #84]	; cce0 <fat32_volume_id_check+0x2b0>
    cc88:	e58d3000 	str	r3, [sp]
    cc8c:	e3a03021 	mov	r3, #33, 0	; 0x21
    cc90:	e59f2014 	ldr	r2, [pc, #20]	; ccac <fat32_volume_id_check+0x27c>
    cc94:	e59f1014 	ldr	r1, [pc, #20]	; ccb0 <fat32_volume_id_check+0x280>
    cc98:	e59f0014 	ldr	r0, [pc, #20]	; ccb4 <fat32_volume_id_check+0x284>
    cc9c:	eb000cd8 	bl	10004 <printk>
    cca0:	eb000e11 	bl	104ec <clean_reboot>
    cca4:	0000aa55 	.word	0x0000aa55
    cca8:	00012bec 	.word	0x00012bec
    ccac:	0001334c 	.word	0x0001334c
    ccb0:	00012bd0 	.word	0x00012bd0
    ccb4:	00011458 	.word	0x00011458
    ccb8:	00012c04 	.word	0x00012c04
    ccbc:	00012c14 	.word	0x00012c14
    ccc0:	00012c28 	.word	0x00012c28
    ccc4:	00012c44 	.word	0x00012c44
    ccc8:	00012c74 	.word	0x00012c74
    cccc:	00012c84 	.word	0x00012c84
    ccd0:	00012c94 	.word	0x00012c94
    ccd4:	00012ca4 	.word	0x00012ca4
    ccd8:	00012cb8 	.word	0x00012cb8
    ccdc:	00012cd0 	.word	0x00012cd0
    cce0:	00012ce8 	.word	0x00012ce8

0000cce4 <fat32_volume_id_print>:
    cce4:	e92d4030 	push	{r4, r5, lr}
    cce8:	e24dd02c 	sub	sp, sp, #44, 0	; 0x2c
    ccec:	e1a04001 	mov	r4, r1
    ccf0:	e1a01000 	mov	r1, r0
    ccf4:	e59f0240 	ldr	r0, [pc, #576]	; cf3c <fat32_volume_id_print+0x258>
    ccf8:	eb000cc1 	bl	10004 <printk>
    ccfc:	e3a02008 	mov	r2, #8, 0
    cd00:	e2841003 	add	r1, r4, #3, 0
    cd04:	e28d001c 	add	r0, sp, #28, 0
    cd08:	eb000c4b 	bl	fe3c <memcpy>
    cd0c:	e3a05000 	mov	r5, #0, 0
    cd10:	e5cd5024 	strb	r5, [sp, #36]	; 0x24
    cd14:	e3a0200b 	mov	r2, #11, 0
    cd18:	e2841047 	add	r1, r4, #71, 0	; 0x47
    cd1c:	e28d0010 	add	r0, sp, #16, 0
    cd20:	eb000c45 	bl	fe3c <memcpy>
    cd24:	e5cd5027 	strb	r5, [sp, #39]	; 0x27
    cd28:	e3a02008 	mov	r2, #8, 0
    cd2c:	e2841052 	add	r1, r4, #82, 0	; 0x52
    cd30:	e28d0004 	add	r0, sp, #4, 0
    cd34:	eb000c40 	bl	fe3c <memcpy>
    cd38:	e5cd500c 	strb	r5, [sp, #12]
    cd3c:	e28d101c 	add	r1, sp, #28, 0
    cd40:	e59f01f8 	ldr	r0, [pc, #504]	; cf40 <fat32_volume_id_print+0x25c>
    cd44:	eb000cae 	bl	10004 <printk>
    cd48:	e5d4300b 	ldrb	r3, [r4, #11]
    cd4c:	e5d4100c 	ldrb	r1, [r4, #12]
    cd50:	e1831401 	orr	r1, r3, r1, lsl #8
    cd54:	e59f01e8 	ldr	r0, [pc, #488]	; cf44 <fat32_volume_id_print+0x260>
    cd58:	eb000ca9 	bl	10004 <printk>
    cd5c:	e5d4100d 	ldrb	r1, [r4, #13]
    cd60:	e59f01e0 	ldr	r0, [pc, #480]	; cf48 <fat32_volume_id_print+0x264>
    cd64:	eb000ca6 	bl	10004 <printk>
    cd68:	e5d4300e 	ldrb	r3, [r4, #14]
    cd6c:	e5d4100f 	ldrb	r1, [r4, #15]
    cd70:	e1831401 	orr	r1, r3, r1, lsl #8
    cd74:	e59f01d0 	ldr	r0, [pc, #464]	; cf4c <fat32_volume_id_print+0x268>
    cd78:	eb000ca1 	bl	10004 <printk>
    cd7c:	e5d41010 	ldrb	r1, [r4, #16]
    cd80:	e59f01c8 	ldr	r0, [pc, #456]	; cf50 <fat32_volume_id_print+0x26c>
    cd84:	eb000c9e 	bl	10004 <printk>
    cd88:	e5d43011 	ldrb	r3, [r4, #17]
    cd8c:	e5d41012 	ldrb	r1, [r4, #18]
    cd90:	e1831401 	orr	r1, r3, r1, lsl #8
    cd94:	e59f01b8 	ldr	r0, [pc, #440]	; cf54 <fat32_volume_id_print+0x270>
    cd98:	eb000c99 	bl	10004 <printk>
    cd9c:	e5d43013 	ldrb	r3, [r4, #19]
    cda0:	e5d41014 	ldrb	r1, [r4, #20]
    cda4:	e1831401 	orr	r1, r3, r1, lsl #8
    cda8:	e59f01a8 	ldr	r0, [pc, #424]	; cf58 <fat32_volume_id_print+0x274>
    cdac:	eb000c94 	bl	10004 <printk>
    cdb0:	e5d41015 	ldrb	r1, [r4, #21]
    cdb4:	e59f01a0 	ldr	r0, [pc, #416]	; cf5c <fat32_volume_id_print+0x278>
    cdb8:	eb000c91 	bl	10004 <printk>
    cdbc:	e5d43018 	ldrb	r3, [r4, #24]
    cdc0:	e5d41019 	ldrb	r1, [r4, #25]
    cdc4:	e1831401 	orr	r1, r3, r1, lsl #8
    cdc8:	e59f0190 	ldr	r0, [pc, #400]	; cf60 <fat32_volume_id_print+0x27c>
    cdcc:	eb000c8c 	bl	10004 <printk>
    cdd0:	e5d4301a 	ldrb	r3, [r4, #26]
    cdd4:	e5d4101b 	ldrb	r1, [r4, #27]
    cdd8:	e1831401 	orr	r1, r3, r1, lsl #8
    cddc:	e59f0180 	ldr	r0, [pc, #384]	; cf64 <fat32_volume_id_print+0x280>
    cde0:	eb000c87 	bl	10004 <printk>
    cde4:	e5d4301c 	ldrb	r3, [r4, #28]
    cde8:	e5d4101d 	ldrb	r1, [r4, #29]
    cdec:	e1833401 	orr	r3, r3, r1, lsl #8
    cdf0:	e5d4101e 	ldrb	r1, [r4, #30]
    cdf4:	e1833801 	orr	r3, r3, r1, lsl #16
    cdf8:	e5d4101f 	ldrb	r1, [r4, #31]
    cdfc:	e1831c01 	orr	r1, r3, r1, lsl #24
    ce00:	e59f0160 	ldr	r0, [pc, #352]	; cf68 <fat32_volume_id_print+0x284>
    ce04:	eb000c7e 	bl	10004 <printk>
    ce08:	e5d43020 	ldrb	r3, [r4, #32]
    ce0c:	e5d41021 	ldrb	r1, [r4, #33]	; 0x21
    ce10:	e1833401 	orr	r3, r3, r1, lsl #8
    ce14:	e5d41022 	ldrb	r1, [r4, #34]	; 0x22
    ce18:	e1833801 	orr	r3, r3, r1, lsl #16
    ce1c:	e5d41023 	ldrb	r1, [r4, #35]	; 0x23
    ce20:	e1831c01 	orr	r1, r3, r1, lsl #24
    ce24:	e59f0140 	ldr	r0, [pc, #320]	; cf6c <fat32_volume_id_print+0x288>
    ce28:	eb000c75 	bl	10004 <printk>
    ce2c:	e5d43024 	ldrb	r3, [r4, #36]	; 0x24
    ce30:	e5d41025 	ldrb	r1, [r4, #37]	; 0x25
    ce34:	e1833401 	orr	r3, r3, r1, lsl #8
    ce38:	e5d41026 	ldrb	r1, [r4, #38]	; 0x26
    ce3c:	e1833801 	orr	r3, r3, r1, lsl #16
    ce40:	e5d41027 	ldrb	r1, [r4, #39]	; 0x27
    ce44:	e1831c01 	orr	r1, r3, r1, lsl #24
    ce48:	e59f0120 	ldr	r0, [pc, #288]	; cf70 <fat32_volume_id_print+0x28c>
    ce4c:	eb000c6c 	bl	10004 <printk>
    ce50:	e5d43028 	ldrb	r3, [r4, #40]	; 0x28
    ce54:	e5d41029 	ldrb	r1, [r4, #41]	; 0x29
    ce58:	e1831401 	orr	r1, r3, r1, lsl #8
    ce5c:	e59f0110 	ldr	r0, [pc, #272]	; cf74 <fat32_volume_id_print+0x290>
    ce60:	eb000c67 	bl	10004 <printk>
    ce64:	e5d4302a 	ldrb	r3, [r4, #42]	; 0x2a
    ce68:	e5d4102b 	ldrb	r1, [r4, #43]	; 0x2b
    ce6c:	e1831401 	orr	r1, r3, r1, lsl #8
    ce70:	e59f0100 	ldr	r0, [pc, #256]	; cf78 <fat32_volume_id_print+0x294>
    ce74:	eb000c62 	bl	10004 <printk>
    ce78:	e5d4302c 	ldrb	r3, [r4, #44]	; 0x2c
    ce7c:	e5d4102d 	ldrb	r1, [r4, #45]	; 0x2d
    ce80:	e1833401 	orr	r3, r3, r1, lsl #8
    ce84:	e5d4102e 	ldrb	r1, [r4, #46]	; 0x2e
    ce88:	e1833801 	orr	r3, r3, r1, lsl #16
    ce8c:	e5d4102f 	ldrb	r1, [r4, #47]	; 0x2f
    ce90:	e1831c01 	orr	r1, r3, r1, lsl #24
    ce94:	e59f00e0 	ldr	r0, [pc, #224]	; cf7c <fat32_volume_id_print+0x298>
    ce98:	eb000c59 	bl	10004 <printk>
    ce9c:	e5d43030 	ldrb	r3, [r4, #48]	; 0x30
    cea0:	e5d41031 	ldrb	r1, [r4, #49]	; 0x31
    cea4:	e1831401 	orr	r1, r3, r1, lsl #8
    cea8:	e59f00d0 	ldr	r0, [pc, #208]	; cf80 <fat32_volume_id_print+0x29c>
    ceac:	eb000c54 	bl	10004 <printk>
    ceb0:	e5d43032 	ldrb	r3, [r4, #50]	; 0x32
    ceb4:	e5d41033 	ldrb	r1, [r4, #51]	; 0x33
    ceb8:	e1831401 	orr	r1, r3, r1, lsl #8
    cebc:	e59f00c0 	ldr	r0, [pc, #192]	; cf84 <fat32_volume_id_print+0x2a0>
    cec0:	eb000c4f 	bl	10004 <printk>
    cec4:	e5d41040 	ldrb	r1, [r4, #64]	; 0x40
    cec8:	e59f00b8 	ldr	r0, [pc, #184]	; cf88 <fat32_volume_id_print+0x2a4>
    cecc:	eb000c4c 	bl	10004 <printk>
    ced0:	e5d41042 	ldrb	r1, [r4, #66]	; 0x42
    ced4:	e59f00b0 	ldr	r0, [pc, #176]	; cf8c <fat32_volume_id_print+0x2a8>
    ced8:	eb000c49 	bl	10004 <printk>
    cedc:	e5d43043 	ldrb	r3, [r4, #67]	; 0x43
    cee0:	e5d41044 	ldrb	r1, [r4, #68]	; 0x44
    cee4:	e1833401 	orr	r3, r3, r1, lsl #8
    cee8:	e5d41045 	ldrb	r1, [r4, #69]	; 0x45
    ceec:	e1833801 	orr	r3, r3, r1, lsl #16
    cef0:	e5d41046 	ldrb	r1, [r4, #70]	; 0x46
    cef4:	e1831c01 	orr	r1, r3, r1, lsl #24
    cef8:	e59f0090 	ldr	r0, [pc, #144]	; cf90 <fat32_volume_id_print+0x2ac>
    cefc:	eb000c40 	bl	10004 <printk>
    cf00:	e28d1010 	add	r1, sp, #16, 0
    cf04:	e59f0088 	ldr	r0, [pc, #136]	; cf94 <fat32_volume_id_print+0x2b0>
    cf08:	eb000c3d 	bl	10004 <printk>
    cf0c:	e28d1004 	add	r1, sp, #4, 0
    cf10:	e59f0080 	ldr	r0, [pc, #128]	; cf98 <fat32_volume_id_print+0x2b4>
    cf14:	eb000c3a 	bl	10004 <printk>
    cf18:	e5d431fe 	ldrb	r3, [r4, #510]	; 0x1fe
    cf1c:	e5d411ff 	ldrb	r1, [r4, #511]	; 0x1ff
    cf20:	e1831401 	orr	r1, r3, r1, lsl #8
    cf24:	e59f0070 	ldr	r0, [pc, #112]	; cf9c <fat32_volume_id_print+0x2b8>
    cf28:	eb000c35 	bl	10004 <printk>
    cf2c:	e1a00004 	mov	r0, r4
    cf30:	ebfffebe 	bl	ca30 <fat32_volume_id_check>
    cf34:	e28dd02c 	add	sp, sp, #44, 0	; 0x2c
    cf38:	e8bd8030 	pop	{r4, r5, pc}
    cf3c:	00012774 	.word	0x00012774
    cf40:	00012d00 	.word	0x00012d00
    cf44:	00012d1c 	.word	0x00012d1c
    cf48:	00012d38 	.word	0x00012d38
    cf4c:	00012d54 	.word	0x00012d54
    cf50:	00012d70 	.word	0x00012d70
    cf54:	00012d8c 	.word	0x00012d8c
    cf58:	00012da8 	.word	0x00012da8
    cf5c:	00012dc4 	.word	0x00012dc4
    cf60:	00012de0 	.word	0x00012de0
    cf64:	00012dfc 	.word	0x00012dfc
    cf68:	00012e18 	.word	0x00012e18
    cf6c:	00012e34 	.word	0x00012e34
    cf70:	00012e50 	.word	0x00012e50
    cf74:	00012e6c 	.word	0x00012e6c
    cf78:	00012e88 	.word	0x00012e88
    cf7c:	00012ea4 	.word	0x00012ea4
    cf80:	00012ec0 	.word	0x00012ec0
    cf84:	00012edc 	.word	0x00012edc
    cf88:	00012ef8 	.word	0x00012ef8
    cf8c:	00012f14 	.word	0x00012f14
    cf90:	00012f30 	.word	0x00012f30
    cf94:	00012f4c 	.word	0x00012f4c
    cf98:	00012f68 	.word	0x00012f68
    cf9c:	00012f84 	.word	0x00012f84

0000cfa0 <fat32_fsinfo_print>:
    cfa0:	e92d4010 	push	{r4, lr}
    cfa4:	e1a04001 	mov	r4, r1
    cfa8:	e1a01000 	mov	r1, r0
    cfac:	e59f0040 	ldr	r0, [pc, #64]	; cff4 <fat32_fsinfo_print+0x54>
    cfb0:	eb000c13 	bl	10004 <printk>
    cfb4:	e5941000 	ldr	r1, [r4]
    cfb8:	e59f0038 	ldr	r0, [pc, #56]	; cff8 <fat32_fsinfo_print+0x58>
    cfbc:	eb000c10 	bl	10004 <printk>
    cfc0:	e59411e4 	ldr	r1, [r4, #484]	; 0x1e4
    cfc4:	e59f0030 	ldr	r0, [pc, #48]	; cffc <fat32_fsinfo_print+0x5c>
    cfc8:	eb000c0d 	bl	10004 <printk>
    cfcc:	e59411fc 	ldr	r1, [r4, #508]	; 0x1fc
    cfd0:	e59f0028 	ldr	r0, [pc, #40]	; d000 <fat32_fsinfo_print+0x60>
    cfd4:	eb000c0a 	bl	10004 <printk>
    cfd8:	e59411e8 	ldr	r1, [r4, #488]	; 0x1e8
    cfdc:	e59f0020 	ldr	r0, [pc, #32]	; d004 <fat32_fsinfo_print+0x64>
    cfe0:	eb000c07 	bl	10004 <printk>
    cfe4:	e59411ec 	ldr	r1, [r4, #492]	; 0x1ec
    cfe8:	e59f0018 	ldr	r0, [pc, #24]	; d008 <fat32_fsinfo_print+0x68>
    cfec:	eb000c04 	bl	10004 <printk>
    cff0:	e8bd8010 	pop	{r4, pc}
    cff4:	00012774 	.word	0x00012774
    cff8:	00012fa0 	.word	0x00012fa0
    cffc:	00012fbc 	.word	0x00012fbc
    d000:	00012fd8 	.word	0x00012fd8
    d004:	00012ff4 	.word	0x00012ff4
    d008:	00013010 	.word	0x00013010

0000d00c <fat32_fsinfo_check>:
    d00c:	e52de004 	push	{lr}		; (str lr, [sp, #-4]!)
    d010:	e24dd00c 	sub	sp, sp, #12, 0
    d014:	e5902000 	ldr	r2, [r0]
    d018:	e59f308c 	ldr	r3, [pc, #140]	; d0ac <fat32_fsinfo_check+0xa0>
    d01c:	e1520003 	cmp	r2, r3
    d020:	1a000009 	bne	d04c <fat32_fsinfo_check+0x40>
    d024:	e59021e4 	ldr	r2, [r0, #484]	; 0x1e4
    d028:	e59f3080 	ldr	r3, [pc, #128]	; d0b0 <fat32_fsinfo_check+0xa4>
    d02c:	e1520003 	cmp	r2, r3
    d030:	1a00000d 	bne	d06c <fat32_fsinfo_check+0x60>
    d034:	e59021fc 	ldr	r2, [r0, #508]	; 0x1fc
    d038:	e59f3074 	ldr	r3, [pc, #116]	; d0b4 <fat32_fsinfo_check+0xa8>
    d03c:	e1520003 	cmp	r2, r3
    d040:	1a000011 	bne	d08c <fat32_fsinfo_check+0x80>
    d044:	e28dd00c 	add	sp, sp, #12, 0
    d048:	e49df004 	pop	{pc}		; (ldr pc, [sp], #4)
    d04c:	e59f3064 	ldr	r3, [pc, #100]	; d0b8 <fat32_fsinfo_check+0xac>
    d050:	e58d3000 	str	r3, [sp]
    d054:	e3a03057 	mov	r3, #87, 0	; 0x57
    d058:	e59f205c 	ldr	r2, [pc, #92]	; d0bc <fat32_fsinfo_check+0xb0>
    d05c:	e59f105c 	ldr	r1, [pc, #92]	; d0c0 <fat32_fsinfo_check+0xb4>
    d060:	e59f005c 	ldr	r0, [pc, #92]	; d0c4 <fat32_fsinfo_check+0xb8>
    d064:	eb000be6 	bl	10004 <printk>
    d068:	eb000d1f 	bl	104ec <clean_reboot>
    d06c:	e59f3054 	ldr	r3, [pc, #84]	; d0c8 <fat32_fsinfo_check+0xbc>
    d070:	e58d3000 	str	r3, [sp]
    d074:	e3a03058 	mov	r3, #88, 0	; 0x58
    d078:	e59f203c 	ldr	r2, [pc, #60]	; d0bc <fat32_fsinfo_check+0xb0>
    d07c:	e59f103c 	ldr	r1, [pc, #60]	; d0c0 <fat32_fsinfo_check+0xb4>
    d080:	e59f003c 	ldr	r0, [pc, #60]	; d0c4 <fat32_fsinfo_check+0xb8>
    d084:	eb000bde 	bl	10004 <printk>
    d088:	eb000d17 	bl	104ec <clean_reboot>
    d08c:	e59f3038 	ldr	r3, [pc, #56]	; d0cc <fat32_fsinfo_check+0xc0>
    d090:	e58d3000 	str	r3, [sp]
    d094:	e3a03059 	mov	r3, #89, 0	; 0x59
    d098:	e59f201c 	ldr	r2, [pc, #28]	; d0bc <fat32_fsinfo_check+0xb0>
    d09c:	e59f101c 	ldr	r1, [pc, #28]	; d0c0 <fat32_fsinfo_check+0xb4>
    d0a0:	e59f001c 	ldr	r0, [pc, #28]	; d0c4 <fat32_fsinfo_check+0xb8>
    d0a4:	eb000bd6 	bl	10004 <printk>
    d0a8:	eb000d0f 	bl	104ec <clean_reboot>
    d0ac:	41615252 	.word	0x41615252
    d0b0:	61417272 	.word	0x61417272
    d0b4:	aa550000 	.word	0xaa550000
    d0b8:	0001302c 	.word	0x0001302c
    d0bc:	00013364 	.word	0x00013364
    d0c0:	00012bd0 	.word	0x00012bd0
    d0c4:	00011458 	.word	0x00011458
    d0c8:	00013048 	.word	0x00013048
    d0cc:	00013064 	.word	0x00013064

0000d0d0 <fat32_fat_entry_type_str>:
    d0d0:	e370029f 	cmn	r0, #-268435447	; 0xf0000009
    d0d4:	0a000015 	beq	d130 <fat32_fat_entry_type_str+0x60>
    d0d8:	8a000005 	bhi	d0f4 <fat32_fat_entry_type_str+0x24>
    d0dc:	e3500000 	cmp	r0, #0, 0
    d0e0:	0a000014 	beq	d138 <fat32_fat_entry_type_str+0x68>
    d0e4:	e3500001 	cmp	r0, #1, 0
    d0e8:	1a000007 	bne	d10c <fat32_fat_entry_type_str+0x3c>
    d0ec:	e59f0054 	ldr	r0, [pc, #84]	; d148 <fat32_fat_entry_type_str+0x78>
    d0f0:	e12fff1e 	bx	lr
    d0f4:	e370028f 	cmn	r0, #-268435448	; 0xf0000008
    d0f8:	0a000010 	beq	d140 <fat32_fat_entry_type_str+0x70>
    d0fc:	e370027f 	cmn	r0, #-268435449	; 0xf0000007
    d100:	1a000001 	bne	d10c <fat32_fat_entry_type_str+0x3c>
    d104:	e59f0040 	ldr	r0, [pc, #64]	; d14c <fat32_fat_entry_type_str+0x7c>
    d108:	e12fff1e 	bx	lr
    d10c:	e52de004 	push	{lr}		; (str lr, [sp, #-4]!)
    d110:	e24dd00c 	sub	sp, sp, #12, 0
    d114:	e58d0000 	str	r0, [sp]
    d118:	e3a03067 	mov	r3, #103, 0	; 0x67
    d11c:	e59f202c 	ldr	r2, [pc, #44]	; d150 <fat32_fat_entry_type_str+0x80>
    d120:	e59f102c 	ldr	r1, [pc, #44]	; d154 <fat32_fat_entry_type_str+0x84>
    d124:	e59f002c 	ldr	r0, [pc, #44]	; d158 <fat32_fat_entry_type_str+0x88>
    d128:	eb000bb5 	bl	10004 <printk>
    d12c:	eb000cee 	bl	104ec <clean_reboot>
    d130:	e59f0024 	ldr	r0, [pc, #36]	; d15c <fat32_fat_entry_type_str+0x8c>
    d134:	e12fff1e 	bx	lr
    d138:	e59f0020 	ldr	r0, [pc, #32]	; d160 <fat32_fat_entry_type_str+0x90>
    d13c:	e12fff1e 	bx	lr
    d140:	e59f001c 	ldr	r0, [pc, #28]	; d164 <fat32_fat_entry_type_str+0x94>
    d144:	e12fff1e 	bx	lr
    d148:	000130ac 	.word	0x000130ac
    d14c:	000130c0 	.word	0x000130c0
    d150:	00013378 	.word	0x00013378
    d154:	00012bd0 	.word	0x00012bd0
    d158:	000130d0 	.word	0x000130d0
    d15c:	00013080 	.word	0x00013080
    d160:	0001308c 	.word	0x0001308c
    d164:	0001309c 	.word	0x0001309c

0000d168 <fat32_fat_entry_type>:
    d168:	e3c0020f 	bic	r0, r0, #-268435456	; 0xf0000000
    d16c:	e3500001 	cmp	r0, #1, 0
    d170:	912fff1e 	bxls	lr
    d174:	e370029f 	cmn	r0, #-268435447	; 0xf0000009
    d178:	012fff1e 	bxeq	lr
    d17c:	e2402002 	sub	r2, r0, #2, 0
    d180:	e59f3074 	ldr	r3, [pc, #116]	; d1fc <fat32_fat_entry_type+0x94>
    d184:	e1520003 	cmp	r2, r3
    d188:	9a000019 	bls	d1f4 <fat32_fat_entry_type+0x8c>
    d18c:	e52de004 	push	{lr}		; (str lr, [sp, #-4]!)
    d190:	e24dd00c 	sub	sp, sp, #12, 0
    d194:	e280320f 	add	r3, r0, #-268435456	; 0xf0000000
    d198:	e2833010 	add	r3, r3, #16, 0
    d19c:	e3530006 	cmp	r3, #6, 0
    d1a0:	9a000005 	bls	d1bc <fat32_fat_entry_type+0x54>
    d1a4:	e280328f 	add	r3, r0, #-268435448	; 0xf0000008
    d1a8:	e3530007 	cmp	r3, #7, 0
    d1ac:	8a000009 	bhi	d1d8 <fat32_fat_entry_type+0x70>
    d1b0:	e3e0027f 	mvn	r0, #-268435449	; 0xf0000007
    d1b4:	e28dd00c 	add	sp, sp, #12, 0
    d1b8:	e49df004 	pop	{pc}		; (ldr pc, [sp], #4)
    d1bc:	e58d0000 	str	r0, [sp]
    d1c0:	e3a03077 	mov	r3, #119, 0	; 0x77
    d1c4:	e59f2034 	ldr	r2, [pc, #52]	; d200 <fat32_fat_entry_type+0x98>
    d1c8:	e59f1034 	ldr	r1, [pc, #52]	; d204 <fat32_fat_entry_type+0x9c>
    d1cc:	e59f0034 	ldr	r0, [pc, #52]	; d208 <fat32_fat_entry_type+0xa0>
    d1d0:	eb000b8b 	bl	10004 <printk>
    d1d4:	eb000cc4 	bl	104ec <clean_reboot>
    d1d8:	e58d0000 	str	r0, [sp]
    d1dc:	e3a0307a 	mov	r3, #122, 0	; 0x7a
    d1e0:	e59f2018 	ldr	r2, [pc, #24]	; d200 <fat32_fat_entry_type+0x98>
    d1e4:	e59f1018 	ldr	r1, [pc, #24]	; d204 <fat32_fat_entry_type+0x9c>
    d1e8:	e59f001c 	ldr	r0, [pc, #28]	; d20c <fat32_fat_entry_type+0xa4>
    d1ec:	eb000b84 	bl	10004 <printk>
    d1f0:	eb000cbd 	bl	104ec <clean_reboot>
    d1f4:	e3e0026f 	mvn	r0, #-268435450	; 0xf0000006
    d1f8:	e12fff1e 	bx	lr
    d1fc:	0fffffed 	.word	0x0fffffed
    d200:	00013394 	.word	0x00013394
    d204:	00012bd0 	.word	0x00012bd0
    d208:	000130f0 	.word	0x000130f0
    d20c:	00013114 	.word	0x00013114

0000d210 <fat32_dirent_free>:
    d210:	e5d03000 	ldrb	r3, [r0]
    d214:	e5d0200b 	ldrb	r2, [r0, #11]
    d218:	e352000f 	cmp	r2, #15, 0
    d21c:	0a000005 	beq	d238 <fat32_dirent_free+0x28>
    d220:	e35300e5 	cmp	r3, #229, 0	; 0xe5
    d224:	13a00000 	movne	r0, #0, 0
    d228:	03a00001 	moveq	r0, #1, 0
    d22c:	e3530000 	cmp	r3, #0, 0
    d230:	03a00001 	moveq	r0, #1, 0
    d234:	e12fff1e 	bx	lr
    d238:	e92d4010 	push	{r4, lr}
    d23c:	eb00024f 	bl	db80 <fat32_dirent_is_deleted_lfn>
    d240:	e8bd8010 	pop	{r4, pc}

0000d244 <fat32_dir_attr_str>:
    d244:	e350000f 	cmp	r0, #15, 0
    d248:	0a000063 	beq	d3dc <fat32_dir_attr_str+0x198>
    d24c:	e92d4010 	push	{r4, lr}
    d250:	e24dd008 	sub	sp, sp, #8, 0
    d254:	e1a04000 	mov	r4, r0
    d258:	e59f3184 	ldr	r3, [pc, #388]	; d3e4 <fat32_dir_attr_str+0x1a0>
    d25c:	e3a02000 	mov	r2, #0, 0
    d260:	e5c32020 	strb	r2, [r3, #32]
    d264:	0a00002a 	beq	d314 <fat32_dir_attr_str+0xd0>
    d268:	e2003001 	and	r3, r0, #1, 0
    d26c:	e3530000 	cmp	r3, #0, 0
    d270:	1a00002b 	bne	d324 <fat32_dir_attr_str+0xe0>
    d274:	e354000f 	cmp	r4, #15, 0
    d278:	0a00002e 	beq	d338 <fat32_dir_attr_str+0xf4>
    d27c:	e3140002 	tst	r4, #2, 0
    d280:	13a03001 	movne	r3, #1, 0
    d284:	03a03000 	moveq	r3, #0, 0
    d288:	e3530000 	cmp	r3, #0, 0
    d28c:	1a00002d 	bne	d348 <fat32_dir_attr_str+0x104>
    d290:	e2443004 	sub	r3, r4, #4, 0
    d294:	e353001c 	cmp	r3, #28, 0
    d298:	979ff103 	ldrls	pc, [pc, r3, lsl #2]
    d29c:	ea000047 	b	d3c0 <fat32_dir_attr_str+0x17c>
    d2a0:	0000d35c 	.word	0x0000d35c
    d2a4:	0000d3c0 	.word	0x0000d3c0
    d2a8:	0000d3c0 	.word	0x0000d3c0
    d2ac:	0000d3c0 	.word	0x0000d3c0
    d2b0:	0000d378 	.word	0x0000d378
    d2b4:	0000d3c0 	.word	0x0000d3c0
    d2b8:	0000d3c0 	.word	0x0000d3c0
    d2bc:	0000d3c0 	.word	0x0000d3c0
    d2c0:	0000d3c0 	.word	0x0000d3c0
    d2c4:	0000d3c0 	.word	0x0000d3c0
    d2c8:	0000d3c0 	.word	0x0000d3c0
    d2cc:	0000d3c0 	.word	0x0000d3c0
    d2d0:	0000d390 	.word	0x0000d390
    d2d4:	0000d3c0 	.word	0x0000d3c0
    d2d8:	0000d3c0 	.word	0x0000d3c0
    d2dc:	0000d3c0 	.word	0x0000d3c0
    d2e0:	0000d3c0 	.word	0x0000d3c0
    d2e4:	0000d3c0 	.word	0x0000d3c0
    d2e8:	0000d3c0 	.word	0x0000d3c0
    d2ec:	0000d3c0 	.word	0x0000d3c0
    d2f0:	0000d3c0 	.word	0x0000d3c0
    d2f4:	0000d3c0 	.word	0x0000d3c0
    d2f8:	0000d3c0 	.word	0x0000d3c0
    d2fc:	0000d3c0 	.word	0x0000d3c0
    d300:	0000d3c0 	.word	0x0000d3c0
    d304:	0000d3c0 	.word	0x0000d3c0
    d308:	0000d3c0 	.word	0x0000d3c0
    d30c:	0000d3c0 	.word	0x0000d3c0
    d310:	0000d3a8 	.word	0x0000d3a8
    d314:	e3500001 	cmp	r0, #1, 0
    d318:	13a03000 	movne	r3, #0, 0
    d31c:	03a03001 	moveq	r3, #1, 0
    d320:	eaffffd1 	b	d26c <fat32_dir_attr_str+0x28>
    d324:	e59f10bc 	ldr	r1, [pc, #188]	; d3e8 <fat32_dir_attr_str+0x1a4>
    d328:	e59f00bc 	ldr	r0, [pc, #188]	; d3ec <fat32_dir_attr_str+0x1a8>
    d32c:	eb000c47 	bl	10450 <strcat>
    d330:	e3c44001 	bic	r4, r4, #1, 0
    d334:	eaffffce 	b	d274 <fat32_dir_attr_str+0x30>
    d338:	e3540002 	cmp	r4, #2, 0
    d33c:	13a03000 	movne	r3, #0, 0
    d340:	03a03001 	moveq	r3, #1, 0
    d344:	eaffffcf 	b	d288 <fat32_dir_attr_str+0x44>
    d348:	e59f10a0 	ldr	r1, [pc, #160]	; d3f0 <fat32_dir_attr_str+0x1ac>
    d34c:	e59f0098 	ldr	r0, [pc, #152]	; d3ec <fat32_dir_attr_str+0x1a8>
    d350:	eb000c3e 	bl	10450 <strcat>
    d354:	e3c44002 	bic	r4, r4, #2, 0
    d358:	eaffffcc 	b	d290 <fat32_dir_attr_str+0x4c>
    d35c:	e59f4088 	ldr	r4, [pc, #136]	; d3ec <fat32_dir_attr_str+0x1a8>
    d360:	e59f108c 	ldr	r1, [pc, #140]	; d3f4 <fat32_dir_attr_str+0x1b0>
    d364:	e1a00004 	mov	r0, r4
    d368:	eb000c38 	bl	10450 <strcat>
    d36c:	e1a00004 	mov	r0, r4
    d370:	e28dd008 	add	sp, sp, #8, 0
    d374:	e8bd8010 	pop	{r4, pc}
    d378:	e59f406c 	ldr	r4, [pc, #108]	; d3ec <fat32_dir_attr_str+0x1a8>
    d37c:	e59f1074 	ldr	r1, [pc, #116]	; d3f8 <fat32_dir_attr_str+0x1b4>
    d380:	e1a00004 	mov	r0, r4
    d384:	eb000c31 	bl	10450 <strcat>
    d388:	e1a00004 	mov	r0, r4
    d38c:	eafffff7 	b	d370 <fat32_dir_attr_str+0x12c>
    d390:	e59f4054 	ldr	r4, [pc, #84]	; d3ec <fat32_dir_attr_str+0x1a8>
    d394:	e59f1060 	ldr	r1, [pc, #96]	; d3fc <fat32_dir_attr_str+0x1b8>
    d398:	e1a00004 	mov	r0, r4
    d39c:	eb000c2b 	bl	10450 <strcat>
    d3a0:	e1a00004 	mov	r0, r4
    d3a4:	eafffff1 	b	d370 <fat32_dir_attr_str+0x12c>
    d3a8:	e59f403c 	ldr	r4, [pc, #60]	; d3ec <fat32_dir_attr_str+0x1a8>
    d3ac:	e59f104c 	ldr	r1, [pc, #76]	; d400 <fat32_dir_attr_str+0x1bc>
    d3b0:	e1a00004 	mov	r0, r4
    d3b4:	eb000c25 	bl	10450 <strcat>
    d3b8:	e1a00004 	mov	r0, r4
    d3bc:	eaffffeb 	b	d370 <fat32_dir_attr_str+0x12c>
    d3c0:	e58d4000 	str	r4, [sp]
    d3c4:	e3a0309d 	mov	r3, #157, 0	; 0x9d
    d3c8:	e59f2034 	ldr	r2, [pc, #52]	; d404 <fat32_dir_attr_str+0x1c0>
    d3cc:	e59f1034 	ldr	r1, [pc, #52]	; d408 <fat32_dir_attr_str+0x1c4>
    d3d0:	e59f0034 	ldr	r0, [pc, #52]	; d40c <fat32_dir_attr_str+0x1c8>
    d3d4:	eb000b0a 	bl	10004 <printk>
    d3d8:	eb000c43 	bl	104ec <clean_reboot>
    d3dc:	e59f002c 	ldr	r0, [pc, #44]	; d410 <fat32_dir_attr_str+0x1cc>
    d3e0:	e12fff1e 	bx	lr
    d3e4:	00014ca8 	.word	0x00014ca8
    d3e8:	00013150 	.word	0x00013150
    d3ec:	00014cc8 	.word	0x00014cc8
    d3f0:	00013154 	.word	0x00013154
    d3f4:	0001315c 	.word	0x0001315c
    d3f8:	0001316c 	.word	0x0001316c
    d3fc:	0001317c 	.word	0x0001317c
    d400:	00013184 	.word	0x00013184
    d404:	000133ac 	.word	0x000133ac
    d408:	00012bd0 	.word	0x00012bd0
    d40c:	00013190 	.word	0x00013190
    d410:	00013140 	.word	0x00013140

0000d414 <fat32_dirent_name>:
    d414:	e92d4010 	push	{r4, lr}
    d418:	e1a04001 	mov	r4, r1
    d41c:	ebfffd54 	bl	c974 <to_8dot3>
    d420:	e1a01000 	mov	r1, r0
    d424:	e1a00004 	mov	r0, r4
    d428:	eb000c20 	bl	104b0 <strcpy>
    d42c:	e8bd8010 	pop	{r4, pc}

0000d430 <fat32_is_valid_name>:
    d430:	e92d4010 	push	{r4, lr}
    d434:	e1a04000 	mov	r4, r0
    d438:	eb000c24 	bl	104d0 <strlen>
    d43c:	e1a0c000 	mov	ip, r0
    d440:	e1a01000 	mov	r1, r0
    d444:	e3a03000 	mov	r3, #0, 0
    d448:	e1a00003 	mov	r0, r3
    d44c:	ea000000 	b	d454 <fat32_is_valid_name+0x24>
    d450:	e2833001 	add	r3, r3, #1, 0
    d454:	e1530001 	cmp	r3, r1
    d458:	aa000003 	bge	d46c <fat32_is_valid_name+0x3c>
    d45c:	e7d42003 	ldrb	r2, [r4, r3]
    d460:	e352002e 	cmp	r2, #46, 0	; 0x2e
    d464:	03a00001 	moveq	r0, #1, 0
    d468:	eafffff8 	b	d450 <fat32_is_valid_name+0x20>
    d46c:	e3500000 	cmp	r0, #0, 0
    d470:	0a000019 	beq	d4dc <fat32_is_valid_name+0xac>
    d474:	e35c000c 	cmp	ip, #12, 0
    d478:	ca00002a 	bgt	d528 <fat32_is_valid_name+0xf8>
    d47c:	e35c0004 	cmp	ip, #4, 0
    d480:	da00002a 	ble	d530 <fat32_is_valid_name+0x100>
    d484:	e084c00c 	add	ip, r4, ip
    d488:	e55c3004 	ldrb	r3, [ip, #-4]
    d48c:	e353002e 	cmp	r3, #46, 0	; 0x2e
    d490:	1a000028 	bne	d538 <fat32_is_valid_name+0x108>
    d494:	e3a02000 	mov	r2, #0, 0
    d498:	ea000000 	b	d4a0 <fat32_is_valid_name+0x70>
    d49c:	e2822001 	add	r2, r2, #1, 0
    d4a0:	e1520001 	cmp	r2, r1
    d4a4:	a8bd8010 	popge	{r4, pc}
    d4a8:	e7d43002 	ldrb	r3, [r4, r2]
    d4ac:	e243c041 	sub	ip, r3, #65, 0	; 0x41
    d4b0:	e6efc07c 	uxtb	ip, ip
    d4b4:	e2433030 	sub	r3, r3, #48, 0	; 0x30
    d4b8:	e6ef3073 	uxtb	r3, r3
    d4bc:	e35c0019 	cmp	ip, #25, 0
    d4c0:	83530009 	cmphi	r3, #9, 0
    d4c4:	9afffff4 	bls	d49c <fat32_is_valid_name+0x6c>
    d4c8:	e2413004 	sub	r3, r1, #4, 0
    d4cc:	e1530002 	cmp	r3, r2
    d4d0:	0afffff1 	beq	d49c <fat32_is_valid_name+0x6c>
    d4d4:	e3a00000 	mov	r0, #0, 0
    d4d8:	e8bd8010 	pop	{r4, pc}
    d4dc:	e35c0008 	cmp	ip, #8, 0
    d4e0:	c8bd8010 	popgt	{r4, pc}
    d4e4:	e35c0000 	cmp	ip, #0, 0
    d4e8:	d8bd8010 	pople	{r4, pc}
    d4ec:	e1a02000 	mov	r2, r0
    d4f0:	e1520001 	cmp	r2, r1
    d4f4:	aa000009 	bge	d520 <fat32_is_valid_name+0xf0>
    d4f8:	e7d43002 	ldrb	r3, [r4, r2]
    d4fc:	e243c041 	sub	ip, r3, #65, 0	; 0x41
    d500:	e6efc07c 	uxtb	ip, ip
    d504:	e2433030 	sub	r3, r3, #48, 0	; 0x30
    d508:	e6ef3073 	uxtb	r3, r3
    d50c:	e35c0019 	cmp	ip, #25, 0
    d510:	83530009 	cmphi	r3, #9, 0
    d514:	88bd8010 	pophi	{r4, pc}
    d518:	e2822001 	add	r2, r2, #1, 0
    d51c:	eafffff3 	b	d4f0 <fat32_is_valid_name+0xc0>
    d520:	e3a00001 	mov	r0, #1, 0
    d524:	e8bd8010 	pop	{r4, pc}
    d528:	e3a00000 	mov	r0, #0, 0
    d52c:	e8bd8010 	pop	{r4, pc}
    d530:	e3a00000 	mov	r0, #0, 0
    d534:	e8bd8010 	pop	{r4, pc}
    d538:	e3a00000 	mov	r0, #0, 0
    d53c:	e8bd8010 	pop	{r4, pc}

0000d540 <fat32_dirent_set_name>:
    d540:	e92d41f0 	push	{r4, r5, r6, r7, r8, lr}
    d544:	e24dd008 	sub	sp, sp, #8, 0
    d548:	e1a07000 	mov	r7, r0
    d54c:	e1a04001 	mov	r4, r1
    d550:	e1a00001 	mov	r0, r1
    d554:	eb000bdd 	bl	104d0 <strlen>
    d558:	e1a06000 	mov	r6, r0
    d55c:	e1a05000 	mov	r5, r0
    d560:	e1a00004 	mov	r0, r4
    d564:	ebffffb1 	bl	d430 <fat32_is_valid_name>
    d568:	e3500000 	cmp	r0, #0, 0
    d56c:	13a03000 	movne	r3, #0, 0
    d570:	11a08003 	movne	r8, r3
    d574:	1a000008 	bne	d59c <fat32_dirent_set_name+0x5c>
    d578:	e59f308c 	ldr	r3, [pc, #140]	; d60c <fat32_dirent_set_name+0xcc>
    d57c:	e58d3000 	str	r3, [sp]
    d580:	e3a030da 	mov	r3, #218, 0	; 0xda
    d584:	e59f2084 	ldr	r2, [pc, #132]	; d610 <fat32_dirent_set_name+0xd0>
    d588:	e59f1084 	ldr	r1, [pc, #132]	; d614 <fat32_dirent_set_name+0xd4>
    d58c:	e59f0084 	ldr	r0, [pc, #132]	; d618 <fat32_dirent_set_name+0xd8>
    d590:	eb000a9b 	bl	10004 <printk>
    d594:	eb000bd4 	bl	104ec <clean_reboot>
    d598:	e2833001 	add	r3, r3, #1, 0
    d59c:	e1530005 	cmp	r3, r5
    d5a0:	aa000003 	bge	d5b4 <fat32_dirent_set_name+0x74>
    d5a4:	e7d42003 	ldrb	r2, [r4, r3]
    d5a8:	e352002e 	cmp	r2, #46, 0	; 0x2e
    d5ac:	03a08001 	moveq	r8, #1, 0
    d5b0:	eafffff8 	b	d598 <fat32_dirent_set_name+0x58>
    d5b4:	e3a0200b 	mov	r2, #11, 0
    d5b8:	e3a01020 	mov	r1, #32, 0
    d5bc:	e1a00007 	mov	r0, r7
    d5c0:	eb000a54 	bl	ff18 <memset>
    d5c4:	e3580000 	cmp	r8, #0, 0
    d5c8:	0a00000a 	beq	d5f8 <fat32_dirent_set_name+0xb8>
    d5cc:	e2462004 	sub	r2, r6, #4, 0
    d5d0:	e1a01004 	mov	r1, r4
    d5d4:	e1a00007 	mov	r0, r7
    d5d8:	eb000a17 	bl	fe3c <memcpy>
    d5dc:	e2461003 	sub	r1, r6, #3, 0
    d5e0:	e3a02003 	mov	r2, #3, 0
    d5e4:	e0841001 	add	r1, r4, r1
    d5e8:	e2870008 	add	r0, r7, #8, 0
    d5ec:	eb000a12 	bl	fe3c <memcpy>
    d5f0:	e28dd008 	add	sp, sp, #8, 0
    d5f4:	e8bd81f0 	pop	{r4, r5, r6, r7, r8, pc}
    d5f8:	e1a02006 	mov	r2, r6
    d5fc:	e1a01004 	mov	r1, r4
    d600:	e1a00007 	mov	r0, r7
    d604:	eb000a0c 	bl	fe3c <memcpy>
    d608:	eafffff8 	b	d5f0 <fat32_dirent_set_name+0xb0>
    d60c:	000131b4 	.word	0x000131b4
    d610:	000133c0 	.word	0x000133c0
    d614:	00012bd0 	.word	0x00012bd0
    d618:	00011458 	.word	0x00011458

0000d61c <fat32_dirent_print_helper>:
    d61c:	e92d4070 	push	{r4, r5, r6, lr}
    d620:	e1a06000 	mov	r6, r0
    d624:	ebfffef9 	bl	d210 <fat32_dirent_free>
    d628:	e2504000 	subs	r4, r0, #0, 0
    d62c:	1a00001c 	bne	d6a4 <fat32_dirent_print_helper+0x88>
    d630:	e5d6500b 	ldrb	r5, [r6, #11]
    d634:	e355000f 	cmp	r5, #15, 0
    d638:	0a00001c 	beq	d6b0 <fat32_dirent_print_helper+0x94>
    d63c:	e355000f 	cmp	r5, #15, 0
    d640:	0a00001d 	beq	d6bc <fat32_dirent_print_helper+0xa0>
    d644:	e1a032a5 	lsr	r3, r5, #5
    d648:	e2033001 	and	r3, r3, #1, 0
    d64c:	e3530000 	cmp	r3, #0, 0
    d650:	1a00001d 	bne	d6cc <fat32_dirent_print_helper+0xb0>
    d654:	e355000f 	cmp	r5, #15, 0
    d658:	0a00001e 	beq	d6d8 <fat32_dirent_print_helper+0xbc>
    d65c:	e1a03225 	lsr	r3, r5, #4
    d660:	e2033001 	and	r3, r3, #1, 0
    d664:	e3530000 	cmp	r3, #0, 0
    d668:	0a00001e 	beq	d6e8 <fat32_dirent_print_helper+0xcc>
    d66c:	e59f01b0 	ldr	r0, [pc, #432]	; d824 <fat32_dirent_print_helper+0x208>
    d670:	eb000a63 	bl	10004 <printk>
    d674:	e1a00006 	mov	r0, r6
    d678:	ebfffce0 	bl	ca00 <add_nul>
    d67c:	e1a05000 	mov	r5, r0
    d680:	e1a00006 	mov	r0, r6
    d684:	ebfffcba 	bl	c974 <to_8dot3>
    d688:	e1a02000 	mov	r2, r0
    d68c:	e1a01005 	mov	r1, r5
    d690:	e59f0190 	ldr	r0, [pc, #400]	; d828 <fat32_dirent_print_helper+0x20c>
    d694:	eb000a5a 	bl	10004 <printk>
    d698:	e59f018c 	ldr	r0, [pc, #396]	; d82c <fat32_dirent_print_helper+0x210>
    d69c:	eb000a58 	bl	10004 <printk>
    d6a0:	ea00002b 	b	d754 <fat32_dirent_print_helper+0x138>
    d6a4:	e59f0184 	ldr	r0, [pc, #388]	; d830 <fat32_dirent_print_helper+0x214>
    d6a8:	eb000a55 	bl	10004 <printk>
    d6ac:	e8bd8070 	pop	{r4, r5, r6, pc}
    d6b0:	e59f017c 	ldr	r0, [pc, #380]	; d834 <fat32_dirent_print_helper+0x218>
    d6b4:	eb000a52 	bl	10004 <printk>
    d6b8:	e8bd8070 	pop	{r4, r5, r6, pc}
    d6bc:	e3550020 	cmp	r5, #32, 0
    d6c0:	13a03000 	movne	r3, #0, 0
    d6c4:	03a03001 	moveq	r3, #1, 0
    d6c8:	eaffffdf 	b	d64c <fat32_dirent_print_helper+0x30>
    d6cc:	e59f0164 	ldr	r0, [pc, #356]	; d838 <fat32_dirent_print_helper+0x21c>
    d6d0:	eb000a4b 	bl	10004 <printk>
    d6d4:	eaffffe4 	b	d66c <fat32_dirent_print_helper+0x50>
    d6d8:	e3550010 	cmp	r5, #16, 0
    d6dc:	13a03000 	movne	r3, #0, 0
    d6e0:	03a03001 	moveq	r3, #1, 0
    d6e4:	eaffffde 	b	d664 <fat32_dirent_print_helper+0x48>
    d6e8:	e1a00005 	mov	r0, r5
    d6ec:	ebfffed4 	bl	d244 <fat32_dir_attr_str>
    d6f0:	e1a02000 	mov	r2, r0
    d6f4:	e1a01005 	mov	r1, r5
    d6f8:	e59f013c 	ldr	r0, [pc, #316]	; d83c <fat32_dirent_print_helper+0x220>
    d6fc:	eb000a40 	bl	10004 <printk>
    d700:	e5d6300b 	ldrb	r3, [r6, #11]
    d704:	e353000f 	cmp	r3, #15, 0
    d708:	0a000004 	beq	d720 <fat32_dirent_print_helper+0x104>
    d70c:	e1a032a3 	lsr	r3, r3, #5
    d710:	e2033001 	and	r3, r3, #1, 0
    d714:	e3530000 	cmp	r3, #0, 0
    d718:	0affffd3 	beq	d66c <fat32_dirent_print_helper+0x50>
    d71c:	e8bd8070 	pop	{r4, r5, r6, pc}
    d720:	e3530020 	cmp	r3, #32, 0
    d724:	13a03000 	movne	r3, #0, 0
    d728:	03a03001 	moveq	r3, #1, 0
    d72c:	eafffff8 	b	d714 <fat32_dirent_print_helper+0xf8>
    d730:	e59f00ec 	ldr	r0, [pc, #236]	; d824 <fat32_dirent_print_helper+0x208>
    d734:	eb000a32 	bl	10004 <printk>
    d738:	e59f0100 	ldr	r0, [pc, #256]	; d840 <fat32_dirent_print_helper+0x224>
    d73c:	eb000a30 	bl	10004 <printk>
    d740:	e7d61004 	ldrb	r1, [r6, r4]
    d744:	e1a02001 	mov	r2, r1
    d748:	e59f00f4 	ldr	r0, [pc, #244]	; d844 <fat32_dirent_print_helper+0x228>
    d74c:	eb000a2c 	bl	10004 <printk>
    d750:	e2844001 	add	r4, r4, #1, 0
    d754:	e354000a 	cmp	r4, #10, 0
    d758:	8a000002 	bhi	d768 <fat32_dirent_print_helper+0x14c>
    d75c:	e3540008 	cmp	r4, #8, 0
    d760:	1afffff6 	bne	d740 <fat32_dirent_print_helper+0x124>
    d764:	eafffff1 	b	d730 <fat32_dirent_print_helper+0x114>
    d768:	e59f00d8 	ldr	r0, [pc, #216]	; d848 <fat32_dirent_print_helper+0x22c>
    d76c:	eb000a24 	bl	10004 <printk>
    d770:	e5d6100b 	ldrb	r1, [r6, #11]
    d774:	e59f00d0 	ldr	r0, [pc, #208]	; d84c <fat32_dirent_print_helper+0x230>
    d778:	eb000a21 	bl	10004 <printk>
    d77c:	e5d6300b 	ldrb	r3, [r6, #11]
    d780:	e353000f 	cmp	r3, #15, 0
    d784:	0a000009 	beq	d7b0 <fat32_dirent_print_helper+0x194>
    d788:	e3130001 	tst	r3, #1, 0
    d78c:	1a00001b 	bne	d800 <fat32_dirent_print_helper+0x1e4>
    d790:	e5d6300b 	ldrb	r3, [r6, #11]
    d794:	e3130002 	tst	r3, #2, 0
    d798:	1a00001b 	bne	d80c <fat32_dirent_print_helper+0x1f0>
    d79c:	e5d6300b 	ldrb	r3, [r6, #11]
    d7a0:	e3130004 	tst	r3, #4, 0
    d7a4:	1a00001b 	bne	d818 <fat32_dirent_print_helper+0x1fc>
    d7a8:	e59f0074 	ldr	r0, [pc, #116]	; d824 <fat32_dirent_print_helper+0x208>
    d7ac:	eb000a14 	bl	10004 <printk>
    d7b0:	e5d63014 	ldrb	r3, [r6, #20]
    d7b4:	e5d61015 	ldrb	r1, [r6, #21]
    d7b8:	e1831401 	orr	r1, r3, r1, lsl #8
    d7bc:	e59f008c 	ldr	r0, [pc, #140]	; d850 <fat32_dirent_print_helper+0x234>
    d7c0:	eb000a0f 	bl	10004 <printk>
    d7c4:	e5d6301a 	ldrb	r3, [r6, #26]
    d7c8:	e5d6101b 	ldrb	r1, [r6, #27]
    d7cc:	e1831401 	orr	r1, r3, r1, lsl #8
    d7d0:	e59f007c 	ldr	r0, [pc, #124]	; d854 <fat32_dirent_print_helper+0x238>
    d7d4:	eb000a0a 	bl	10004 <printk>
    d7d8:	e5d6301c 	ldrb	r3, [r6, #28]
    d7dc:	e5d6101d 	ldrb	r1, [r6, #29]
    d7e0:	e1833401 	orr	r3, r3, r1, lsl #8
    d7e4:	e5d6101e 	ldrb	r1, [r6, #30]
    d7e8:	e1833801 	orr	r3, r3, r1, lsl #16
    d7ec:	e5d6101f 	ldrb	r1, [r6, #31]
    d7f0:	e1831c01 	orr	r1, r3, r1, lsl #24
    d7f4:	e59f005c 	ldr	r0, [pc, #92]	; d858 <fat32_dirent_print_helper+0x23c>
    d7f8:	eb000a01 	bl	10004 <printk>
    d7fc:	e8bd8070 	pop	{r4, r5, r6, pc}
    d800:	e59f0054 	ldr	r0, [pc, #84]	; d85c <fat32_dirent_print_helper+0x240>
    d804:	eb0009fe 	bl	10004 <printk>
    d808:	eaffffe0 	b	d790 <fat32_dirent_print_helper+0x174>
    d80c:	e59f004c 	ldr	r0, [pc, #76]	; d860 <fat32_dirent_print_helper+0x244>
    d810:	eb0009fb 	bl	10004 <printk>
    d814:	eaffffe0 	b	d79c <fat32_dirent_print_helper+0x180>
    d818:	e59f0044 	ldr	r0, [pc, #68]	; d864 <fat32_dirent_print_helper+0x248>
    d81c:	eb0009f8 	bl	10004 <printk>
    d820:	eaffffe0 	b	d7a8 <fat32_dirent_print_helper+0x18c>
    d824:	00012170 	.word	0x00012170
    d828:	00013248 	.word	0x00013248
    d82c:	0001326c 	.word	0x0001326c
    d830:	000131d0 	.word	0x000131d0
    d834:	000131ec 	.word	0x000131ec
    d838:	00013200 	.word	0x00013200
    d83c:	00013228 	.word	0x00013228
    d840:	00013280 	.word	0x00013280
    d844:	00013288 	.word	0x00013288
    d848:	00013294 	.word	0x00013294
    d84c:	00013298 	.word	0x00013298
    d850:	000132e4 	.word	0x000132e4
    d854:	000132fc 	.word	0x000132fc
    d858:	00013314 	.word	0x00013314
    d85c:	000132ac 	.word	0x000132ac
    d860:	000132bc 	.word	0x000132bc
    d864:	000132c8 	.word	0x000132c8

0000d868 <fat32_dirent_print>:
    d868:	e92d4010 	push	{r4, lr}
    d86c:	e1a04001 	mov	r4, r1
    d870:	e1a01000 	mov	r1, r0
    d874:	e59f000c 	ldr	r0, [pc, #12]	; d888 <fat32_dirent_print+0x20>
    d878:	eb0009e1 	bl	10004 <printk>
    d87c:	e1a00004 	mov	r0, r4
    d880:	ebffff65 	bl	d61c <fat32_dirent_print_helper>
    d884:	e8bd8010 	pop	{r4, pc}
    d888:	0001332c 	.word	0x0001332c

0000d88c <fat32_dir_lookup>:
    d88c:	e92d41f0 	push	{r4, r5, r6, r7, r8, lr}
    d890:	e1a08000 	mov	r8, r0
    d894:	e1a07001 	mov	r7, r1
    d898:	e1a06002 	mov	r6, r2
    d89c:	e3a04000 	mov	r4, #0, 0
    d8a0:	ea000000 	b	d8a8 <fat32_dir_lookup+0x1c>
    d8a4:	e2844001 	add	r4, r4, #1, 0
    d8a8:	e1540006 	cmp	r4, r6
    d8ac:	2a00000e 	bcs	d8ec <fat32_dir_lookup+0x60>
    d8b0:	e0875284 	add	r5, r7, r4, lsl #5
    d8b4:	e1a00005 	mov	r0, r5
    d8b8:	ebfffe54 	bl	d210 <fat32_dirent_free>
    d8bc:	e3500000 	cmp	r0, #0, 0
    d8c0:	1afffff7 	bne	d8a4 <fat32_dir_lookup+0x18>
    d8c4:	e5d5300b 	ldrb	r3, [r5, #11]
    d8c8:	e353000f 	cmp	r3, #15, 0
    d8cc:	0afffff4 	beq	d8a4 <fat32_dir_lookup+0x18>
    d8d0:	e3a0200b 	mov	r2, #11, 0
    d8d4:	e1a01005 	mov	r1, r5
    d8d8:	e1a00008 	mov	r0, r8
    d8dc:	eb00092b 	bl	fd90 <memcmp>
    d8e0:	e3500000 	cmp	r0, #0, 0
    d8e4:	1affffee 	bne	d8a4 <fat32_dir_lookup+0x18>
    d8e8:	ea000000 	b	d8f0 <fat32_dir_lookup+0x64>
    d8ec:	e3e04000 	mvn	r4, #0, 0
    d8f0:	e1a00004 	mov	r0, r4
    d8f4:	e8bd81f0 	pop	{r4, r5, r6, r7, r8, pc}

0000d8f8 <print_as_string>:
    d8f8:	e92d4070 	push	{r4, r5, r6, lr}
    d8fc:	e1a06001 	mov	r6, r1
    d900:	e1a05002 	mov	r5, r2
    d904:	e1a01000 	mov	r1, r0
    d908:	e59f002c 	ldr	r0, [pc, #44]	; d93c <print_as_string+0x44>
    d90c:	eb0009bc 	bl	10004 <printk>
    d910:	e3a04000 	mov	r4, #0, 0
    d914:	e1540005 	cmp	r4, r5
    d918:	aa000004 	bge	d930 <print_as_string+0x38>
    d91c:	e7d61004 	ldrb	r1, [r6, r4]
    d920:	e59f0018 	ldr	r0, [pc, #24]	; d940 <print_as_string+0x48>
    d924:	eb0009b6 	bl	10004 <printk>
    d928:	e2844001 	add	r4, r4, #1, 0
    d92c:	eafffff8 	b	d914 <print_as_string+0x1c>
    d930:	e59f000c 	ldr	r0, [pc, #12]	; d944 <print_as_string+0x4c>
    d934:	eb0009b2 	bl	10004 <printk>
    d938:	e8bd8070 	pop	{r4, r5, r6, pc}
    d93c:	0001157c 	.word	0x0001157c
    d940:	00013334 	.word	0x00013334
    d944:	00012170 	.word	0x00012170

0000d948 <print_bytes>:
    d948:	e92d41f0 	push	{r4, r5, r6, r7, r8, lr}
    d94c:	e1a07001 	mov	r7, r1
    d950:	e1a06002 	mov	r6, r2
    d954:	e1a01000 	mov	r1, r0
    d958:	e59f0044 	ldr	r0, [pc, #68]	; d9a4 <print_bytes+0x5c>
    d95c:	eb0009a8 	bl	10004 <printk>
    d960:	e3a04000 	mov	r4, #0, 0
    d964:	ea000005 	b	d980 <print_bytes+0x38>
    d968:	e59f0038 	ldr	r0, [pc, #56]	; d9a8 <print_bytes+0x60>
    d96c:	eb0009a4 	bl	10004 <printk>
    d970:	e7d71005 	ldrb	r1, [r7, r5]
    d974:	e59f0030 	ldr	r0, [pc, #48]	; d9ac <print_bytes+0x64>
    d978:	eb0009a1 	bl	10004 <printk>
    d97c:	e2844001 	add	r4, r4, #1, 0
    d980:	e1540006 	cmp	r4, r6
    d984:	aa000003 	bge	d998 <print_bytes+0x50>
    d988:	e1a05004 	mov	r5, r4
    d98c:	e314000f 	tst	r4, #15, 0
    d990:	1afffff6 	bne	d970 <print_bytes+0x28>
    d994:	eafffff3 	b	d968 <print_bytes+0x20>
    d998:	e59f0010 	ldr	r0, [pc, #16]	; d9b0 <print_bytes+0x68>
    d99c:	eb000998 	bl	10004 <printk>
    d9a0:	e8bd81f0 	pop	{r4, r5, r6, r7, r8, pc}
    d9a4:	0001157c 	.word	0x0001157c
    d9a8:	00013338 	.word	0x00013338
    d9ac:	0001333c 	.word	0x0001333c
    d9b0:	00012170 	.word	0x00012170

0000d9b4 <print_words>:
    d9b4:	e92d41f0 	push	{r4, r5, r6, r7, r8, lr}
    d9b8:	e1a07001 	mov	r7, r1
    d9bc:	e1a06002 	mov	r6, r2
    d9c0:	e1a01000 	mov	r1, r0
    d9c4:	e59f0044 	ldr	r0, [pc, #68]	; da10 <print_words+0x5c>
    d9c8:	eb00098d 	bl	10004 <printk>
    d9cc:	e3a04000 	mov	r4, #0, 0
    d9d0:	ea000005 	b	d9ec <print_words+0x38>
    d9d4:	e59f0038 	ldr	r0, [pc, #56]	; da14 <print_words+0x60>
    d9d8:	eb000989 	bl	10004 <printk>
    d9dc:	e7971105 	ldr	r1, [r7, r5, lsl #2]
    d9e0:	e59f0030 	ldr	r0, [pc, #48]	; da18 <print_words+0x64>
    d9e4:	eb000986 	bl	10004 <printk>
    d9e8:	e2844001 	add	r4, r4, #1, 0
    d9ec:	e1540006 	cmp	r4, r6
    d9f0:	aa000003 	bge	da04 <print_words+0x50>
    d9f4:	e1a05004 	mov	r5, r4
    d9f8:	e314000f 	tst	r4, #15, 0
    d9fc:	1afffff6 	bne	d9dc <print_words+0x28>
    da00:	eafffff3 	b	d9d4 <print_words+0x20>
    da04:	e59f0010 	ldr	r0, [pc, #16]	; da1c <print_words+0x68>
    da08:	eb00097d 	bl	10004 <printk>
    da0c:	e8bd81f0 	pop	{r4, r5, r6, r7, r8, pc}
    da10:	0001157c 	.word	0x0001157c
    da14:	00013338 	.word	0x00013338
    da18:	00013344 	.word	0x00013344
    da1c:	00012170 	.word	0x00012170

0000da20 <utf8_append>:
    da20:	e92d41f0 	push	{r4, r5, r6, r7, r8, lr}
    da24:	e24dd008 	sub	sp, sp, #8, 0
    da28:	e3120001 	tst	r2, #1, 0
    da2c:	1a000004 	bne	da44 <utf8_append+0x24>
    da30:	e1a07000 	mov	r7, r0
    da34:	e1a06001 	mov	r6, r1
    da38:	e1a08002 	mov	r8, r2
    da3c:	e3a04000 	mov	r4, #0, 0
    da40:	ea000015 	b	da9c <utf8_append+0x7c>
    da44:	e59f3094 	ldr	r3, [pc, #148]	; dae0 <utf8_append+0xc0>
    da48:	e58d3000 	str	r3, [sp]
    da4c:	e3a03044 	mov	r3, #68, 0	; 0x44
    da50:	e59f208c 	ldr	r2, [pc, #140]	; dae4 <utf8_append+0xc4>
    da54:	e59f108c 	ldr	r1, [pc, #140]	; dae8 <utf8_append+0xc8>
    da58:	e59f008c 	ldr	r0, [pc, #140]	; daec <utf8_append+0xcc>
    da5c:	eb000968 	bl	10004 <printk>
    da60:	eb000aa1 	bl	104ec <clean_reboot>
    da64:	e35300ff 	cmp	r3, #255, 0	; 0xff
    da68:	0a000018 	beq	dad0 <utf8_append+0xb0>
    da6c:	e0861001 	add	r1, r6, r1
    da70:	e5d10001 	ldrb	r0, [r1, #1]
    da74:	e1830400 	orr	r0, r3, r0, lsl #8
    da78:	eb000230 	bl	e340 <to_utf8>
    da7c:	e1a05000 	mov	r5, r0
    da80:	e1a01000 	mov	r1, r0
    da84:	e1a00007 	mov	r0, r7
    da88:	eb000a70 	bl	10450 <strcat>
    da8c:	e1a00005 	mov	r0, r5
    da90:	eb000a8e 	bl	104d0 <strlen>
    da94:	e0877000 	add	r7, r7, r0
    da98:	e2844002 	add	r4, r4, #2, 0
    da9c:	e1a01004 	mov	r1, r4
    daa0:	e1540008 	cmp	r4, r8
    daa4:	2a000006 	bcs	dac4 <utf8_append+0xa4>
    daa8:	e0862004 	add	r2, r6, r4
    daac:	e7d63004 	ldrb	r3, [r6, r4]
    dab0:	e3530000 	cmp	r3, #0, 0
    dab4:	1affffea 	bne	da64 <utf8_append+0x44>
    dab8:	e5d20001 	ldrb	r0, [r2, #1]
    dabc:	e3500000 	cmp	r0, #0, 0
    dac0:	1affffe7 	bne	da64 <utf8_append+0x44>
    dac4:	e1a00007 	mov	r0, r7
    dac8:	e28dd008 	add	sp, sp, #8, 0
    dacc:	e8bd81f0 	pop	{r4, r5, r6, r7, r8, pc}
    dad0:	e5d22001 	ldrb	r2, [r2, #1]
    dad4:	e35200ff 	cmp	r2, #255, 0	; 0xff
    dad8:	1affffe3 	bne	da6c <utf8_append+0x4c>
    dadc:	eafffff8 	b	dac4 <utf8_append+0xa4>
    dae0:	000133f8 	.word	0x000133f8
    dae4:	00013678 	.word	0x00013678
    dae8:	000133d8 	.word	0x000133d8
    daec:	00011458 	.word	0x00011458

0000daf0 <is_attr>:
    daf0:	e350000f 	cmp	r0, #15, 0
    daf4:	0a000003 	beq	db08 <is_attr+0x18>
    daf8:	e1d13000 	bics	r3, r1, r0
    dafc:	03a00001 	moveq	r0, #1, 0
    db00:	13a00000 	movne	r0, #0, 0
    db04:	e12fff1e 	bx	lr
    db08:	e1500001 	cmp	r0, r1
    db0c:	13a00000 	movne	r0, #0, 0
    db10:	03a00001 	moveq	r0, #1, 0
    db14:	e12fff1e 	bx	lr

0000db18 <lfn_checksum>:
    db18:	e1a03000 	mov	r3, r0
    db1c:	e3a0100b 	mov	r1, #11, 0
    db20:	e3a00000 	mov	r0, #0, 0
    db24:	ea000005 	b	db40 <lfn_checksum+0x28>
    db28:	e1a020a0 	lsr	r2, r0, #1
    db2c:	e0820380 	add	r0, r2, r0, lsl #7
    db30:	e4d32001 	ldrb	r2, [r3], #1
    db34:	e6e20070 	uxtab	r0, r2, r0
    db38:	e6ef0070 	uxtb	r0, r0
    db3c:	e2411001 	sub	r1, r1, #1, 0
    db40:	e3510000 	cmp	r1, #0, 0
    db44:	1afffff7 	bne	db28 <lfn_checksum+0x10>
    db48:	e12fff1e 	bx	lr

0000db4c <lfn_is_last>:
    db4c:	e1a00320 	lsr	r0, r0, #6
    db50:	e2000001 	and	r0, r0, #1, 0
    db54:	e12fff1e 	bx	lr

0000db58 <lfn_is_first>:
    db58:	e20000bf 	and	r0, r0, #191, 0	; 0xbf
    db5c:	e3500001 	cmp	r0, #1, 0
    db60:	13a00000 	movne	r0, #0, 0
    db64:	03a00001 	moveq	r0, #1, 0
    db68:	e12fff1e 	bx	lr

0000db6c <lfn_is_deleted>:
    db6c:	e20000e5 	and	r0, r0, #229, 0	; 0xe5
    db70:	e35000e5 	cmp	r0, #229, 0	; 0xe5
    db74:	13a00000 	movne	r0, #0, 0
    db78:	03a00001 	moveq	r0, #1, 0
    db7c:	e12fff1e 	bx	lr

0000db80 <fat32_dirent_is_deleted_lfn>:
    db80:	e52de004 	push	{lr}		; (str lr, [sp, #-4]!)
    db84:	e24dd00c 	sub	sp, sp, #12, 0
    db88:	e5d0300b 	ldrb	r3, [r0, #11]
    db8c:	e353000f 	cmp	r3, #15, 0
    db90:	1a000003 	bne	dba4 <fat32_dirent_is_deleted_lfn+0x24>
    db94:	e5d00000 	ldrb	r0, [r0]
    db98:	ebfffff3 	bl	db6c <lfn_is_deleted>
    db9c:	e28dd00c 	add	sp, sp, #12, 0
    dba0:	e49df004 	pop	{pc}		; (ldr pc, [sp], #4)
    dba4:	e59f3018 	ldr	r3, [pc, #24]	; dbc4 <fat32_dirent_is_deleted_lfn+0x44>
    dba8:	e58d3000 	str	r3, [sp]
    dbac:	e3a03021 	mov	r3, #33, 0	; 0x21
    dbb0:	e59f2010 	ldr	r2, [pc, #16]	; dbc8 <fat32_dirent_is_deleted_lfn+0x48>
    dbb4:	e59f1010 	ldr	r1, [pc, #16]	; dbcc <fat32_dirent_is_deleted_lfn+0x4c>
    dbb8:	e59f0010 	ldr	r0, [pc, #16]	; dbd0 <fat32_dirent_is_deleted_lfn+0x50>
    dbbc:	eb000910 	bl	10004 <printk>
    dbc0:	eb000a49 	bl	104ec <clean_reboot>
    dbc4:	00013408 	.word	0x00013408
    dbc8:	00013684 	.word	0x00013684
    dbcc:	000133d8 	.word	0x000133d8
    dbd0:	00011458 	.word	0x00011458

0000dbd4 <lfn_print_ent>:
    dbd4:	e92d43f0 	push	{r4, r5, r6, r7, r8, r9, lr}
    dbd8:	e24dd02c 	sub	sp, sp, #44, 0	; 0x2c
    dbdc:	e1a05000 	mov	r5, r0
    dbe0:	e1a06001 	mov	r6, r1
    dbe4:	e1a07000 	mov	r7, r0
    dbe8:	e4d74001 	ldrb	r4, [r7], #1
    dbec:	e1a00004 	mov	r0, r4
    dbf0:	ebffffd8 	bl	db58 <lfn_is_first>
    dbf4:	e1a08000 	mov	r8, r0
    dbf8:	e1a00004 	mov	r0, r4
    dbfc:	ebffffd2 	bl	db4c <lfn_is_last>
    dc00:	e1a09000 	mov	r9, r0
    dc04:	e1a00004 	mov	r0, r4
    dc08:	ebffffd7 	bl	db6c <lfn_is_deleted>
    dc0c:	e58d0000 	str	r0, [sp]
    dc10:	e1a03009 	mov	r3, r9
    dc14:	e1a02008 	mov	r2, r8
    dc18:	e1a01004 	mov	r1, r4
    dc1c:	e59f009c 	ldr	r0, [pc, #156]	; dcc0 <lfn_print_ent+0xec>
    dc20:	eb0008f7 	bl	10004 <printk>
    dc24:	e3a0200a 	mov	r2, #10, 0
    dc28:	e1a01007 	mov	r1, r7
    dc2c:	e28d000c 	add	r0, sp, #12, 0
    dc30:	eb000881 	bl	fe3c <memcpy>
    dc34:	e3a0200c 	mov	r2, #12, 0
    dc38:	e285100e 	add	r1, r5, #14, 0
    dc3c:	e28d0016 	add	r0, sp, #22, 0
    dc40:	eb00087d 	bl	fe3c <memcpy>
    dc44:	e3a02004 	mov	r2, #4, 0
    dc48:	e285101c 	add	r1, r5, #28, 0
    dc4c:	e28d0022 	add	r0, sp, #34, 0	; 0x22
    dc50:	eb000879 	bl	fe3c <memcpy>
    dc54:	e3a04000 	mov	r4, #0, 0
    dc58:	e5cd4026 	strb	r4, [sp, #38]	; 0x26
    dc5c:	ea000004 	b	dc74 <lfn_print_ent+0xa0>
    dc60:	e1a03002 	mov	r3, r2
    dc64:	e1a01004 	mov	r1, r4
    dc68:	e59f0054 	ldr	r0, [pc, #84]	; dcc4 <lfn_print_ent+0xf0>
    dc6c:	eb0008e4 	bl	10004 <printk>
    dc70:	e2844002 	add	r4, r4, #2, 0
    dc74:	e3540019 	cmp	r4, #25, 0
    dc78:	ca00000a 	bgt	dca8 <lfn_print_ent+0xd4>
    dc7c:	e28d3028 	add	r3, sp, #40, 0	; 0x28
    dc80:	e0833004 	add	r3, r3, r4
    dc84:	e553201c 	ldrb	r2, [r3, #-28]	; 0xffffffe4
    dc88:	e3520000 	cmp	r2, #0, 0
    dc8c:	1afffff3 	bne	dc60 <lfn_print_ent+0x8c>
    dc90:	e2843001 	add	r3, r4, #1, 0
    dc94:	e28d1028 	add	r1, sp, #40, 0	; 0x28
    dc98:	e0813003 	add	r3, r1, r3
    dc9c:	e553301c 	ldrb	r3, [r3, #-28]	; 0xffffffe4
    dca0:	e3530000 	cmp	r3, #0, 0
    dca4:	1affffed 	bne	dc60 <lfn_print_ent+0x8c>
    dca8:	e1a02006 	mov	r2, r6
    dcac:	e5d5100d 	ldrb	r1, [r5, #13]
    dcb0:	e59f0010 	ldr	r0, [pc, #16]	; dcc8 <lfn_print_ent+0xf4>
    dcb4:	eb0008d2 	bl	10004 <printk>
    dcb8:	e28dd02c 	add	sp, sp, #44, 0	; 0x2c
    dcbc:	e8bd83f0 	pop	{r4, r5, r6, r7, r8, r9, pc}
    dcc0:	00013428 	.word	0x00013428
    dcc4:	00013454 	.word	0x00013454
    dcc8:	0001346c 	.word	0x0001346c

0000dccc <lfn_get_name>:
    dccc:	e92d4070 	push	{r4, r5, r6, lr}
    dcd0:	e24dd008 	sub	sp, sp, #8, 0
    dcd4:	e1a06000 	mov	r6, r0
    dcd8:	e59f0080 	ldr	r0, [pc, #128]	; dd60 <lfn_get_name+0x94>
    dcdc:	e3a03000 	mov	r3, #0, 0
    dce0:	e5c03000 	strb	r3, [r0]
    dce4:	e2415001 	sub	r5, r1, #1, 0
    dce8:	e3550000 	cmp	r5, #0, 0
    dcec:	ba000016 	blt	dd4c <lfn_get_name+0x80>
    dcf0:	e0864285 	add	r4, r6, r5, lsl #5
    dcf4:	e5d4300b 	ldrb	r3, [r4, #11]
    dcf8:	e353000f 	cmp	r3, #15, 0
    dcfc:	1a00000a 	bne	dd2c <lfn_get_name+0x60>
    dd00:	e3a0200a 	mov	r2, #10, 0
    dd04:	e2841001 	add	r1, r4, #1, 0
    dd08:	ebffff44 	bl	da20 <utf8_append>
    dd0c:	e3a0200c 	mov	r2, #12, 0
    dd10:	e284100e 	add	r1, r4, #14, 0
    dd14:	ebffff41 	bl	da20 <utf8_append>
    dd18:	e3a02004 	mov	r2, #4, 0
    dd1c:	e284101c 	add	r1, r4, #28, 0
    dd20:	ebffff3e 	bl	da20 <utf8_append>
    dd24:	e2455001 	sub	r5, r5, #1, 0
    dd28:	eaffffee 	b	dce8 <lfn_get_name+0x1c>
    dd2c:	e59f3030 	ldr	r3, [pc, #48]	; dd64 <lfn_get_name+0x98>
    dd30:	e58d3000 	str	r3, [sp]
    dd34:	e3a03055 	mov	r3, #85, 0	; 0x55
    dd38:	e59f2028 	ldr	r2, [pc, #40]	; dd68 <lfn_get_name+0x9c>
    dd3c:	e59f1028 	ldr	r1, [pc, #40]	; dd6c <lfn_get_name+0xa0>
    dd40:	e59f0028 	ldr	r0, [pc, #40]	; dd70 <lfn_get_name+0xa4>
    dd44:	eb0008ae 	bl	10004 <printk>
    dd48:	eb0009e7 	bl	104ec <clean_reboot>
    dd4c:	e3a03000 	mov	r3, #0, 0
    dd50:	e5c03000 	strb	r3, [r0]
    dd54:	e59f0004 	ldr	r0, [pc, #4]	; dd60 <lfn_get_name+0x94>
    dd58:	e28dd008 	add	sp, sp, #8, 0
    dd5c:	e8bd8070 	pop	{r4, r5, r6, pc}
    dd60:	00014d48 	.word	0x00014d48
    dd64:	00013488 	.word	0x00013488
    dd68:	000136a0 	.word	0x000136a0
    dd6c:	000133d8 	.word	0x000133d8
    dd70:	00011458 	.word	0x00011458

0000dd74 <lfn_print>:
    dd74:	e92d43f0 	push	{r4, r5, r6, r7, r8, r9, lr}
    dd78:	e24dd00c 	sub	sp, sp, #12, 0
    dd7c:	e2518000 	subs	r8, r1, #0, 0
    dd80:	da000007 	ble	dda4 <lfn_print+0x30>
    dd84:	e1a06000 	mov	r6, r0
    dd88:	e1a07002 	mov	r7, r2
    dd8c:	e1a09003 	mov	r9, r3
    dd90:	e2483001 	sub	r3, r8, #1, 0
    dd94:	e3530001 	cmp	r3, #1, 0
    dd98:	8a000009 	bhi	ddc4 <lfn_print+0x50>
    dd9c:	e3a04000 	mov	r4, #0, 0
    dda0:	ea000021 	b	de2c <lfn_print+0xb8>
    dda4:	e59f3134 	ldr	r3, [pc, #308]	; dee0 <lfn_print+0x16c>
    dda8:	e58d3000 	str	r3, [sp]
    ddac:	e3a0305f 	mov	r3, #95, 0	; 0x5f
    ddb0:	e59f212c 	ldr	r2, [pc, #300]	; dee4 <lfn_print+0x170>
    ddb4:	e59f112c 	ldr	r1, [pc, #300]	; dee8 <lfn_print+0x174>
    ddb8:	e59f012c 	ldr	r0, [pc, #300]	; deec <lfn_print+0x178>
    ddbc:	eb000890 	bl	10004 <printk>
    ddc0:	eb0009c9 	bl	104ec <clean_reboot>
    ddc4:	e59f3124 	ldr	r3, [pc, #292]	; def0 <lfn_print+0x17c>
    ddc8:	e58d3000 	str	r3, [sp]
    ddcc:	e3a03062 	mov	r3, #98, 0	; 0x62
    ddd0:	e59f210c 	ldr	r2, [pc, #268]	; dee4 <lfn_print+0x170>
    ddd4:	e59f110c 	ldr	r1, [pc, #268]	; dee8 <lfn_print+0x174>
    ddd8:	e59f0114 	ldr	r0, [pc, #276]	; def4 <lfn_print+0x180>
    dddc:	eb000888 	bl	10004 <printk>
    dde0:	eb0009c1 	bl	104ec <clean_reboot>
    dde4:	e59f310c 	ldr	r3, [pc, #268]	; def8 <lfn_print+0x184>
    dde8:	e58d3000 	str	r3, [sp]
    ddec:	e3a03064 	mov	r3, #100, 0	; 0x64
    ddf0:	e59f20ec 	ldr	r2, [pc, #236]	; dee4 <lfn_print+0x170>
    ddf4:	e59f10ec 	ldr	r1, [pc, #236]	; dee8 <lfn_print+0x174>
    ddf8:	e59f00ec 	ldr	r0, [pc, #236]	; deec <lfn_print+0x178>
    ddfc:	eb000880 	bl	10004 <printk>
    de00:	eb0009b9 	bl	104ec <clean_reboot>
    de04:	e1a01004 	mov	r1, r4
    de08:	e59f00ec 	ldr	r0, [pc, #236]	; defc <lfn_print+0x188>
    de0c:	eb00087c 	bl	10004 <printk>
    de10:	e1a01007 	mov	r1, r7
    de14:	e1a00005 	mov	r0, r5
    de18:	ebffff6d 	bl	dbd4 <lfn_print_ent>
    de1c:	e5d5000d 	ldrb	r0, [r5, #13]
    de20:	e1500007 	cmp	r0, r7
    de24:	1a00000a 	bne	de54 <lfn_print+0xe0>
    de28:	e2844001 	add	r4, r4, #1, 0
    de2c:	e1540008 	cmp	r4, r8
    de30:	aa00000f 	bge	de74 <lfn_print+0x100>
    de34:	e0865284 	add	r5, r6, r4, lsl #5
    de38:	e7d60284 	ldrb	r0, [r6, r4, lsl #5]
    de3c:	ebffff4a 	bl	db6c <lfn_is_deleted>
    de40:	e3500000 	cmp	r0, #0, 0
    de44:	1affffe6 	bne	dde4 <lfn_print+0x70>
    de48:	e3590000 	cmp	r9, #0, 0
    de4c:	0afffff2 	beq	de1c <lfn_print+0xa8>
    de50:	eaffffeb 	b	de04 <lfn_print+0x90>
    de54:	e59f30a4 	ldr	r3, [pc, #164]	; df00 <lfn_print+0x18c>
    de58:	e58d3000 	str	r3, [sp]
    de5c:	e3a03069 	mov	r3, #105, 0	; 0x69
    de60:	e59f207c 	ldr	r2, [pc, #124]	; dee4 <lfn_print+0x170>
    de64:	e59f107c 	ldr	r1, [pc, #124]	; dee8 <lfn_print+0x174>
    de68:	e59f007c 	ldr	r0, [pc, #124]	; deec <lfn_print+0x178>
    de6c:	eb000864 	bl	10004 <printk>
    de70:	eb00099d 	bl	104ec <clean_reboot>
    de74:	e5d60000 	ldrb	r0, [r6]
    de78:	ebffff33 	bl	db4c <lfn_is_last>
    de7c:	e3500000 	cmp	r0, #0, 0
    de80:	0a000006 	beq	dea0 <lfn_print+0x12c>
    de84:	e248837e 	sub	r8, r8, #-134217727	; 0xf8000001
    de88:	e7d60288 	ldrb	r0, [r6, r8, lsl #5]
    de8c:	ebffff31 	bl	db58 <lfn_is_first>
    de90:	e3500000 	cmp	r0, #0, 0
    de94:	0a000009 	beq	dec0 <lfn_print+0x14c>
    de98:	e28dd00c 	add	sp, sp, #12, 0
    de9c:	e8bd83f0 	pop	{r4, r5, r6, r7, r8, r9, pc}
    dea0:	e59f305c 	ldr	r3, [pc, #92]	; df04 <lfn_print+0x190>
    dea4:	e58d3000 	str	r3, [sp]
    dea8:	e3a0306b 	mov	r3, #107, 0	; 0x6b
    deac:	e59f2030 	ldr	r2, [pc, #48]	; dee4 <lfn_print+0x170>
    deb0:	e59f1030 	ldr	r1, [pc, #48]	; dee8 <lfn_print+0x174>
    deb4:	e59f0030 	ldr	r0, [pc, #48]	; deec <lfn_print+0x178>
    deb8:	eb000851 	bl	10004 <printk>
    debc:	eb00098a 	bl	104ec <clean_reboot>
    dec0:	e59f3040 	ldr	r3, [pc, #64]	; df08 <lfn_print+0x194>
    dec4:	e58d3000 	str	r3, [sp]
    dec8:	e3a0306c 	mov	r3, #108, 0	; 0x6c
    decc:	e59f2010 	ldr	r2, [pc, #16]	; dee4 <lfn_print+0x170>
    ded0:	e59f1010 	ldr	r1, [pc, #16]	; dee8 <lfn_print+0x174>
    ded4:	e59f0010 	ldr	r0, [pc, #16]	; deec <lfn_print+0x178>
    ded8:	eb000849 	bl	10004 <printk>
    dedc:	eb000982 	bl	104ec <clean_reboot>
    dee0:	000134a8 	.word	0x000134a8
    dee4:	000136b0 	.word	0x000136b0
    dee8:	000133d8 	.word	0x000133d8
    deec:	00011458 	.word	0x00011458
    def0:	000134fc 	.word	0x000134fc
    def4:	000134b4 	.word	0x000134b4
    def8:	00013510 	.word	0x00013510
    defc:	00013530 	.word	0x00013530
    df00:	0001353c 	.word	0x0001353c
    df04:	00013550 	.word	0x00013550
    df08:	00013568 	.word	0x00013568

0000df0c <fat32_dir_filename>:
    df0c:	e92d41f0 	push	{r4, r5, r6, r7, r8, lr}
    df10:	e24dd008 	sub	sp, sp, #8, 0
    df14:	e1a06000 	mov	r6, r0
    df18:	e1a05001 	mov	r5, r1
    df1c:	e1a07002 	mov	r7, r2
    df20:	e1a00001 	mov	r0, r1
    df24:	ebfffcb9 	bl	d210 <fat32_dirent_free>
    df28:	e2504000 	subs	r4, r0, #0, 0
    df2c:	1a000017 	bne	df90 <fat32_dir_filename+0x84>
    df30:	e5d5800b 	ldrb	r8, [r5, #11]
    df34:	e358000f 	cmp	r8, #15, 0
    df38:	0a00001c 	beq	dfb0 <fat32_dir_filename+0xa4>
    df3c:	e3a01010 	mov	r1, #16, 0
    df40:	e1a00008 	mov	r0, r8
    df44:	ebfffee9 	bl	daf0 <is_attr>
    df48:	e3500000 	cmp	r0, #0, 0
    df4c:	1a000009 	bne	df78 <fat32_dir_filename+0x6c>
    df50:	e3a01020 	mov	r1, #32, 0
    df54:	e1a00008 	mov	r0, r8
    df58:	ebfffee4 	bl	daf0 <is_attr>
    df5c:	e3500000 	cmp	r0, #0, 0
    df60:	1a000004 	bne	df78 <fat32_dir_filename+0x6c>
    df64:	e3a01008 	mov	r1, #8, 0
    df68:	e1a00008 	mov	r0, r8
    df6c:	ebfffedf 	bl	daf0 <is_attr>
    df70:	e3500000 	cmp	r0, #0, 0
    df74:	0a00003c 	beq	e06c <fat32_dir_filename+0x160>
    df78:	e5d5300c 	ldrb	r3, [r5, #12]
    df7c:	e3530018 	cmp	r3, #24, 0
    df80:	0a000054 	beq	e0d8 <fat32_dir_filename+0x1cc>
    df84:	e1a0c004 	mov	ip, r4
    df88:	e1a01004 	mov	r1, r4
    df8c:	ea000041 	b	e098 <fat32_dir_filename+0x18c>
    df90:	e59f31b4 	ldr	r3, [pc, #436]	; e14c <fat32_dir_filename+0x240>
    df94:	e58d3000 	str	r3, [sp]
    df98:	e3a03071 	mov	r3, #113, 0	; 0x71
    df9c:	e59f21ac 	ldr	r2, [pc, #428]	; e150 <fat32_dir_filename+0x244>
    dfa0:	e59f11ac 	ldr	r1, [pc, #428]	; e154 <fat32_dir_filename+0x248>
    dfa4:	e59f01ac 	ldr	r0, [pc, #428]	; e158 <fat32_dir_filename+0x24c>
    dfa8:	eb000815 	bl	10004 <printk>
    dfac:	eb00094e 	bl	104ec <clean_reboot>
    dfb0:	e0472005 	sub	r2, r7, r5
    dfb4:	e1a032c2 	asr	r3, r2, #5
    dfb8:	e3a04001 	mov	r4, #1, 0
    dfbc:	e1540003 	cmp	r4, r3
    dfc0:	aa000004 	bge	dfd8 <fat32_dir_filename+0xcc>
    dfc4:	e0852284 	add	r2, r5, r4, lsl #5
    dfc8:	e5d2200b 	ldrb	r2, [r2, #11]
    dfcc:	e352000f 	cmp	r2, #15, 0
    dfd0:	02844001 	addeq	r4, r4, #1, 0
    dfd4:	0afffff8 	beq	dfbc <fat32_dir_filename+0xb0>
    dfd8:	e1540003 	cmp	r4, r3
    dfdc:	aa000012 	bge	e02c <fat32_dir_filename+0x120>
    dfe0:	e0857284 	add	r7, r5, r4, lsl #5
    dfe4:	e5d7800b 	ldrb	r8, [r7, #11]
    dfe8:	e3a01010 	mov	r1, #16, 0
    dfec:	e1a00008 	mov	r0, r8
    dff0:	ebfffebe 	bl	daf0 <is_attr>
    dff4:	e3500000 	cmp	r0, #0, 0
    dff8:	1a000004 	bne	e010 <fat32_dir_filename+0x104>
    dffc:	e3a01020 	mov	r1, #32, 0
    e000:	e1a00008 	mov	r0, r8
    e004:	ebfffeb9 	bl	daf0 <is_attr>
    e008:	e3500000 	cmp	r0, #0, 0
    e00c:	0a00000e 	beq	e04c <fat32_dir_filename+0x140>
    e010:	e1a01004 	mov	r1, r4
    e014:	e1a00005 	mov	r0, r5
    e018:	ebffff2b 	bl	dccc <lfn_get_name>
    e01c:	e1a01000 	mov	r1, r0
    e020:	e1a00006 	mov	r0, r6
    e024:	eb000921 	bl	104b0 <strcpy>
    e028:	ea000044 	b	e140 <fat32_dir_filename+0x234>
    e02c:	e59f3128 	ldr	r3, [pc, #296]	; e15c <fat32_dir_filename+0x250>
    e030:	e58d3000 	str	r3, [sp]
    e034:	e3a0307a 	mov	r3, #122, 0	; 0x7a
    e038:	e59f2110 	ldr	r2, [pc, #272]	; e150 <fat32_dir_filename+0x244>
    e03c:	e59f1110 	ldr	r1, [pc, #272]	; e154 <fat32_dir_filename+0x248>
    e040:	e59f0110 	ldr	r0, [pc, #272]	; e158 <fat32_dir_filename+0x24c>
    e044:	eb0007ee 	bl	10004 <printk>
    e048:	eb000927 	bl	104ec <clean_reboot>
    e04c:	e59f310c 	ldr	r3, [pc, #268]	; e160 <fat32_dir_filename+0x254>
    e050:	e58d3000 	str	r3, [sp]
    e054:	e3a0307b 	mov	r3, #123, 0	; 0x7b
    e058:	e59f20f0 	ldr	r2, [pc, #240]	; e150 <fat32_dir_filename+0x244>
    e05c:	e59f10f0 	ldr	r1, [pc, #240]	; e154 <fat32_dir_filename+0x248>
    e060:	e59f00f0 	ldr	r0, [pc, #240]	; e158 <fat32_dir_filename+0x24c>
    e064:	eb0007e6 	bl	10004 <printk>
    e068:	eb00091f 	bl	104ec <clean_reboot>
    e06c:	e59f30f0 	ldr	r3, [pc, #240]	; e164 <fat32_dir_filename+0x258>
    e070:	e58d3000 	str	r3, [sp]
    e074:	e3a0307f 	mov	r3, #127, 0	; 0x7f
    e078:	e59f20d0 	ldr	r2, [pc, #208]	; e150 <fat32_dir_filename+0x244>
    e07c:	e59f10d0 	ldr	r1, [pc, #208]	; e154 <fat32_dir_filename+0x248>
    e080:	e59f00d0 	ldr	r0, [pc, #208]	; e158 <fat32_dir_filename+0x24c>
    e084:	eb0007de 	bl	10004 <printk>
    e088:	eb000917 	bl	104ec <clean_reboot>
    e08c:	e7c63001 	strb	r3, [r6, r1]
    e090:	e2811001 	add	r1, r1, #1, 0
    e094:	e2844001 	add	r4, r4, #1, 0
    e098:	e3540007 	cmp	r4, #7, 0
    e09c:	ca00000f 	bgt	e0e0 <fat32_dir_filename+0x1d4>
    e0a0:	e7d53004 	ldrb	r3, [r5, r4]
    e0a4:	e3530020 	cmp	r3, #32, 0
    e0a8:	0afffff9 	beq	e094 <fat32_dir_filename+0x188>
    e0ac:	e3530040 	cmp	r3, #64, 0	; 0x40
    e0b0:	93a02000 	movls	r2, #0, 0
    e0b4:	83a02001 	movhi	r2, #1, 0
    e0b8:	e35c0000 	cmp	ip, #0, 0
    e0bc:	03a02000 	moveq	r2, #0, 0
    e0c0:	e3520000 	cmp	r2, #0, 0
    e0c4:	0afffff0 	beq	e08c <fat32_dir_filename+0x180>
    e0c8:	e353005a 	cmp	r3, #90, 0	; 0x5a
    e0cc:	92833020 	addls	r3, r3, #32, 0
    e0d0:	96ef3073 	uxtbls	r3, r3
    e0d4:	eaffffec 	b	e08c <fat32_dir_filename+0x180>
    e0d8:	e3a0c001 	mov	ip, #1, 0
    e0dc:	eaffffa9 	b	df88 <fat32_dir_filename+0x7c>
    e0e0:	e2810001 	add	r0, r1, #1, 0
    e0e4:	e3a0302e 	mov	r3, #46, 0	; 0x2e
    e0e8:	e7c63001 	strb	r3, [r6, r1]
    e0ec:	ea000002 	b	e0fc <fat32_dir_filename+0x1f0>
    e0f0:	e7c63000 	strb	r3, [r6, r0]
    e0f4:	e2844001 	add	r4, r4, #1, 0
    e0f8:	e2800001 	add	r0, r0, #1, 0
    e0fc:	e354000a 	cmp	r4, #10, 0
    e100:	ca00000b 	bgt	e134 <fat32_dir_filename+0x228>
    e104:	e7d53004 	ldrb	r3, [r5, r4]
    e108:	e3530040 	cmp	r3, #64, 0	; 0x40
    e10c:	93a02000 	movls	r2, #0, 0
    e110:	83a02001 	movhi	r2, #1, 0
    e114:	e35c0000 	cmp	ip, #0, 0
    e118:	03a02000 	moveq	r2, #0, 0
    e11c:	e3520000 	cmp	r2, #0, 0
    e120:	0afffff2 	beq	e0f0 <fat32_dir_filename+0x1e4>
    e124:	e353005a 	cmp	r3, #90, 0	; 0x5a
    e128:	92833020 	addls	r3, r3, #32, 0
    e12c:	96ef3073 	uxtbls	r3, r3
    e130:	eaffffee 	b	e0f0 <fat32_dir_filename+0x1e4>
    e134:	e3a03000 	mov	r3, #0, 0
    e138:	e7c63000 	strb	r3, [r6, r0]
    e13c:	e1a07005 	mov	r7, r5
    e140:	e1a00007 	mov	r0, r7
    e144:	e28dd008 	add	sp, sp, #8, 0
    e148:	e8bd81f0 	pop	{r4, r5, r6, r7, r8, pc}
    e14c:	00013588 	.word	0x00013588
    e150:	000136bc 	.word	0x000136bc
    e154:	000133d8 	.word	0x000133d8
    e158:	00011458 	.word	0x00011458
    e15c:	000135a0 	.word	0x000135a0
    e160:	000135a8 	.word	0x000135a8
    e164:	000135f0 	.word	0x000135f0

0000e168 <fat32_lfn_print>:
    e168:	e92d40f0 	push	{r4, r5, r6, r7, lr}
    e16c:	e24dd00c 	sub	sp, sp, #12, 0
    e170:	e1a05001 	mov	r5, r1
    e174:	e5d1300b 	ldrb	r3, [r1, #11]
    e178:	e353000f 	cmp	r3, #15, 0
    e17c:	0a000004 	beq	e194 <fat32_lfn_print+0x2c>
    e180:	ebfffdb8 	bl	d868 <fat32_dirent_print>
    e184:	e3a04001 	mov	r4, #1, 0
    e188:	e1a00004 	mov	r0, r4
    e18c:	e28dd00c 	add	sp, sp, #12, 0
    e190:	e8bd80f0 	pop	{r4, r5, r6, r7, pc}
    e194:	e1a06002 	mov	r6, r2
    e198:	e1a01000 	mov	r1, r0
    e19c:	e59f00e4 	ldr	r0, [pc, #228]	; e288 <fat32_lfn_print+0x120>
    e1a0:	eb000797 	bl	10004 <printk>
    e1a4:	e3a04000 	mov	r4, #0, 0
    e1a8:	e1540006 	cmp	r4, r6
    e1ac:	aa000004 	bge	e1c4 <fat32_lfn_print+0x5c>
    e1b0:	e0853284 	add	r3, r5, r4, lsl #5
    e1b4:	e5d3300b 	ldrb	r3, [r3, #11]
    e1b8:	e353000f 	cmp	r3, #15, 0
    e1bc:	02844001 	addeq	r4, r4, #1, 0
    e1c0:	0afffff8 	beq	e1a8 <fat32_lfn_print+0x40>
    e1c4:	e1540006 	cmp	r4, r6
    e1c8:	aa00001e 	bge	e248 <fat32_lfn_print+0xe0>
    e1cc:	e0856284 	add	r6, r5, r4, lsl #5
    e1d0:	e5d6700b 	ldrb	r7, [r6, #11]
    e1d4:	e3a01010 	mov	r1, #16, 0
    e1d8:	e1a00007 	mov	r0, r7
    e1dc:	ebfffe43 	bl	daf0 <is_attr>
    e1e0:	e3500000 	cmp	r0, #0, 0
    e1e4:	1a000004 	bne	e1fc <fat32_lfn_print+0x94>
    e1e8:	e3a01020 	mov	r1, #32, 0
    e1ec:	e1a00007 	mov	r0, r7
    e1f0:	ebfffe3e 	bl	daf0 <is_attr>
    e1f4:	e3500000 	cmp	r0, #0, 0
    e1f8:	0a00001a 	beq	e268 <fat32_lfn_print+0x100>
    e1fc:	e59f0088 	ldr	r0, [pc, #136]	; e28c <fat32_lfn_print+0x124>
    e200:	eb00077f 	bl	10004 <printk>
    e204:	e1a00006 	mov	r0, r6
    e208:	ebfffe42 	bl	db18 <lfn_checksum>
    e20c:	e1a02000 	mov	r2, r0
    e210:	e3a03000 	mov	r3, #0, 0
    e214:	e1a01004 	mov	r1, r4
    e218:	e1a00005 	mov	r0, r5
    e21c:	ebfffed4 	bl	dd74 <lfn_print>
    e220:	e1a01004 	mov	r1, r4
    e224:	e1a00005 	mov	r0, r5
    e228:	ebfffea7 	bl	dccc <lfn_get_name>
    e22c:	e1a01000 	mov	r1, r0
    e230:	e59f0058 	ldr	r0, [pc, #88]	; e290 <fat32_lfn_print+0x128>
    e234:	eb000772 	bl	10004 <printk>
    e238:	e2844001 	add	r4, r4, #1, 0
    e23c:	e1a00006 	mov	r0, r6
    e240:	ebfffcf5 	bl	d61c <fat32_dirent_print_helper>
    e244:	eaffffcf 	b	e188 <fat32_lfn_print+0x20>
    e248:	e59f3044 	ldr	r3, [pc, #68]	; e294 <fat32_lfn_print+0x12c>
    e24c:	e58d3000 	str	r3, [sp]
    e250:	e3a030ac 	mov	r3, #172, 0	; 0xac
    e254:	e59f203c 	ldr	r2, [pc, #60]	; e298 <fat32_lfn_print+0x130>
    e258:	e59f103c 	ldr	r1, [pc, #60]	; e29c <fat32_lfn_print+0x134>
    e25c:	e59f003c 	ldr	r0, [pc, #60]	; e2a0 <fat32_lfn_print+0x138>
    e260:	eb000767 	bl	10004 <printk>
    e264:	eb0008a0 	bl	104ec <clean_reboot>
    e268:	e59f3034 	ldr	r3, [pc, #52]	; e2a4 <fat32_lfn_print+0x13c>
    e26c:	e58d3000 	str	r3, [sp]
    e270:	e3a030ad 	mov	r3, #173, 0	; 0xad
    e274:	e59f201c 	ldr	r2, [pc, #28]	; e298 <fat32_lfn_print+0x130>
    e278:	e59f101c 	ldr	r1, [pc, #28]	; e29c <fat32_lfn_print+0x134>
    e27c:	e59f001c 	ldr	r0, [pc, #28]	; e2a0 <fat32_lfn_print+0x138>
    e280:	eb00075f 	bl	10004 <printk>
    e284:	eb000898 	bl	104ec <clean_reboot>
    e288:	0001332c 	.word	0x0001332c
    e28c:	00012170 	.word	0x00012170
    e290:	00013654 	.word	0x00013654
    e294:	00013648 	.word	0x00013648
    e298:	000136d0 	.word	0x000136d0
    e29c:	000133d8 	.word	0x000133d8
    e2a0:	00011458 	.word	0x00011458
    e2a4:	000135a8 	.word	0x000135a8

0000e2a8 <codepoint_len>:
    e2a8:	e1a0c000 	mov	ip, r0
    e2ac:	e59f2040 	ldr	r2, [pc, #64]	; e2f4 <codepoint_len+0x4c>
    e2b0:	e3a00000 	mov	r0, #0, 0
    e2b4:	ea000001 	b	e2c0 <codepoint_len+0x18>
    e2b8:	e2800001 	add	r0, r0, #1, 0
    e2bc:	e2822004 	add	r2, r2, #4, 0
    e2c0:	e5923000 	ldr	r3, [r2]
    e2c4:	e3530000 	cmp	r3, #0, 0
    e2c8:	0a000005 	beq	e2e4 <codepoint_len+0x3c>
    e2cc:	e5931004 	ldr	r1, [r3, #4]
    e2d0:	e151000c 	cmp	r1, ip
    e2d4:	8afffff7 	bhi	e2b8 <codepoint_len+0x10>
    e2d8:	e5933008 	ldr	r3, [r3, #8]
    e2dc:	e153000c 	cmp	r3, ip
    e2e0:	3afffff4 	bcc	e2b8 <codepoint_len+0x10>
    e2e4:	e3500004 	cmp	r0, #4, 0
    e2e8:	d12fff1e 	bxle	lr
    e2ec:	e3e00000 	mvn	r0, #0, 0
    e2f0:	e12fff1e 	bx	lr
    e2f4:	00014bcc 	.word	0x00014bcc

0000e2f8 <utf8_len>:
    e2f8:	e1a0c000 	mov	ip, r0
    e2fc:	e59f1038 	ldr	r1, [pc, #56]	; e33c <utf8_len+0x44>
    e300:	e3a00000 	mov	r0, #0, 0
    e304:	e5913000 	ldr	r3, [r1]
    e308:	e3530000 	cmp	r3, #0, 0
    e30c:	0a000006 	beq	e32c <utf8_len+0x34>
    e310:	e5d32000 	ldrb	r2, [r3]
    e314:	e1cc2002 	bic	r2, ip, r2
    e318:	e5d33001 	ldrb	r3, [r3, #1]
    e31c:	e1520003 	cmp	r2, r3
    e320:	12800001 	addne	r0, r0, #1, 0
    e324:	12811004 	addne	r1, r1, #4, 0
    e328:	1afffff5 	bne	e304 <utf8_len+0xc>
    e32c:	e3500004 	cmp	r0, #4, 0
    e330:	d12fff1e 	bxle	lr
    e334:	e3e00000 	mvn	r0, #0, 0
    e338:	e12fff1e 	bx	lr
    e33c:	00014bcc 	.word	0x00014bcc

0000e340 <to_utf8>:
    e340:	e92d4070 	push	{r4, r5, r6, lr}
    e344:	e1a04000 	mov	r4, r0
    e348:	ebffffd6 	bl	e2a8 <codepoint_len>
    e34c:	e250c000 	subs	ip, r0, #0, 0
    e350:	ba00001c 	blt	e3c8 <to_utf8+0x88>
    e354:	e59f3074 	ldr	r3, [pc, #116]	; e3d0 <to_utf8+0x90>
    e358:	e5930000 	ldr	r0, [r3]
    e35c:	e590500c 	ldr	r5, [r0, #12]
    e360:	e24c1001 	sub	r1, ip, #1, 0
    e364:	e0010591 	mul	r1, r1, r5
    e368:	e793210c 	ldr	r2, [r3, ip, lsl #2]
    e36c:	e5d23000 	ldrb	r3, [r2]
    e370:	e0033134 	and	r3, r3, r4, lsr r1
    e374:	e5d22001 	ldrb	r2, [r2, #1]
    e378:	e1833002 	orr	r3, r3, r2
    e37c:	e59f2050 	ldr	r2, [pc, #80]	; e3d4 <to_utf8+0x94>
    e380:	e5c23000 	strb	r3, [r2]
    e384:	e0411005 	sub	r1, r1, r5
    e388:	e3a02001 	mov	r2, #1, 0
    e38c:	ea000007 	b	e3b0 <to_utf8+0x70>
    e390:	e5d03000 	ldrb	r3, [r0]
    e394:	e0033134 	and	r3, r3, r4, lsr r1
    e398:	e5d0e001 	ldrb	lr, [r0, #1]
    e39c:	e183300e 	orr	r3, r3, lr
    e3a0:	e59fe02c 	ldr	lr, [pc, #44]	; e3d4 <to_utf8+0x94>
    e3a4:	e7ce3002 	strb	r3, [lr, r2]
    e3a8:	e0411005 	sub	r1, r1, r5
    e3ac:	e2822001 	add	r2, r2, #1, 0
    e3b0:	e152000c 	cmp	r2, ip
    e3b4:	bafffff5 	blt	e390 <to_utf8+0x50>
    e3b8:	e59f0014 	ldr	r0, [pc, #20]	; e3d4 <to_utf8+0x94>
    e3bc:	e3a03000 	mov	r3, #0, 0
    e3c0:	e7c0300c 	strb	r3, [r0, ip]
    e3c4:	e8bd8070 	pop	{r4, r5, r6, pc}
    e3c8:	e3a00000 	mov	r0, #0, 0
    e3cc:	e8bd8070 	pop	{r4, r5, r6, pc}
    e3d0:	00014bcc 	.word	0x00014bcc
    e3d4:	00014f48 	.word	0x00014f48

0000e3d8 <to_cp>:
    e3d8:	e92d41f0 	push	{r4, r5, r6, r7, r8, lr}
    e3dc:	e1a05000 	mov	r5, r0
    e3e0:	e5d04000 	ldrb	r4, [r0]
    e3e4:	e1a00004 	mov	r0, r4
    e3e8:	ebffffc2 	bl	e2f8 <utf8_len>
    e3ec:	e2506000 	subs	r6, r0, #0, 0
    e3f0:	ba000013 	blt	e444 <to_cp+0x6c>
    e3f4:	e59f3050 	ldr	r3, [pc, #80]	; e44c <to_cp+0x74>
    e3f8:	e5938000 	ldr	r8, [r3]
    e3fc:	e598700c 	ldr	r7, [r8, #12]
    e400:	e2462001 	sub	r2, r6, #1, 0
    e404:	e0020792 	mul	r2, r2, r7
    e408:	e285c001 	add	ip, r5, #1, 0
    e40c:	e7933106 	ldr	r3, [r3, r6, lsl #2]
    e410:	e5d30000 	ldrb	r0, [r3]
    e414:	e0000004 	and	r0, r0, r4
    e418:	e1a00210 	lsl	r0, r0, r2
    e41c:	e3a01001 	mov	r1, #1, 0
    e420:	e1510006 	cmp	r1, r6
    e424:	a8bd81f0 	popge	{r4, r5, r6, r7, r8, pc}
    e428:	e0422007 	sub	r2, r2, r7
    e42c:	e4dc3001 	ldrb	r3, [ip], #1
    e430:	e5d8e000 	ldrb	lr, [r8]
    e434:	e003300e 	and	r3, r3, lr
    e438:	e1800213 	orr	r0, r0, r3, lsl r2
    e43c:	e2811001 	add	r1, r1, #1, 0
    e440:	eafffff6 	b	e420 <to_cp+0x48>
    e444:	e3a00000 	mov	r0, #0, 0
    e448:	e8bd81f0 	pop	{r4, r5, r6, r7, r8, pc}
    e44c:	00014bcc 	.word	0x00014bcc

0000e450 <test_main>:
    e450:	e92d4070 	push	{r4, r5, r6, lr}
    e454:	e24dd028 	sub	sp, sp, #40, 0	; 0x28
    e458:	e28dc008 	add	ip, sp, #8, 0
    e45c:	e59fe0b0 	ldr	lr, [pc, #176]	; e514 <test_main+0xc4>
    e460:	e8be000f 	ldm	lr!, {r0, r1, r2, r3}
    e464:	e8ac000f 	stmia	ip!, {r0, r1, r2, r3}
    e468:	e89e000f 	ldm	lr, {r0, r1, r2, r3}
    e46c:	e88c000f 	stm	ip, {r0, r1, r2, r3}
    e470:	e59f00a0 	ldr	r0, [pc, #160]	; e518 <test_main+0xc8>
    e474:	eb0006e2 	bl	10004 <printk>
    e478:	e59f009c 	ldr	r0, [pc, #156]	; e51c <test_main+0xcc>
    e47c:	eb0006e0 	bl	10004 <printk>
    e480:	e28d6008 	add	r6, sp, #8, 0
    e484:	ea000012 	b	e4d4 <test_main+0x84>
    e488:	e59f3090 	ldr	r3, [pc, #144]	; e520 <test_main+0xd0>
    e48c:	e58d3000 	str	r3, [sp]
    e490:	e3a0306c 	mov	r3, #108, 0	; 0x6c
    e494:	e59f2088 	ldr	r2, [pc, #136]	; e524 <test_main+0xd4>
    e498:	e59f1088 	ldr	r1, [pc, #136]	; e528 <test_main+0xd8>
    e49c:	e59f0088 	ldr	r0, [pc, #136]	; e52c <test_main+0xdc>
    e4a0:	eb0006d7 	bl	10004 <printk>
    e4a4:	eb000810 	bl	104ec <clean_reboot>
    e4a8:	e59f0080 	ldr	r0, [pc, #128]	; e530 <test_main+0xe0>
    e4ac:	eb0006d4 	bl	10004 <printk>
    e4b0:	e2844001 	add	r4, r4, #1, 0
    e4b4:	e7d51004 	ldrb	r1, [r5, r4]
    e4b8:	e3510000 	cmp	r1, #0, 0
    e4bc:	0a000001 	beq	e4c8 <test_main+0x78>
    e4c0:	e3540003 	cmp	r4, #3, 0
    e4c4:	dafffff7 	ble	e4a8 <test_main+0x58>
    e4c8:	e59f0064 	ldr	r0, [pc, #100]	; e534 <test_main+0xe4>
    e4cc:	eb0006cc 	bl	10004 <printk>
    e4d0:	e2866004 	add	r6, r6, #4, 0
    e4d4:	e5960000 	ldr	r0, [r6]
    e4d8:	e3500000 	cmp	r0, #0, 0
    e4dc:	0a00000a 	beq	e50c <test_main+0xbc>
    e4e0:	ebffff96 	bl	e340 <to_utf8>
    e4e4:	e2505000 	subs	r5, r0, #0, 0
    e4e8:	0affffe6 	beq	e488 <test_main+0x38>
    e4ec:	e1a00005 	mov	r0, r5
    e4f0:	ebffffb8 	bl	e3d8 <to_cp>
    e4f4:	e1a02000 	mov	r2, r0
    e4f8:	e1a01005 	mov	r1, r5
    e4fc:	e59f0034 	ldr	r0, [pc, #52]	; e538 <test_main+0xe8>
    e500:	eb0006bf 	bl	10004 <printk>
    e504:	e3a04000 	mov	r4, #0, 0
    e508:	eaffffe9 	b	e4b4 <test_main+0x64>
    e50c:	e28dd028 	add	sp, sp, #40, 0	; 0x28
    e510:	e8bd8070 	pop	{r4, r5, r6, pc}
    e514:	00013770 	.word	0x00013770
    e518:	000136e0 	.word	0x000136e0
    e51c:	0001370c 	.word	0x0001370c
    e520:	00013754 	.word	0x00013754
    e524:	00013790 	.word	0x00013790
    e528:	00013738 	.word	0x00013738
    e52c:	00011458 	.word	0x00011458
    e530:	000132a8 	.word	0x000132a8
    e534:	00012170 	.word	0x00012170
    e538:	0001375c 	.word	0x0001375c

0000e53c <get_clock_divider>:
    e53c:	e59f30ac 	ldr	r3, [pc, #172]	; e5f0 <get_clock_divider+0xb4>
    e540:	e1500003 	cmp	r0, r3
    e544:	9a000007 	bls	e568 <get_clock_divider+0x2c>
    e548:	e59f20a4 	ldr	r2, [pc, #164]	; e5f4 <get_clock_divider+0xb8>
    e54c:	e0823092 	umull	r3, r2, r2, r0
    e550:	e1a02c22 	lsr	r2, r2, #24
    e554:	e59f309c 	ldr	r3, [pc, #156]	; e5f8 <get_clock_divider+0xbc>
    e558:	e0030293 	mul	r3, r3, r2
    e55c:	e1500003 	cmp	r0, r3
    e560:	13a02000 	movne	r2, #0, 0
    e564:	ea000000 	b	e56c <get_clock_divider+0x30>
    e568:	e3a02001 	mov	r2, #1, 0
    e56c:	e3a0001f 	mov	r0, #31, 0
    e570:	e3500000 	cmp	r0, #0, 0
    e574:	ba000007 	blt	e598 <get_clock_divider+0x5c>
    e578:	e3a03001 	mov	r3, #1, 0
    e57c:	e1a03013 	lsl	r3, r3, r0
    e580:	e1120003 	tst	r2, r3
    e584:	02400001 	subeq	r0, r0, #1, 0
    e588:	0afffff8 	beq	e570 <get_clock_divider+0x34>
    e58c:	e1d23003 	bics	r3, r2, r3
    e590:	12800001 	addne	r0, r0, #1, 0
    e594:	ea000000 	b	e59c <get_clock_divider+0x60>
    e598:	e3e00000 	mvn	r0, #0, 0
    e59c:	e3700001 	cmn	r0, #1, 0
    e5a0:	0a000003 	beq	e5b4 <get_clock_divider+0x78>
    e5a4:	e350001f 	cmp	r0, #31, 0
    e5a8:	da000002 	ble	e5b8 <get_clock_divider+0x7c>
    e5ac:	e3a0001f 	mov	r0, #31, 0
    e5b0:	ea000002 	b	e5c0 <get_clock_divider+0x84>
    e5b4:	e3a0001f 	mov	r0, #31, 0
    e5b8:	e3500000 	cmp	r0, #0, 0
    e5bc:	0a000002 	beq	e5cc <get_clock_divider+0x90>
    e5c0:	e2400001 	sub	r0, r0, #1, 0
    e5c4:	e3a03001 	mov	r3, #1, 0
    e5c8:	e1a00013 	lsl	r0, r3, r0
    e5cc:	e3500b01 	cmp	r0, #1024	; 0x400
    e5d0:	a59f0024 	ldrge	r0, [pc, #36]	; e5fc <get_clock_divider+0xc0>
    e5d4:	e1a03440 	asr	r3, r0, #8
    e5d8:	e1a00400 	lsl	r0, r0, #8
    e5dc:	e6ff0070 	uxth	r0, r0
    e5e0:	e1a03303 	lsl	r3, r3, #6
    e5e4:	e6ef3073 	uxtb	r3, r3
    e5e8:	e1800003 	orr	r0, r0, r3
    e5ec:	e12fff1e 	bx	lr
    e5f0:	02faf07f 	.word	0x02faf07f
    e5f4:	55e63b89 	.word	0x55e63b89
    e5f8:	02faf080 	.word	0x02faf080
    e5fc:	000003ff 	.word	0x000003ff

0000e600 <sd_error_mask>:
    e600:	e2800010 	add	r0, r0, #16, 0
    e604:	e3a03001 	mov	r3, #1, 0
    e608:	e1a00013 	lsl	r0, r3, r0
    e60c:	e12fff1e 	bx	lr

0000e610 <set_last_error>:
    e610:	e1a03820 	lsr	r3, r0, #16
    e614:	e1a03803 	lsl	r3, r3, #16
    e618:	e59f2008 	ldr	r2, [pc, #8]	; e628 <set_last_error+0x18>
    e61c:	e5823040 	str	r3, [r2, #64]	; 0x40
    e620:	e5820044 	str	r0, [r2, #68]	; 0x44
    e624:	e12fff1e 	bx	lr
    e628:	00014f60 	.word	0x00014f60

0000e62c <reset_command>:
    e62c:	e92d4010 	push	{r4, lr}
    e630:	e59f2058 	ldr	r2, [pc, #88]	; e690 <reset_command+0x64>
    e634:	e592302c 	ldr	r3, [r2, #44]	; 0x2c
    e638:	e3833402 	orr	r3, r3, #33554432	; 0x2000000
    e63c:	e582302c 	str	r3, [r2, #44]	; 0x2c
    e640:	e3a04000 	mov	r4, #0, 0
    e644:	ea000002 	b	e654 <reset_command+0x28>
    e648:	e3a00001 	mov	r0, #1, 0
    e64c:	eb0007f5 	bl	10628 <delay_ms>
    e650:	e2844001 	add	r4, r4, #1, 0
    e654:	e59f3038 	ldr	r3, [pc, #56]	; e694 <reset_command+0x68>
    e658:	e1540003 	cmp	r4, r3
    e65c:	ca000005 	bgt	e678 <reset_command+0x4c>
    e660:	e59f3028 	ldr	r3, [pc, #40]	; e690 <reset_command+0x64>
    e664:	e593302c 	ldr	r3, [r3, #44]	; 0x2c
    e668:	e3130402 	tst	r3, #33554432	; 0x2000000
    e66c:	1afffff5 	bne	e648 <reset_command+0x1c>
    e670:	e3a00001 	mov	r0, #1, 0
    e674:	e8bd8010 	pop	{r4, pc}
    e678:	e59f3010 	ldr	r3, [pc, #16]	; e690 <reset_command+0x64>
    e67c:	e593102c 	ldr	r1, [r3, #44]	; 0x2c
    e680:	e59f0010 	ldr	r0, [pc, #16]	; e698 <reset_command+0x6c>
    e684:	eb00065e 	bl	10004 <printk>
    e688:	e3a00000 	mov	r0, #0, 0
    e68c:	e8bd8010 	pop	{r4, pc}
    e690:	20300000 	.word	0x20300000
    e694:	0000270f 	.word	0x0000270f
    e698:	0001379c 	.word	0x0001379c

0000e69c <wait_reg_mask>:
    e69c:	e92d41f0 	push	{r4, r5, r6, r7, r8, lr}
    e6a0:	e1a07000 	mov	r7, r0
    e6a4:	e1a06001 	mov	r6, r1
    e6a8:	e1a08002 	mov	r8, r2
    e6ac:	e1a05003 	mov	r5, r3
    e6b0:	e3a04000 	mov	r4, #0, 0
    e6b4:	ea000005 	b	e6d0 <wait_reg_mask+0x34>
    e6b8:	e1a00008 	mov	r0, r8
    e6bc:	e3500000 	cmp	r0, #0, 0
    e6c0:	18bd81f0 	popne	{r4, r5, r6, r7, r8, pc}
    e6c4:	e3a00064 	mov	r0, #100, 0	; 0x64
    e6c8:	eb0007cd 	bl	10604 <delay_us>
    e6cc:	e2844001 	add	r4, r4, #1, 0
    e6d0:	e0853105 	add	r3, r5, r5, lsl #2
    e6d4:	e1540083 	cmp	r4, r3, lsl #1
    e6d8:	8a000004 	bhi	e6f0 <wait_reg_mask+0x54>
    e6dc:	e5973000 	ldr	r3, [r7]
    e6e0:	e1130006 	tst	r3, r6
    e6e4:	1afffff3 	bne	e6b8 <wait_reg_mask+0x1c>
    e6e8:	e2280001 	eor	r0, r8, #1, 0
    e6ec:	eafffff2 	b	e6bc <wait_reg_mask+0x20>
    e6f0:	e3a00000 	mov	r0, #0, 0
    e6f4:	e8bd81f0 	pop	{r4, r5, r6, r7, r8, pc}

0000e6f8 <do_data_transfer>:
    e6f8:	e92d41f0 	push	{r4, r5, r6, r7, r8, lr}
    e6fc:	e24dd008 	sub	sp, sp, #8, 0
    e700:	e58d0004 	str	r0, [sp, #4]
    e704:	e3100010 	tst	r0, #16, 0
    e708:	0a000005 	beq	e724 <do_data_transfer+0x2c>
    e70c:	e3a07000 	mov	r7, #0, 0
    e710:	e3a05020 	mov	r5, #32, 0
    e714:	e59f30c0 	ldr	r3, [pc, #192]	; e7dc <do_data_transfer+0xe4>
    e718:	e5934038 	ldr	r4, [r3, #56]	; 0x38
    e71c:	e3a06000 	mov	r6, #0, 0
    e720:	ea00000c 	b	e758 <do_data_transfer+0x60>
    e724:	e3a07001 	mov	r7, #1, 0
    e728:	e3a05010 	mov	r5, #16, 0
    e72c:	eafffff8 	b	e714 <do_data_transfer+0x1c>
    e730:	ebffffb6 	bl	e610 <set_last_error>
    e734:	e3a00000 	mov	r0, #0, 0
    e738:	ea000025 	b	e7d4 <do_data_transfer+0xdc>
    e73c:	e4941004 	ldr	r1, [r4], #4
    e740:	e59f2098 	ldr	r2, [pc, #152]	; e7e0 <do_data_transfer+0xe8>
    e744:	e5821020 	str	r1, [r2, #32]
    e748:	e2433004 	sub	r3, r3, #4, 0
    e74c:	e3530000 	cmp	r3, #0, 0
    e750:	1afffff9 	bne	e73c <do_data_transfer+0x44>
    e754:	e2866001 	add	r6, r6, #1, 0
    e758:	e59f307c 	ldr	r3, [pc, #124]	; e7dc <do_data_transfer+0xe4>
    e75c:	e5933004 	ldr	r3, [r3, #4]
    e760:	e1530006 	cmp	r3, r6
    e764:	9a000019 	bls	e7d0 <do_data_transfer+0xd8>
    e768:	e3858902 	orr	r8, r5, #32768	; 0x8000
    e76c:	e3a03e7d 	mov	r3, #2000	; 0x7d0
    e770:	e3a02001 	mov	r2, #1, 0
    e774:	e1a01008 	mov	r1, r8
    e778:	e59f0064 	ldr	r0, [pc, #100]	; e7e4 <do_data_transfer+0xec>
    e77c:	ebffffc6 	bl	e69c <wait_reg_mask>
    e780:	e59f3058 	ldr	r3, [pc, #88]	; e7e0 <do_data_transfer+0xe8>
    e784:	e5930030 	ldr	r0, [r3, #48]	; 0x30
    e788:	e5838030 	str	r8, [r3, #48]	; 0x30
    e78c:	e1e03805 	mvn	r3, r5, lsl #16
    e790:	e1e03823 	mvn	r3, r3, lsr #16
    e794:	e0033000 	and	r3, r3, r0
    e798:	e1530005 	cmp	r3, r5
    e79c:	1affffe3 	bne	e730 <do_data_transfer+0x38>
    e7a0:	e59f3034 	ldr	r3, [pc, #52]	; e7dc <do_data_transfer+0xe4>
    e7a4:	e5933010 	ldr	r3, [r3, #16]
    e7a8:	e3570000 	cmp	r7, #0, 0
    e7ac:	1affffe6 	bne	e74c <do_data_transfer+0x54>
    e7b0:	ea000003 	b	e7c4 <do_data_transfer+0xcc>
    e7b4:	e59f2024 	ldr	r2, [pc, #36]	; e7e0 <do_data_transfer+0xe8>
    e7b8:	e5922020 	ldr	r2, [r2, #32]
    e7bc:	e4842004 	str	r2, [r4], #4
    e7c0:	e2433004 	sub	r3, r3, #4, 0
    e7c4:	e3530000 	cmp	r3, #0, 0
    e7c8:	1afffff9 	bne	e7b4 <do_data_transfer+0xbc>
    e7cc:	eaffffe0 	b	e754 <do_data_transfer+0x5c>
    e7d0:	e3a00001 	mov	r0, #1, 0
    e7d4:	e28dd008 	add	sp, sp, #8, 0
    e7d8:	e8bd81f0 	pop	{r4, r5, r6, r7, r8, pc}
    e7dc:	00014f60 	.word	0x00014f60
    e7e0:	20300000 	.word	0x20300000
    e7e4:	20300030 	.word	0x20300030

0000e7e8 <emmc_issue_command>:
    e7e8:	e92d4030 	push	{r4, r5, lr}
    e7ec:	e24dd014 	sub	sp, sp, #20, 0
    e7f0:	e58d0004 	str	r0, [sp, #4]
    e7f4:	e1a05002 	mov	r5, r2
    e7f8:	e59d2004 	ldr	r2, [sp, #4]
    e7fc:	e59f31c8 	ldr	r3, [pc, #456]	; e9cc <emmc_issue_command+0x1e4>
    e800:	e583200c 	str	r2, [r3, #12]
    e804:	e593200c 	ldr	r2, [r3, #12]
    e808:	e58d200c 	str	r2, [sp, #12]
    e80c:	e5932004 	ldr	r2, [r3, #4]
    e810:	e3520801 	cmp	r2, #65536	; 0x10000
    e814:	2a000014 	bcs	e86c <emmc_issue_command+0x84>
    e818:	e59f31ac 	ldr	r3, [pc, #428]	; e9cc <emmc_issue_command+0x1e4>
    e81c:	e5933010 	ldr	r3, [r3, #16]
    e820:	e1832802 	orr	r2, r3, r2, lsl #16
    e824:	e59f31a4 	ldr	r3, [pc, #420]	; e9d0 <emmc_issue_command+0x1e8>
    e828:	e5832004 	str	r2, [r3, #4]
    e82c:	e5831008 	str	r1, [r3, #8]
    e830:	e59d200c 	ldr	r2, [sp, #12]
    e834:	e583200c 	str	r2, [r3, #12]
    e838:	e3a04000 	mov	r4, #0, 0
    e83c:	e1a02004 	mov	r2, r4
    e840:	e1540005 	cmp	r4, r5
    e844:	2a00000d 	bcs	e880 <emmc_issue_command+0x98>
    e848:	e59f3180 	ldr	r3, [pc, #384]	; e9d0 <emmc_issue_command+0x1e8>
    e84c:	e5931030 	ldr	r1, [r3, #48]	; 0x30
    e850:	e59f317c 	ldr	r3, [pc, #380]	; e9d4 <emmc_issue_command+0x1ec>
    e854:	e1110003 	tst	r1, r3
    e858:	1a000008 	bne	e880 <emmc_issue_command+0x98>
    e85c:	e3a00001 	mov	r0, #1, 0
    e860:	eb000770 	bl	10628 <delay_ms>
    e864:	e2844001 	add	r4, r4, #1, 0
    e868:	eafffff3 	b	e83c <emmc_issue_command+0x54>
    e86c:	e1a01002 	mov	r1, r2
    e870:	e59f0160 	ldr	r0, [pc, #352]	; e9d8 <emmc_issue_command+0x1f0>
    e874:	eb0005e2 	bl	10004 <printk>
    e878:	e3a00000 	mov	r0, #0, 0
    e87c:	ea000034 	b	e954 <emmc_issue_command+0x16c>
    e880:	e1520005 	cmp	r2, r5
    e884:	2a000034 	bcs	e95c <emmc_issue_command+0x174>
    e888:	e59f3140 	ldr	r3, [pc, #320]	; e9d0 <emmc_issue_command+0x1e8>
    e88c:	e5930030 	ldr	r0, [r3, #48]	; 0x30
    e890:	e59f2144 	ldr	r2, [pc, #324]	; e9dc <emmc_issue_command+0x1f4>
    e894:	e5832030 	str	r2, [r3, #48]	; 0x30
    e898:	e3c03cff 	bic	r3, r0, #65280	; 0xff00
    e89c:	e3c330fe 	bic	r3, r3, #254, 0	; 0xfe
    e8a0:	e3530001 	cmp	r3, #1, 0
    e8a4:	1a000032 	bne	e974 <emmc_issue_command+0x18c>
    e8a8:	e5dd3006 	ldrb	r3, [sp, #6]
    e8ac:	e2033003 	and	r3, r3, #3, 0
    e8b0:	e3530001 	cmp	r3, #1, 0
    e8b4:	0a000033 	beq	e988 <emmc_issue_command+0x1a0>
    e8b8:	e6af2073 	sxtb	r2, r3
    e8bc:	e3520000 	cmp	r2, #0, 0
    e8c0:	0a000006 	beq	e8e0 <emmc_issue_command+0xf8>
    e8c4:	e2833002 	add	r3, r3, #2, 0
    e8c8:	e2033003 	and	r3, r3, #3, 0
    e8cc:	e3530001 	cmp	r3, #1, 0
    e8d0:	959f30f8 	ldrls	r3, [pc, #248]	; e9d0 <emmc_issue_command+0x1e8>
    e8d4:	95932010 	ldrls	r2, [r3, #16]
    e8d8:	959f30ec 	ldrls	r3, [pc, #236]	; e9cc <emmc_issue_command+0x1e4>
    e8dc:	95832014 	strls	r2, [r3, #20]
    e8e0:	e5dd4006 	ldrb	r4, [sp, #6]
    e8e4:	e2145020 	ands	r5, r4, #32, 0
    e8e8:	1a000031 	bne	e9b4 <emmc_issue_command+0x1cc>
    e8ec:	e2044003 	and	r4, r4, #3, 0
    e8f0:	e3540003 	cmp	r4, #3, 0
    e8f4:	0a000001 	beq	e900 <emmc_issue_command+0x118>
    e8f8:	e3550000 	cmp	r5, #0, 0
    e8fc:	0a000011 	beq	e948 <emmc_issue_command+0x160>
    e900:	e3a03e7d 	mov	r3, #2000	; 0x7d0
    e904:	e3a02001 	mov	r2, #1, 0
    e908:	e59f10d0 	ldr	r1, [pc, #208]	; e9e0 <emmc_issue_command+0x1f8>
    e90c:	e59f00d0 	ldr	r0, [pc, #208]	; e9e4 <emmc_issue_command+0x1fc>
    e910:	ebffff61 	bl	e69c <wait_reg_mask>
    e914:	e59f30b4 	ldr	r3, [pc, #180]	; e9d0 <emmc_issue_command+0x1e8>
    e918:	e5930030 	ldr	r0, [r3, #48]	; 0x30
    e91c:	e59f20c4 	ldr	r2, [pc, #196]	; e9e8 <emmc_issue_command+0x200>
    e920:	e5832030 	str	r2, [r3, #48]	; 0x30
    e924:	e3c03cff 	bic	r3, r0, #65280	; 0xff00
    e928:	e3c330fd 	bic	r3, r3, #253, 0	; 0xfd
    e92c:	e2822811 	add	r2, r2, #1114112	; 0x110000
    e930:	e3530002 	cmp	r3, #2, 0
    e934:	11530002 	cmpne	r3, r2
    e938:	1a000020 	bne	e9c0 <emmc_issue_command+0x1d8>
    e93c:	e59f308c 	ldr	r3, [pc, #140]	; e9d0 <emmc_issue_command+0x1e8>
    e940:	e59f20a0 	ldr	r2, [pc, #160]	; e9e8 <emmc_issue_command+0x200>
    e944:	e5832030 	str	r2, [r3, #48]	; 0x30
    e948:	e3a00001 	mov	r0, #1, 0
    e94c:	e59f3078 	ldr	r3, [pc, #120]	; e9cc <emmc_issue_command+0x1e4>
    e950:	e5c30000 	strb	r0, [r3]
    e954:	e28dd014 	add	sp, sp, #20, 0
    e958:	e8bd8030 	pop	{r4, r5, pc}
    e95c:	e59f0088 	ldr	r0, [pc, #136]	; e9ec <emmc_issue_command+0x204>
    e960:	eb0005a7 	bl	10004 <printk>
    e964:	e3a00000 	mov	r0, #0, 0
    e968:	e59f305c 	ldr	r3, [pc, #92]	; e9cc <emmc_issue_command+0x1e4>
    e96c:	e5c30000 	strb	r0, [r3]
    e970:	eafffff7 	b	e954 <emmc_issue_command+0x16c>
    e974:	ebffff25 	bl	e610 <set_last_error>
    e978:	e3a00000 	mov	r0, #0, 0
    e97c:	e59f3048 	ldr	r3, [pc, #72]	; e9cc <emmc_issue_command+0x1e4>
    e980:	e5c30000 	strb	r0, [r3]
    e984:	eafffff2 	b	e954 <emmc_issue_command+0x16c>
    e988:	e59f2040 	ldr	r2, [pc, #64]	; e9d0 <emmc_issue_command+0x1e8>
    e98c:	e5921010 	ldr	r1, [r2, #16]
    e990:	e59f3034 	ldr	r3, [pc, #52]	; e9cc <emmc_issue_command+0x1e4>
    e994:	e5831014 	str	r1, [r3, #20]
    e998:	e5921014 	ldr	r1, [r2, #20]
    e99c:	e5831018 	str	r1, [r3, #24]
    e9a0:	e5921018 	ldr	r1, [r2, #24]
    e9a4:	e583101c 	str	r1, [r3, #28]
    e9a8:	e592201c 	ldr	r2, [r2, #28]
    e9ac:	e5832020 	str	r2, [r3, #32]
    e9b0:	eaffffca 	b	e8e0 <emmc_issue_command+0xf8>
    e9b4:	e59d0004 	ldr	r0, [sp, #4]
    e9b8:	ebffff4e 	bl	e6f8 <do_data_transfer>
    e9bc:	eaffffca 	b	e8ec <emmc_issue_command+0x104>
    e9c0:	ebffff12 	bl	e610 <set_last_error>
    e9c4:	e3a00000 	mov	r0, #0, 0
    e9c8:	eaffffe1 	b	e954 <emmc_issue_command+0x16c>
    e9cc:	00014f60 	.word	0x00014f60
    e9d0:	20300000 	.word	0x20300000
    e9d4:	00008001 	.word	0x00008001
    e9d8:	000137d4 	.word	0x000137d4
    e9dc:	ffff0001 	.word	0xffff0001
    e9e0:	00008002 	.word	0x00008002
    e9e4:	20300030 	.word	0x20300030
    e9e8:	ffff0002 	.word	0xffff0002
    e9ec:	000137fc 	.word	0x000137fc

0000e9f0 <emmc_command>:
    e9f0:	e92d4010 	push	{r4, lr}
    e9f4:	e3500000 	cmp	r0, #0, 0
    e9f8:	ba00000b 	blt	ea2c <emmc_command+0x3c>
    e9fc:	e59fc048 	ldr	ip, [pc, #72]	; ea4c <emmc_command+0x5c>
    ea00:	e59f3048 	ldr	r3, [pc, #72]	; ea50 <emmc_command+0x60>
    ea04:	e7930100 	ldr	r0, [r3, r0, lsl #2]
    ea08:	e58c0008 	str	r0, [ip, #8]
    ea0c:	e59c0008 	ldr	r0, [ip, #8]
    ea10:	e59330e0 	ldr	r3, [r3, #224]	; 0xe0
    ea14:	e1500003 	cmp	r0, r3
    ea18:	0a000007 	beq	ea3c <emmc_command+0x4c>
    ea1c:	e59f3028 	ldr	r3, [pc, #40]	; ea4c <emmc_command+0x5c>
    ea20:	e5930008 	ldr	r0, [r3, #8]
    ea24:	ebffff6f 	bl	e7e8 <emmc_issue_command>
    ea28:	e8bd8010 	pop	{r4, pc}
    ea2c:	e59f0020 	ldr	r0, [pc, #32]	; ea54 <emmc_command+0x64>
    ea30:	eb000573 	bl	10004 <printk>
    ea34:	e3a00000 	mov	r0, #0, 0
    ea38:	e8bd8010 	pop	{r4, pc}
    ea3c:	e59f0014 	ldr	r0, [pc, #20]	; ea58 <emmc_command+0x68>
    ea40:	eb00056f 	bl	10004 <printk>
    ea44:	e3a00000 	mov	r0, #0, 0
    ea48:	e8bd8010 	pop	{r4, pc}
    ea4c:	00014f60 	.word	0x00014f60
    ea50:	00013c3c 	.word	0x00013c3c
    ea54:	00013828 	.word	0x00013828
    ea58:	0001384c 	.word	0x0001384c

0000ea5c <check_v2_card>:
    ea5c:	e92d4010 	push	{r4, lr}
    ea60:	e3a020c8 	mov	r2, #200, 0	; 0xc8
    ea64:	e59f10a0 	ldr	r1, [pc, #160]	; eb0c <check_v2_card+0xb0>
    ea68:	e3a00008 	mov	r0, #8, 0
    ea6c:	ebffffdf 	bl	e9f0 <emmc_command>
    ea70:	e2504000 	subs	r4, r0, #0, 0
    ea74:	1a000017 	bne	ead8 <check_v2_card+0x7c>
    ea78:	e59f3090 	ldr	r3, [pc, #144]	; eb10 <check_v2_card+0xb4>
    ea7c:	e5933040 	ldr	r3, [r3, #64]	; 0x40
    ea80:	e3530000 	cmp	r3, #0, 0
    ea84:	0a000006 	beq	eaa4 <check_v2_card+0x48>
    ea88:	e3130801 	tst	r3, #65536	; 0x10000
    ea8c:	0a00000e 	beq	eacc <check_v2_card+0x70>
    ea90:	ebfffee5 	bl	e62c <reset_command>
    ea94:	e3500000 	cmp	r0, #0, 0
    ea98:	1a000004 	bne	eab0 <check_v2_card+0x54>
    ea9c:	e1a04000 	mov	r4, r0
    eaa0:	ea000013 	b	eaf4 <check_v2_card+0x98>
    eaa4:	e59f0068 	ldr	r0, [pc, #104]	; eb14 <check_v2_card+0xb8>
    eaa8:	eb000555 	bl	10004 <printk>
    eaac:	ea000010 	b	eaf4 <check_v2_card+0x98>
    eab0:	e3a00000 	mov	r0, #0, 0
    eab4:	ebfffed1 	bl	e600 <sd_error_mask>
    eab8:	e59f3058 	ldr	r3, [pc, #88]	; eb18 <check_v2_card+0xbc>
    eabc:	e5830030 	str	r0, [r3, #48]	; 0x30
    eac0:	e59f0054 	ldr	r0, [pc, #84]	; eb1c <check_v2_card+0xc0>
    eac4:	eb00054e 	bl	10004 <printk>
    eac8:	ea000009 	b	eaf4 <check_v2_card+0x98>
    eacc:	e59f004c 	ldr	r0, [pc, #76]	; eb20 <check_v2_card+0xc4>
    ead0:	eb00054b 	bl	10004 <printk>
    ead4:	ea000006 	b	eaf4 <check_v2_card+0x98>
    ead8:	e59f3030 	ldr	r3, [pc, #48]	; eb10 <check_v2_card+0xb4>
    eadc:	e5931014 	ldr	r1, [r3, #20]
    eae0:	e1a03a01 	lsl	r3, r1, #20
    eae4:	e1a03a23 	lsr	r3, r3, #20
    eae8:	e59f201c 	ldr	r2, [pc, #28]	; eb0c <check_v2_card+0xb0>
    eaec:	e1530002 	cmp	r3, r2
    eaf0:	1a000001 	bne	eafc <check_v2_card+0xa0>
    eaf4:	e1a00004 	mov	r0, r4
    eaf8:	e8bd8010 	pop	{r4, pc}
    eafc:	e59f0020 	ldr	r0, [pc, #32]	; eb24 <check_v2_card+0xc8>
    eb00:	eb00053f 	bl	10004 <printk>
    eb04:	e3a04000 	mov	r4, #0, 0
    eb08:	eafffff9 	b	eaf4 <check_v2_card+0x98>
    eb0c:	000001aa 	.word	0x000001aa
    eb10:	00014f60 	.word	0x00014f60
    eb14:	00013868 	.word	0x00013868
    eb18:	20300000 	.word	0x20300000
    eb1c:	00013888 	.word	0x00013888
    eb20:	000138ac 	.word	0x000138ac
    eb24:	000138d4 	.word	0x000138d4

0000eb28 <check_usable_card>:
    eb28:	e92d4010 	push	{r4, lr}
    eb2c:	e3a02ffa 	mov	r2, #1000	; 0x3e8
    eb30:	e3a01000 	mov	r1, #0, 0
    eb34:	e3a00005 	mov	r0, #5, 0
    eb38:	ebffffac 	bl	e9f0 <emmc_command>
    eb3c:	e2504000 	subs	r4, r0, #0, 0
    eb40:	1a000010 	bne	eb88 <check_usable_card+0x60>
    eb44:	e59f3050 	ldr	r3, [pc, #80]	; eb9c <check_usable_card+0x74>
    eb48:	e5933040 	ldr	r3, [r3, #64]	; 0x40
    eb4c:	e3530000 	cmp	r3, #0, 0
    eb50:	0a000009 	beq	eb7c <check_usable_card+0x54>
    eb54:	e3130801 	tst	r3, #65536	; 0x10000
    eb58:	0a00000c 	beq	eb90 <check_usable_card+0x68>
    eb5c:	ebfffeb2 	bl	e62c <reset_command>
    eb60:	e2504000 	subs	r4, r0, #0, 0
    eb64:	0a000007 	beq	eb88 <check_usable_card+0x60>
    eb68:	e3a00000 	mov	r0, #0, 0
    eb6c:	ebfffea3 	bl	e600 <sd_error_mask>
    eb70:	e59f3028 	ldr	r3, [pc, #40]	; eba0 <check_usable_card+0x78>
    eb74:	e5830030 	str	r0, [r3, #48]	; 0x30
    eb78:	ea000002 	b	eb88 <check_usable_card+0x60>
    eb7c:	e59f0020 	ldr	r0, [pc, #32]	; eba4 <check_usable_card+0x7c>
    eb80:	eb00051f 	bl	10004 <printk>
    eb84:	e3a04001 	mov	r4, #1, 0
    eb88:	e1a00004 	mov	r0, r4
    eb8c:	e8bd8010 	pop	{r4, pc}
    eb90:	e59f0010 	ldr	r0, [pc, #16]	; eba8 <check_usable_card+0x80>
    eb94:	eb00051a 	bl	10004 <printk>
    eb98:	eafffffa 	b	eb88 <check_usable_card+0x60>
    eb9c:	00014f60 	.word	0x00014f60
    eba0:	20300000 	.word	0x20300000
    eba4:	000138f4 	.word	0x000138f4
    eba8:	00013918 	.word	0x00013918

0000ebac <check_rca>:
    ebac:	e92d4010 	push	{r4, lr}
    ebb0:	e3a02e7d 	mov	r2, #2000	; 0x7d0
    ebb4:	e3a01000 	mov	r1, #0, 0
    ebb8:	e3a00002 	mov	r0, #2, 0
    ebbc:	ebffff8b 	bl	e9f0 <emmc_command>
    ebc0:	e2504000 	subs	r4, r0, #0, 0
    ebc4:	0a00000d 	beq	ec00 <check_rca+0x54>
    ebc8:	e3a02e7d 	mov	r2, #2000	; 0x7d0
    ebcc:	e3a01000 	mov	r1, #0, 0
    ebd0:	e3a00003 	mov	r0, #3, 0
    ebd4:	ebffff85 	bl	e9f0 <emmc_command>
    ebd8:	e2504000 	subs	r4, r0, #0, 0
    ebdc:	0a00000a 	beq	ec0c <check_rca+0x60>
    ebe0:	e59f2040 	ldr	r2, [pc, #64]	; ec28 <check_rca+0x7c>
    ebe4:	e5923014 	ldr	r3, [r2, #20]
    ebe8:	e1a01823 	lsr	r1, r3, #16
    ebec:	e5821028 	str	r1, [r2, #40]	; 0x28
    ebf0:	e3130c01 	tst	r3, #256	; 0x100
    ebf4:	0a000007 	beq	ec18 <check_rca+0x6c>
    ebf8:	e1a00004 	mov	r0, r4
    ebfc:	e8bd8010 	pop	{r4, pc}
    ec00:	e59f0024 	ldr	r0, [pc, #36]	; ec2c <check_rca+0x80>
    ec04:	eb0004fe 	bl	10004 <printk>
    ec08:	eafffffa 	b	ebf8 <check_rca+0x4c>
    ec0c:	e59f001c 	ldr	r0, [pc, #28]	; ec30 <check_rca+0x84>
    ec10:	eb0004fb 	bl	10004 <printk>
    ec14:	eafffff7 	b	ebf8 <check_rca+0x4c>
    ec18:	e59f0014 	ldr	r0, [pc, #20]	; ec34 <check_rca+0x88>
    ec1c:	eb0004f8 	bl	10004 <printk>
    ec20:	e3a04000 	mov	r4, #0, 0
    ec24:	eafffff3 	b	ebf8 <check_rca+0x4c>
    ec28:	00014f60 	.word	0x00014f60
    ec2c:	0001393c 	.word	0x0001393c
    ec30:	0001395c 	.word	0x0001395c
    ec34:	00013984 	.word	0x00013984

0000ec38 <select_card>:
    ec38:	e92d4010 	push	{r4, lr}
    ec3c:	e59f3058 	ldr	r3, [pc, #88]	; ec9c <select_card+0x64>
    ec40:	e5931028 	ldr	r1, [r3, #40]	; 0x28
    ec44:	e3a02e7d 	mov	r2, #2000	; 0x7d0
    ec48:	e1a01801 	lsl	r1, r1, #16
    ec4c:	e3a00007 	mov	r0, #7, 0
    ec50:	ebffff66 	bl	e9f0 <emmc_command>
    ec54:	e2504000 	subs	r4, r0, #0, 0
    ec58:	0a000008 	beq	ec80 <select_card+0x48>
    ec5c:	e59f3038 	ldr	r3, [pc, #56]	; ec9c <select_card+0x64>
    ec60:	e5931014 	ldr	r1, [r3, #20]
    ec64:	e1a014a1 	lsr	r1, r1, #9
    ec68:	e201100f 	and	r1, r1, #15, 0
    ec6c:	e2413003 	sub	r3, r1, #3, 0
    ec70:	e3530001 	cmp	r3, #1, 0
    ec74:	8a000004 	bhi	ec8c <select_card+0x54>
    ec78:	e1a00004 	mov	r0, r4
    ec7c:	e8bd8010 	pop	{r4, pc}
    ec80:	e59f0018 	ldr	r0, [pc, #24]	; eca0 <select_card+0x68>
    ec84:	eb0004de 	bl	10004 <printk>
    ec88:	eafffffa 	b	ec78 <select_card+0x40>
    ec8c:	e59f0010 	ldr	r0, [pc, #16]	; eca4 <select_card+0x6c>
    ec90:	eb0004db 	bl	10004 <printk>
    ec94:	e3a04000 	mov	r4, #0, 0
    ec98:	eafffff6 	b	ec78 <select_card+0x40>
    ec9c:	00014f60 	.word	0x00014f60
    eca0:	000139a4 	.word	0x000139a4
    eca4:	000139c8 	.word	0x000139c8

0000eca8 <do_data_command>:
    eca8:	e92d40f0 	push	{r4, r5, r6, r7, lr}
    ecac:	e24dd00c 	sub	sp, sp, #12, 0
    ecb0:	e1a0c001 	mov	ip, r1
    ecb4:	e1a01002 	mov	r1, r2
    ecb8:	e1a05003 	mov	r5, r3
    ecbc:	e59f3114 	ldr	r3, [pc, #276]	; edd8 <do_data_command+0x130>
    ecc0:	e5d33024 	ldrb	r3, [r3, #36]	; 0x24
    ecc4:	e3530000 	cmp	r3, #0, 0
    ecc8:	01a05485 	lsleq	r5, r5, #9
    eccc:	e59f3104 	ldr	r3, [pc, #260]	; edd8 <do_data_command+0x130>
    ecd0:	e5932010 	ldr	r2, [r3, #16]
    ecd4:	e1520001 	cmp	r2, r1
    ecd8:	8a000010 	bhi	ed20 <do_data_command+0x78>
    ecdc:	e3520c02 	cmp	r2, #512	; 0x200
    ece0:	1a000012 	bne	ed30 <do_data_command+0x88>
    ece4:	e1a034a1 	lsr	r3, r1, #9
    ece8:	e59f20e8 	ldr	r2, [pc, #232]	; edd8 <do_data_command+0x130>
    ecec:	e5823004 	str	r3, [r2, #4]
    ecf0:	e1a02b81 	lsl	r2, r1, #23
    ecf4:	e1a02ba2 	lsr	r2, r2, #23
    ecf8:	e3520000 	cmp	r2, #0, 0
    ecfc:	1a000013 	bne	ed50 <do_data_command+0xa8>
    ed00:	e59f20d0 	ldr	r2, [pc, #208]	; edd8 <do_data_command+0x130>
    ed04:	e582c038 	str	ip, [r2, #56]	; 0x38
    ed08:	e3500000 	cmp	r0, #0, 0
    ed0c:	0a000013 	beq	ed60 <do_data_command+0xb8>
    ed10:	e3530001 	cmp	r3, #1, 0
    ed14:	9a000011 	bls	ed60 <do_data_command+0xb8>
    ed18:	e3a07019 	mov	r7, #25, 0
    ed1c:	ea000017 	b	ed80 <do_data_command+0xd8>
    ed20:	e59f00b4 	ldr	r0, [pc, #180]	; eddc <do_data_command+0x134>
    ed24:	eb0004b6 	bl	10004 <printk>
    ed28:	e3a04000 	mov	r4, #0, 0
    ed2c:	ea000026 	b	edcc <do_data_command+0x124>
    ed30:	e59f30a8 	ldr	r3, [pc, #168]	; ede0 <do_data_command+0x138>
    ed34:	e58d3000 	str	r3, [sp]
    ed38:	e59f30a4 	ldr	r3, [pc, #164]	; ede4 <do_data_command+0x13c>
    ed3c:	e59f20a4 	ldr	r2, [pc, #164]	; ede8 <do_data_command+0x140>
    ed40:	e59f10a4 	ldr	r1, [pc, #164]	; edec <do_data_command+0x144>
    ed44:	e59f00a4 	ldr	r0, [pc, #164]	; edf0 <do_data_command+0x148>
    ed48:	eb0004ad 	bl	10004 <printk>
    ed4c:	eb0005e6 	bl	104ec <clean_reboot>
    ed50:	e59f009c 	ldr	r0, [pc, #156]	; edf4 <do_data_command+0x14c>
    ed54:	eb0004aa 	bl	10004 <printk>
    ed58:	e3a04000 	mov	r4, #0, 0
    ed5c:	ea00001a 	b	edcc <do_data_command+0x124>
    ed60:	e3500000 	cmp	r0, #0, 0
    ed64:	1a000004 	bne	ed7c <do_data_command+0xd4>
    ed68:	e3530001 	cmp	r3, #1, 0
    ed6c:	83a07012 	movhi	r7, #18, 0
    ed70:	8a000002 	bhi	ed80 <do_data_command+0xd8>
    ed74:	e3a07011 	mov	r7, #17, 0
    ed78:	ea000000 	b	ed80 <do_data_command+0xd8>
    ed7c:	e3a07018 	mov	r7, #24, 0
    ed80:	e3a06000 	mov	r6, #0, 0
    ed84:	e3560002 	cmp	r6, #2, 0
    ed88:	ca00000e 	bgt	edc8 <do_data_command+0x120>
    ed8c:	e59f2064 	ldr	r2, [pc, #100]	; edf8 <do_data_command+0x150>
    ed90:	e1a01005 	mov	r1, r5
    ed94:	e1a00007 	mov	r0, r7
    ed98:	ebffff14 	bl	e9f0 <emmc_command>
    ed9c:	e2504000 	subs	r4, r0, #0, 0
    eda0:	1a000009 	bne	edcc <do_data_command+0x124>
    eda4:	e2866001 	add	r6, r6, #1, 0
    eda8:	e3560002 	cmp	r6, #2, 0
    edac:	ca000002 	bgt	edbc <do_data_command+0x114>
    edb0:	e59f0044 	ldr	r0, [pc, #68]	; edfc <do_data_command+0x154>
    edb4:	eb000492 	bl	10004 <printk>
    edb8:	eafffff1 	b	ed84 <do_data_command+0xdc>
    edbc:	e59f003c 	ldr	r0, [pc, #60]	; ee00 <do_data_command+0x158>
    edc0:	eb00048f 	bl	10004 <printk>
    edc4:	ea000000 	b	edcc <do_data_command+0x124>
    edc8:	e3a04001 	mov	r4, #1, 0
    edcc:	e1a00004 	mov	r0, r4
    edd0:	e28dd00c 	add	sp, sp, #12, 0
    edd4:	e8bd80f0 	pop	{r4, r5, r6, r7, pc}
    edd8:	00014f60 	.word	0x00014f60
    eddc:	000139e8 	.word	0x000139e8
    ede0:	00013a1c 	.word	0x00013a1c
    ede4:	000002b1 	.word	0x000002b1
    ede8:	00013d20 	.word	0x00013d20
    edec:	00013a08 	.word	0x00013a08
    edf0:	00011458 	.word	0x00011458
    edf4:	00013a38 	.word	0x00013a38
    edf8:	00001388 	.word	0x00001388
    edfc:	00013a54 	.word	0x00013a54
    ee00:	00013a78 	.word	0x00013a78

0000ee04 <emmc_setup_clock>:
    ee04:	e92d4070 	push	{r4, r5, r6, lr}
    ee08:	e59f5074 	ldr	r5, [pc, #116]	; ee84 <emmc_setup_clock+0x80>
    ee0c:	e3a03000 	mov	r3, #0, 0
    ee10:	e585303c 	str	r3, [r5, #60]	; 0x3c
    ee14:	e595402c 	ldr	r4, [r5, #44]	; 0x2c
    ee18:	e3844001 	orr	r4, r4, #1, 0
    ee1c:	e59f0064 	ldr	r0, [pc, #100]	; ee88 <emmc_setup_clock+0x84>
    ee20:	ebfffdc5 	bl	e53c <get_clock_divider>
    ee24:	e1844000 	orr	r4, r4, r0
    ee28:	e3c4480f 	bic	r4, r4, #983040	; 0xf0000
    ee2c:	e384480b 	orr	r4, r4, #720896	; 0xb0000
    ee30:	e585402c 	str	r4, [r5, #44]	; 0x2c
    ee34:	e3a03e7d 	mov	r3, #2000	; 0x7d0
    ee38:	e3a02001 	mov	r2, #1, 0
    ee3c:	e3a01002 	mov	r1, #2, 0
    ee40:	e59f0044 	ldr	r0, [pc, #68]	; ee8c <emmc_setup_clock+0x88>
    ee44:	ebfffe14 	bl	e69c <wait_reg_mask>
    ee48:	e2504000 	subs	r4, r0, #0, 0
    ee4c:	0a000009 	beq	ee78 <emmc_setup_clock+0x74>
    ee50:	e3a0001e 	mov	r0, #30, 0
    ee54:	eb0005f3 	bl	10628 <delay_ms>
    ee58:	e59f2024 	ldr	r2, [pc, #36]	; ee84 <emmc_setup_clock+0x80>
    ee5c:	e592302c 	ldr	r3, [r2, #44]	; 0x2c
    ee60:	e3833004 	orr	r3, r3, #4, 0
    ee64:	e582302c 	str	r3, [r2, #44]	; 0x2c
    ee68:	e3a0001e 	mov	r0, #30, 0
    ee6c:	eb0005ed 	bl	10628 <delay_ms>
    ee70:	e1a00004 	mov	r0, r4
    ee74:	e8bd8070 	pop	{r4, r5, r6, pc}
    ee78:	e59f0010 	ldr	r0, [pc, #16]	; ee90 <emmc_setup_clock+0x8c>
    ee7c:	eb000460 	bl	10004 <printk>
    ee80:	eafffffa 	b	ee70 <emmc_setup_clock+0x6c>
    ee84:	20300000 	.word	0x20300000
    ee88:	0ee6b280 	.word	0x0ee6b280
    ee8c:	2030002c 	.word	0x2030002c
    ee90:	00013a9c 	.word	0x00013a9c

0000ee94 <emmc_app_command>:
    ee94:	e92d4070 	push	{r4, r5, r6, lr}
    ee98:	e59f307c 	ldr	r3, [pc, #124]	; ef1c <emmc_app_command+0x88>
    ee9c:	e0833100 	add	r3, r3, r0, lsl #2
    eea0:	e5d33003 	ldrb	r3, [r3, #3]
    eea4:	e203303f 	and	r3, r3, #63, 0	; 0x3f
    eea8:	e353003b 	cmp	r3, #59, 0	; 0x3b
    eeac:	8a000016 	bhi	ef0c <emmc_app_command+0x78>
    eeb0:	e1a04000 	mov	r4, r0
    eeb4:	e1a05001 	mov	r5, r1
    eeb8:	e59f3060 	ldr	r3, [pc, #96]	; ef20 <emmc_app_command+0x8c>
    eebc:	e59f2058 	ldr	r2, [pc, #88]	; ef1c <emmc_app_command+0x88>
    eec0:	e59220dc 	ldr	r2, [r2, #220]	; 0xdc
    eec4:	e5832008 	str	r2, [r3, #8]
    eec8:	e5931028 	ldr	r1, [r3, #40]	; 0x28
    eecc:	e3510000 	cmp	r1, #0, 0
    eed0:	11a01801 	lslne	r1, r1, #16
    eed4:	e3a02e7d 	mov	r2, #2000	; 0x7d0
    eed8:	e59f3040 	ldr	r3, [pc, #64]	; ef20 <emmc_app_command+0x8c>
    eedc:	e5930008 	ldr	r0, [r3, #8]
    eee0:	ebfffe40 	bl	e7e8 <emmc_issue_command>
    eee4:	e3500000 	cmp	r0, #0, 0
    eee8:	08bd8070 	popeq	{r4, r5, r6, pc}
    eeec:	e59f3028 	ldr	r3, [pc, #40]	; ef1c <emmc_app_command+0x88>
    eef0:	e7930104 	ldr	r0, [r3, r4, lsl #2]
    eef4:	e59f3024 	ldr	r3, [pc, #36]	; ef20 <emmc_app_command+0x8c>
    eef8:	e5830008 	str	r0, [r3, #8]
    eefc:	e3a02e7d 	mov	r2, #2000	; 0x7d0
    ef00:	e1a01005 	mov	r1, r5
    ef04:	ebfffe37 	bl	e7e8 <emmc_issue_command>
    ef08:	e8bd8070 	pop	{r4, r5, r6, pc}
    ef0c:	e59f0010 	ldr	r0, [pc, #16]	; ef24 <emmc_app_command+0x90>
    ef10:	eb00043b 	bl	10004 <printk>
    ef14:	e3a00000 	mov	r0, #0, 0
    ef18:	e8bd8070 	pop	{r4, r5, r6, pc}
    ef1c:	00013c3c 	.word	0x00013c3c
    ef20:	00014f60 	.word	0x00014f60
    ef24:	00013abc 	.word	0x00013abc

0000ef28 <check_ocr>:
    ef28:	e92d4010 	push	{r4, lr}
    ef2c:	e3a02e7d 	mov	r2, #2000	; 0x7d0
    ef30:	e3a01000 	mov	r1, #0, 0
    ef34:	e3a00029 	mov	r0, #41, 0	; 0x29
    ef38:	ebffffd5 	bl	ee94 <emmc_app_command>
    ef3c:	e2504000 	subs	r4, r0, #0, 0
    ef40:	0a000005 	beq	ef5c <check_ocr+0x34>
    ef44:	e59f2020 	ldr	r2, [pc, #32]	; ef6c <check_ocr+0x44>
    ef48:	e5923014 	ldr	r3, [r2, #20]
    ef4c:	e1a03423 	lsr	r3, r3, #8
    ef50:	e1c232b6 	strh	r3, [r2, #38]	; 0x26
    ef54:	e1a00004 	mov	r0, r4
    ef58:	e8bd8010 	pop	{r4, pc}
    ef5c:	e3a01001 	mov	r1, #1, 0
    ef60:	e59f0008 	ldr	r0, [pc, #8]	; ef70 <check_ocr+0x48>
    ef64:	eb000426 	bl	10004 <printk>
    ef68:	eafffff9 	b	ef54 <check_ocr+0x2c>
    ef6c:	00014f60 	.word	0x00014f60
    ef70:	00013adc 	.word	0x00013adc

0000ef74 <check_sdhc_support>:
    ef74:	e92d4070 	push	{r4, r5, r6, lr}
    ef78:	e1a05000 	mov	r5, r0
    ef7c:	ea00000d 	b	efb8 <check_sdhc_support+0x44>
    ef80:	e3a01101 	mov	r1, #1073741824	; 0x40000000
    ef84:	e3a02e7d 	mov	r2, #2000	; 0x7d0
    ef88:	e38118ff 	orr	r1, r1, #16711680	; 0xff0000
    ef8c:	e3811902 	orr	r1, r1, #32768	; 0x8000
    ef90:	e3a00029 	mov	r0, #41, 0	; 0x29
    ef94:	ebffffbe 	bl	ee94 <emmc_app_command>
    ef98:	e2504000 	subs	r4, r0, #0, 0
    ef9c:	0a000009 	beq	efc8 <check_sdhc_support+0x54>
    efa0:	e59f304c 	ldr	r3, [pc, #76]	; eff4 <check_sdhc_support+0x80>
    efa4:	e5933014 	ldr	r3, [r3, #20]
    efa8:	e3530000 	cmp	r3, #0, 0
    efac:	ba000009 	blt	efd8 <check_sdhc_support+0x64>
    efb0:	e3a00f7d 	mov	r0, #500	; 0x1f4
    efb4:	eb00059b 	bl	10628 <delay_ms>
    efb8:	e3550000 	cmp	r5, #0, 0
    efbc:	1affffef 	bne	ef80 <check_sdhc_support+0xc>
    efc0:	e3a01000 	mov	r1, #0, 0
    efc4:	eaffffee 	b	ef84 <check_sdhc_support+0x10>
    efc8:	e59f0028 	ldr	r0, [pc, #40]	; eff8 <check_sdhc_support+0x84>
    efcc:	eb00040c 	bl	10004 <printk>
    efd0:	e1a00004 	mov	r0, r4
    efd4:	e8bd8070 	pop	{r4, r5, r6, pc}
    efd8:	e1a01423 	lsr	r1, r3, #8
    efdc:	e59f2010 	ldr	r2, [pc, #16]	; eff4 <check_sdhc_support+0x80>
    efe0:	e1c212b6 	strh	r1, [r2, #38]	; 0x26
    efe4:	e1a03f23 	lsr	r3, r3, #30
    efe8:	e2033001 	and	r3, r3, #1, 0
    efec:	e5c23024 	strb	r3, [r2, #36]	; 0x24
    eff0:	eafffff6 	b	efd0 <check_sdhc_support+0x5c>
    eff4:	00014f60 	.word	0x00014f60
    eff8:	00013b08 	.word	0x00013b08

0000effc <set_scr>:
    effc:	e92d4010 	push	{r4, lr}
    f000:	e59f313c 	ldr	r3, [pc, #316]	; f144 <set_scr+0x148>
    f004:	e5d33024 	ldrb	r3, [r3, #36]	; 0x24
    f008:	e3530000 	cmp	r3, #0, 0
    f00c:	1a000005 	bne	f028 <set_scr+0x2c>
    f010:	e3a02e7d 	mov	r2, #2000	; 0x7d0
    f014:	e3a01c02 	mov	r1, #512	; 0x200
    f018:	e3a00010 	mov	r0, #16, 0
    f01c:	ebfffe73 	bl	e9f0 <emmc_command>
    f020:	e2504000 	subs	r4, r0, #0, 0
    f024:	0a00002a 	beq	f0d4 <set_scr+0xd8>
    f028:	e59f2118 	ldr	r2, [pc, #280]	; f148 <set_scr+0x14c>
    f02c:	e5923004 	ldr	r3, [r2, #4]
    f030:	e3c33eff 	bic	r3, r3, #4080	; 0xff0
    f034:	e3c3300f 	bic	r3, r3, #15, 0
    f038:	e3833c02 	orr	r3, r3, #512	; 0x200
    f03c:	e5823004 	str	r3, [r2, #4]
    f040:	e59f30fc 	ldr	r3, [pc, #252]	; f144 <set_scr+0x148>
    f044:	e2832048 	add	r2, r3, #72, 0	; 0x48
    f048:	e5832038 	str	r2, [r3, #56]	; 0x38
    f04c:	e3a02008 	mov	r2, #8, 0
    f050:	e5832010 	str	r2, [r3, #16]
    f054:	e3a02001 	mov	r2, #1, 0
    f058:	e5832004 	str	r2, [r3, #4]
    f05c:	e59f20e8 	ldr	r2, [pc, #232]	; f14c <set_scr+0x150>
    f060:	e3a01000 	mov	r1, #0, 0
    f064:	e3a00033 	mov	r0, #51, 0	; 0x33
    f068:	ebffff89 	bl	ee94 <emmc_app_command>
    f06c:	e2504000 	subs	r4, r0, #0, 0
    f070:	0a00001a 	beq	f0e0 <set_scr+0xe4>
    f074:	e59f10c8 	ldr	r1, [pc, #200]	; f144 <set_scr+0x148>
    f078:	e3a03c02 	mov	r3, #512	; 0x200
    f07c:	e5813010 	str	r3, [r1, #16]
    f080:	e5913048 	ldr	r3, [r1, #72]	; 0x48
    f084:	e1a02403 	lsl	r2, r3, #8
    f088:	e20228ff 	and	r2, r2, #16711680	; 0xff0000
    f08c:	e1822c03 	orr	r2, r2, r3, lsl #24
    f090:	e1a03423 	lsr	r3, r3, #8
    f094:	e2033cff 	and	r3, r3, #65280	; 0xff00
    f098:	e1823003 	orr	r3, r2, r3
    f09c:	e3e00000 	mvn	r0, #0, 0
    f0a0:	e5810054 	str	r0, [r1, #84]	; 0x54
    f0a4:	e1a02c22 	lsr	r2, r2, #24
    f0a8:	e1a017a3 	lsr	r1, r3, #15
    f0ac:	e2011001 	and	r1, r1, #1, 0
    f0b0:	e1a03523 	lsr	r3, r3, #10
    f0b4:	e2033001 	and	r3, r3, #1, 0
    f0b8:	e212200f 	ands	r2, r2, #15, 0
    f0bc:	1a00000a 	bne	f0ec <set_scr+0xf0>
    f0c0:	e59f307c 	ldr	r3, [pc, #124]	; f144 <set_scr+0x148>
    f0c4:	e3a02001 	mov	r2, #1, 0
    f0c8:	e5832054 	str	r2, [r3, #84]	; 0x54
    f0cc:	e1a00004 	mov	r0, r4
    f0d0:	e8bd8010 	pop	{r4, pc}
    f0d4:	e59f0074 	ldr	r0, [pc, #116]	; f150 <set_scr+0x154>
    f0d8:	eb0003c9 	bl	10004 <printk>
    f0dc:	eafffffa 	b	f0cc <set_scr+0xd0>
    f0e0:	e59f006c 	ldr	r0, [pc, #108]	; f154 <set_scr+0x158>
    f0e4:	eb0003c6 	bl	10004 <printk>
    f0e8:	eafffff7 	b	f0cc <set_scr+0xd0>
    f0ec:	e3520001 	cmp	r2, #1, 0
    f0f0:	0a000006 	beq	f110 <set_scr+0x114>
    f0f4:	e3520002 	cmp	r2, #2, 0
    f0f8:	1afffff3 	bne	f0cc <set_scr+0xd0>
    f0fc:	e3510000 	cmp	r1, #0, 0
    f100:	1a000006 	bne	f120 <set_scr+0x124>
    f104:	e59f3038 	ldr	r3, [pc, #56]	; f144 <set_scr+0x148>
    f108:	e5832054 	str	r2, [r3, #84]	; 0x54
    f10c:	eaffffee 	b	f0cc <set_scr+0xd0>
    f110:	e59f302c 	ldr	r3, [pc, #44]	; f144 <set_scr+0x148>
    f114:	e3a0200b 	mov	r2, #11, 0
    f118:	e5832054 	str	r2, [r3, #84]	; 0x54
    f11c:	eaffffea 	b	f0cc <set_scr+0xd0>
    f120:	e3530000 	cmp	r3, #0, 0
    f124:	059f2018 	ldreq	r2, [pc, #24]	; f144 <set_scr+0x148>
    f128:	03a01003 	moveq	r1, #3, 0
    f12c:	05821054 	streq	r1, [r2, #84]	; 0x54
    f130:	e3530000 	cmp	r3, #0, 0
    f134:	159f3008 	ldrne	r3, [pc, #8]	; f144 <set_scr+0x148>
    f138:	13a02004 	movne	r2, #4, 0
    f13c:	15832054 	strne	r2, [r3, #84]	; 0x54
    f140:	eaffffe1 	b	f0cc <set_scr+0xd0>
    f144:	00014f60 	.word	0x00014f60
    f148:	20300000 	.word	0x20300000
    f14c:	00007530 	.word	0x00007530
    f150:	00013b2c 	.word	0x00013b2c
    f154:	00013b50 	.word	0x00013b50

0000f158 <emmc_card_reset>:
    f158:	e92d4070 	push	{r4, r5, r6, lr}
    f15c:	e59f30fc 	ldr	r3, [pc, #252]	; f260 <emmc_card_reset+0x108>
    f160:	e3a02401 	mov	r2, #16777216	; 0x1000000
    f164:	e583202c 	str	r2, [r3, #44]	; 0x2c
    f168:	e3a03e7d 	mov	r3, #2000	; 0x7d0
    f16c:	e3a02000 	mov	r2, #0, 0
    f170:	e3a01407 	mov	r1, #117440512	; 0x7000000
    f174:	e59f00e8 	ldr	r0, [pc, #232]	; f264 <emmc_card_reset+0x10c>
    f178:	ebfffd47 	bl	e69c <wait_reg_mask>
    f17c:	e2504000 	subs	r4, r0, #0, 0
    f180:	0a00002f 	beq	f244 <emmc_card_reset+0xec>
    f184:	ebffff1e 	bl	ee04 <emmc_setup_clock>
    f188:	e2504000 	subs	r4, r0, #0, 0
    f18c:	0a00002e 	beq	f24c <emmc_card_reset+0xf4>
    f190:	e59f30c8 	ldr	r3, [pc, #200]	; f260 <emmc_card_reset+0x108>
    f194:	e3a04000 	mov	r4, #0, 0
    f198:	e5834038 	str	r4, [r3, #56]	; 0x38
    f19c:	e3e02000 	mvn	r2, #0, 0
    f1a0:	e5832030 	str	r2, [r3, #48]	; 0x30
    f1a4:	e5832034 	str	r2, [r3, #52]	; 0x34
    f1a8:	e3a000cb 	mov	r0, #203, 0	; 0xcb
    f1ac:	eb00051d 	bl	10628 <delay_ms>
    f1b0:	e59f30b0 	ldr	r3, [pc, #176]	; f268 <emmc_card_reset+0x110>
    f1b4:	e5834004 	str	r4, [r3, #4]
    f1b8:	e583400c 	str	r4, [r3, #12]
    f1bc:	e5c34000 	strb	r4, [r3]
    f1c0:	e5834010 	str	r4, [r3, #16]
    f1c4:	e3a02e7d 	mov	r2, #2000	; 0x7d0
    f1c8:	e1a01004 	mov	r1, r4
    f1cc:	e1a00004 	mov	r0, r4
    f1d0:	ebfffe06 	bl	e9f0 <emmc_command>
    f1d4:	e2504000 	subs	r4, r0, #0, 0
    f1d8:	0a00001d 	beq	f254 <emmc_card_reset+0xfc>
    f1dc:	ebfffe1e 	bl	ea5c <check_v2_card>
    f1e0:	e1a05000 	mov	r5, r0
    f1e4:	ebfffe4f 	bl	eb28 <check_usable_card>
    f1e8:	e2504000 	subs	r4, r0, #0, 0
    f1ec:	0a000016 	beq	f24c <emmc_card_reset+0xf4>
    f1f0:	ebffff4c 	bl	ef28 <check_ocr>
    f1f4:	e2504000 	subs	r4, r0, #0, 0
    f1f8:	0a000013 	beq	f24c <emmc_card_reset+0xf4>
    f1fc:	e1a00005 	mov	r0, r5
    f200:	ebffff5b 	bl	ef74 <check_sdhc_support>
    f204:	e2504000 	subs	r4, r0, #0, 0
    f208:	0a00000f 	beq	f24c <emmc_card_reset+0xf4>
    f20c:	e3a0000a 	mov	r0, #10, 0
    f210:	eb000504 	bl	10628 <delay_ms>
    f214:	ebfffe64 	bl	ebac <check_rca>
    f218:	e2504000 	subs	r4, r0, #0, 0
    f21c:	0a00000a 	beq	f24c <emmc_card_reset+0xf4>
    f220:	ebfffe84 	bl	ec38 <select_card>
    f224:	e2504000 	subs	r4, r0, #0, 0
    f228:	0a000007 	beq	f24c <emmc_card_reset+0xf4>
    f22c:	ebffff72 	bl	effc <set_scr>
    f230:	e2504000 	subs	r4, r0, #0, 0
    f234:	159f3024 	ldrne	r3, [pc, #36]	; f260 <emmc_card_reset+0x108>
    f238:	13e02000 	mvnne	r2, #0, 0
    f23c:	15832030 	strne	r2, [r3, #48]	; 0x30
    f240:	ea000001 	b	f24c <emmc_card_reset+0xf4>
    f244:	e59f0020 	ldr	r0, [pc, #32]	; f26c <emmc_card_reset+0x114>
    f248:	eb00036d 	bl	10004 <printk>
    f24c:	e1a00004 	mov	r0, r4
    f250:	e8bd8070 	pop	{r4, r5, r6, pc}
    f254:	e59f0014 	ldr	r0, [pc, #20]	; f270 <emmc_card_reset+0x118>
    f258:	eb000369 	bl	10004 <printk>
    f25c:	eafffffa 	b	f24c <emmc_card_reset+0xf4>
    f260:	20300000 	.word	0x20300000
    f264:	2030002c 	.word	0x2030002c
    f268:	00014f60 	.word	0x00014f60
    f26c:	00013b70 	.word	0x00013b70
    f270:	00013b90 	.word	0x00013b90

0000f274 <emmc_read>:
    f274:	e92d4030 	push	{r4, r5, lr}
    f278:	e24dd00c 	sub	sp, sp, #12, 0
    f27c:	e1a03b82 	lsl	r3, r2, #23
    f280:	e1a03ba3 	lsr	r3, r3, #23
    f284:	e3530000 	cmp	r3, #0, 0
    f288:	1a000009 	bne	f2b4 <emmc_read+0x40>
    f28c:	e1a05000 	mov	r5, r0
    f290:	e1a04002 	mov	r4, r2
    f294:	e1a03000 	mov	r3, r0
    f298:	e3a00000 	mov	r0, #0, 0
    f29c:	ebfffe81 	bl	eca8 <do_data_command>
    f2a0:	e3500000 	cmp	r0, #0, 0
    f2a4:	0a00000a 	beq	f2d4 <emmc_read+0x60>
    f2a8:	e1a00004 	mov	r0, r4
    f2ac:	e28dd00c 	add	sp, sp, #12, 0
    f2b0:	e8bd8030 	pop	{r4, r5, pc}
    f2b4:	e59f3030 	ldr	r3, [pc, #48]	; f2ec <emmc_read+0x78>
    f2b8:	e58d3000 	str	r3, [sp]
    f2bc:	e59f302c 	ldr	r3, [pc, #44]	; f2f0 <emmc_read+0x7c>
    f2c0:	e59f202c 	ldr	r2, [pc, #44]	; f2f4 <emmc_read+0x80>
    f2c4:	e59f102c 	ldr	r1, [pc, #44]	; f2f8 <emmc_read+0x84>
    f2c8:	e59f002c 	ldr	r0, [pc, #44]	; f2fc <emmc_read+0x88>
    f2cc:	eb00034c 	bl	10004 <printk>
    f2d0:	eb000485 	bl	104ec <clean_reboot>
    f2d4:	e1a02004 	mov	r2, r4
    f2d8:	e1a01005 	mov	r1, r5
    f2dc:	e59f001c 	ldr	r0, [pc, #28]	; f300 <emmc_read+0x8c>
    f2e0:	eb000347 	bl	10004 <printk>
    f2e4:	e3e00000 	mvn	r0, #0, 0
    f2e8:	eaffffef 	b	f2ac <emmc_read+0x38>
    f2ec:	00013bb0 	.word	0x00013bb0
    f2f0:	000002dd 	.word	0x000002dd
    f2f4:	00013d30 	.word	0x00013d30
    f2f8:	00013a08 	.word	0x00013a08
    f2fc:	00011458 	.word	0x00011458
    f300:	00013bc0 	.word	0x00013bc0

0000f304 <emmc_write>:
    f304:	e92d4010 	push	{r4, lr}
    f308:	e24dd008 	sub	sp, sp, #8, 0
    f30c:	e1a04002 	mov	r4, r2
    f310:	e1a02b82 	lsl	r2, r2, #23
    f314:	e1a02ba2 	lsr	r2, r2, #23
    f318:	e3520000 	cmp	r2, #0, 0
    f31c:	1a000008 	bne	f344 <emmc_write+0x40>
    f320:	e1a03000 	mov	r3, r0
    f324:	e1a02004 	mov	r2, r4
    f328:	e3a00001 	mov	r0, #1, 0
    f32c:	ebfffe5d 	bl	eca8 <do_data_command>
    f330:	e3500000 	cmp	r0, #0, 0
    f334:	0a00000a 	beq	f364 <emmc_write+0x60>
    f338:	e1a00004 	mov	r0, r4
    f33c:	e28dd008 	add	sp, sp, #8, 0
    f340:	e8bd8010 	pop	{r4, pc}
    f344:	e59f302c 	ldr	r3, [pc, #44]	; f378 <emmc_write+0x74>
    f348:	e58d3000 	str	r3, [sp]
    f34c:	e3a03e2f 	mov	r3, #752	; 0x2f0
    f350:	e59f2024 	ldr	r2, [pc, #36]	; f37c <emmc_write+0x78>
    f354:	e59f1024 	ldr	r1, [pc, #36]	; f380 <emmc_write+0x7c>
    f358:	e59f0024 	ldr	r0, [pc, #36]	; f384 <emmc_write+0x80>
    f35c:	eb000328 	bl	10004 <printk>
    f360:	eb000461 	bl	104ec <clean_reboot>
    f364:	e1a01000 	mov	r1, r0
    f368:	e59f0018 	ldr	r0, [pc, #24]	; f388 <emmc_write+0x84>
    f36c:	eb000324 	bl	10004 <printk>
    f370:	e3e00000 	mvn	r0, #0, 0
    f374:	eafffff0 	b	f33c <emmc_write+0x38>
    f378:	00013bb0 	.word	0x00013bb0
    f37c:	00013d3c 	.word	0x00013d3c
    f380:	00013a08 	.word	0x00013a08
    f384:	00011458 	.word	0x00011458
    f388:	00013bec 	.word	0x00013bec

0000f38c <emmc_init>:
    f38c:	e92d4070 	push	{r4, r5, r6, lr}
    f390:	e3a01000 	mov	r1, #0, 0
    f394:	e3a00022 	mov	r0, #34, 0	; 0x22
    f398:	eb000251 	bl	fce4 <gpio_set_function>
    f39c:	e3a01000 	mov	r1, #0, 0
    f3a0:	e3a00023 	mov	r0, #35, 0	; 0x23
    f3a4:	eb00024e 	bl	fce4 <gpio_set_function>
    f3a8:	e3a01000 	mov	r1, #0, 0
    f3ac:	e3a00024 	mov	r0, #36, 0	; 0x24
    f3b0:	eb00024b 	bl	fce4 <gpio_set_function>
    f3b4:	e3a01000 	mov	r1, #0, 0
    f3b8:	e3a00025 	mov	r0, #37, 0	; 0x25
    f3bc:	eb000248 	bl	fce4 <gpio_set_function>
    f3c0:	e3a01000 	mov	r1, #0, 0
    f3c4:	e3a00026 	mov	r0, #38, 0	; 0x26
    f3c8:	eb000245 	bl	fce4 <gpio_set_function>
    f3cc:	e3a01000 	mov	r1, #0, 0
    f3d0:	e3a00027 	mov	r0, #39, 0	; 0x27
    f3d4:	eb000242 	bl	fce4 <gpio_set_function>
    f3d8:	e3a01007 	mov	r1, #7, 0
    f3dc:	e3a00030 	mov	r0, #48, 0	; 0x30
    f3e0:	eb00023f 	bl	fce4 <gpio_set_function>
    f3e4:	e3a01007 	mov	r1, #7, 0
    f3e8:	e3a00031 	mov	r0, #49, 0	; 0x31
    f3ec:	eb00023c 	bl	fce4 <gpio_set_function>
    f3f0:	e3a01007 	mov	r1, #7, 0
    f3f4:	e3a00032 	mov	r0, #50, 0	; 0x32
    f3f8:	eb000239 	bl	fce4 <gpio_set_function>
    f3fc:	e3a01007 	mov	r1, #7, 0
    f400:	e3a00033 	mov	r0, #51, 0	; 0x33
    f404:	eb000236 	bl	fce4 <gpio_set_function>
    f408:	e3a01007 	mov	r1, #7, 0
    f40c:	e3a00034 	mov	r0, #52, 0	; 0x34
    f410:	eb000233 	bl	fce4 <gpio_set_function>
    f414:	e59f305c 	ldr	r3, [pc, #92]	; f478 <emmc_init+0xec>
    f418:	e3a00000 	mov	r0, #0, 0
    f41c:	e5830004 	str	r0, [r3, #4]
    f420:	e583000c 	str	r0, [r3, #12]
    f424:	e5c30000 	strb	r0, [r3]
    f428:	e5830010 	str	r0, [r3, #16]
    f42c:	e5c30024 	strb	r0, [r3, #36]	; 0x24
    f430:	e1c302b6 	strh	r0, [r3, #38]	; 0x26
    f434:	e5830028 	str	r0, [r3, #40]	; 0x28
    f438:	e583003c 	str	r0, [r3, #60]	; 0x3c
    f43c:	e1a05000 	mov	r5, r0
    f440:	e1a04000 	mov	r4, r0
    f444:	e3550009 	cmp	r5, #9, 0
    f448:	ca000008 	bgt	f470 <emmc_init+0xe4>
    f44c:	ebffff41 	bl	f158 <emmc_card_reset>
    f450:	e2504000 	subs	r4, r0, #0, 0
    f454:	1a000005 	bne	f470 <emmc_init+0xe4>
    f458:	e3a00064 	mov	r0, #100, 0	; 0x64
    f45c:	eb000471 	bl	10628 <delay_ms>
    f460:	e59f0014 	ldr	r0, [pc, #20]	; f47c <emmc_init+0xf0>
    f464:	eb0002e6 	bl	10004 <printk>
    f468:	e2855001 	add	r5, r5, #1, 0
    f46c:	eafffff4 	b	f444 <emmc_init+0xb8>
    f470:	e1a00004 	mov	r0, r4
    f474:	e8bd8070 	pop	{r4, r5, r6, pc}
    f478:	00014f60 	.word	0x00014f60
    f47c:	00013c08 	.word	0x00013c08

0000f480 <baud_divisors_set>:
    f480:	e92d4010 	push	{r4, lr}
    f484:	eb00043c 	bl	1057c <dev_barrier>
    f488:	e320f000 	nop	{0}
    f48c:	e320f000 	nop	{0}
    f490:	e320f000 	nop	{0}
    f494:	e320f000 	nop	{0}
    f498:	e320f000 	nop	{0}
    f49c:	e320f000 	nop	{0}
    f4a0:	e59f3014 	ldr	r3, [pc, #20]	; f4bc <baud_divisors_set+0x3c>
    f4a4:	e3a0201a 	mov	r2, #26, 0
    f4a8:	e5832024 	str	r2, [r3, #36]	; 0x24
    f4ac:	e3a02003 	mov	r2, #3, 0
    f4b0:	e5832028 	str	r2, [r3, #40]	; 0x28
    f4b4:	eb000430 	bl	1057c <dev_barrier>
    f4b8:	e8bd8010 	pop	{r4, pc}
    f4bc:	20201000 	.word	0x20201000

0000f4c0 <pl011_tx_is_empty>:
    f4c0:	e92d4010 	push	{r4, lr}
    f4c4:	eb00042c 	bl	1057c <dev_barrier>
    f4c8:	e59f300c 	ldr	r3, [pc, #12]	; f4dc <pl011_tx_is_empty+0x1c>
    f4cc:	e5930018 	ldr	r0, [r3, #24]
    f4d0:	e1a003a0 	lsr	r0, r0, #7
    f4d4:	e2000001 	and	r0, r0, #1, 0
    f4d8:	e8bd8010 	pop	{r4, pc}
    f4dc:	20201000 	.word	0x20201000

0000f4e0 <pl011_flush_tx>:
    f4e0:	e92d4010 	push	{r4, lr}
    f4e4:	eb000424 	bl	1057c <dev_barrier>
    f4e8:	ea000000 	b	f4f0 <pl011_flush_tx+0x10>
    f4ec:	eb000437 	bl	105d0 <rpi_wait>
    f4f0:	e59f301c 	ldr	r3, [pc, #28]	; f514 <pl011_flush_tx+0x34>
    f4f4:	e5933018 	ldr	r3, [r3, #24]
    f4f8:	e3130008 	tst	r3, #8, 0
    f4fc:	1afffffa 	bne	f4ec <pl011_flush_tx+0xc>
    f500:	ebffffee 	bl	f4c0 <pl011_tx_is_empty>
    f504:	e3500000 	cmp	r0, #0, 0
    f508:	0afffff7 	beq	f4ec <pl011_flush_tx+0xc>
    f50c:	eb00041a 	bl	1057c <dev_barrier>
    f510:	e8bd8010 	pop	{r4, pc}
    f514:	20201000 	.word	0x20201000

0000f518 <pl011_disable>:
    f518:	e59f3058 	ldr	r3, [pc, #88]	; f578 <pl011_disable+0x60>
    f51c:	e5933030 	ldr	r3, [r3, #48]	; 0x30
    f520:	e3130001 	tst	r3, #1, 0
    f524:	012fff1e 	bxeq	lr
    f528:	e92d4010 	push	{r4, lr}
    f52c:	eb000412 	bl	1057c <dev_barrier>
    f530:	ebffffea 	bl	f4e0 <pl011_flush_tx>
    f534:	e59f203c 	ldr	r2, [pc, #60]	; f578 <pl011_disable+0x60>
    f538:	e5923030 	ldr	r3, [r2, #48]	; 0x30
    f53c:	e3c33001 	bic	r3, r3, #1, 0
    f540:	e5823030 	str	r3, [r2, #48]	; 0x30
    f544:	ea000001 	b	f550 <pl011_disable+0x38>
    f548:	e59f002c 	ldr	r0, [pc, #44]	; f57c <pl011_disable+0x64>
    f54c:	eb0002ac 	bl	10004 <printk>
    f550:	e59f3020 	ldr	r3, [pc, #32]	; f578 <pl011_disable+0x60>
    f554:	e5933018 	ldr	r3, [r3, #24]
    f558:	e3130008 	tst	r3, #8, 0
    f55c:	1afffff9 	bne	f548 <pl011_disable+0x30>
    f560:	e59f2010 	ldr	r2, [pc, #16]	; f578 <pl011_disable+0x60>
    f564:	e592302c 	ldr	r3, [r2, #44]	; 0x2c
    f568:	e3c33010 	bic	r3, r3, #16, 0
    f56c:	e582302c 	str	r3, [r2, #44]	; 0x2c
    f570:	eb000401 	bl	1057c <dev_barrier>
    f574:	e8bd8010 	pop	{r4, pc}
    f578:	20201000 	.word	0x20201000
    f57c:	00013d48 	.word	0x00013d48

0000f580 <gpio_low_init>:
    f580:	e92d4010 	push	{r4, lr}
    f584:	eb0003fc 	bl	1057c <dev_barrier>
    f588:	e59f303c 	ldr	r3, [pc, #60]	; f5cc <gpio_low_init+0x4c>
    f58c:	e5933030 	ldr	r3, [r3, #48]	; 0x30
    f590:	e3130001 	tst	r3, #1, 0
    f594:	1a00000a 	bne	f5c4 <gpio_low_init+0x44>
    f598:	eb0003f7 	bl	1057c <dev_barrier>
    f59c:	e3a01004 	mov	r1, #4, 0
    f5a0:	e3a0000e 	mov	r0, #14, 0
    f5a4:	eb0001ce 	bl	fce4 <gpio_set_function>
    f5a8:	e3a01004 	mov	r1, #4, 0
    f5ac:	e3a0000f 	mov	r0, #15, 0
    f5b0:	eb0001cb 	bl	fce4 <gpio_set_function>
    f5b4:	e3a0000a 	mov	r0, #10, 0
    f5b8:	eb000411 	bl	10604 <delay_us>
    f5bc:	eb0003ee 	bl	1057c <dev_barrier>
    f5c0:	e8bd8010 	pop	{r4, pc}
    f5c4:	ebffffd3 	bl	f518 <pl011_disable>
    f5c8:	eafffff2 	b	f598 <gpio_low_init+0x18>
    f5cc:	20201000 	.word	0x20201000

0000f5d0 <pl011_uart_init>:
    f5d0:	e92d4010 	push	{r4, lr}
    f5d4:	e1a04000 	mov	r4, r0
    f5d8:	ebffffe8 	bl	f580 <gpio_low_init>
    f5dc:	e59f1028 	ldr	r1, [pc, #40]	; f60c <pl011_uart_init+0x3c>
    f5e0:	e59f0028 	ldr	r0, [pc, #40]	; f610 <pl011_uart_init+0x40>
    f5e4:	ebffe28e 	bl	8024 <PUT32>
    f5e8:	e1a00004 	mov	r0, r4
    f5ec:	ebffffa3 	bl	f480 <baud_divisors_set>
    f5f0:	e59f301c 	ldr	r3, [pc, #28]	; f614 <pl011_uart_init+0x44>
    f5f4:	e3a02070 	mov	r2, #112, 0	; 0x70
    f5f8:	e583202c 	str	r2, [r3, #44]	; 0x2c
    f5fc:	e59f2014 	ldr	r2, [pc, #20]	; f618 <pl011_uart_init+0x48>
    f600:	e5832030 	str	r2, [r3, #48]	; 0x30
    f604:	eb0003dc 	bl	1057c <dev_barrier>
    f608:	e8bd8010 	pop	{r4, pc}
    f60c:	000007f2 	.word	0x000007f2
    f610:	20201044 	.word	0x20201044
    f614:	20201000 	.word	0x20201000
    f618:	00000301 	.word	0x00000301

0000f61c <pl011_rx_only_init>:
    f61c:	e92d4070 	push	{r4, r5, r6, lr}
    f620:	e24dd008 	sub	sp, sp, #8, 0
    f624:	e1a04000 	mov	r4, r0
    f628:	eb0003d3 	bl	1057c <dev_barrier>
    f62c:	e59f30a4 	ldr	r3, [pc, #164]	; f6d8 <pl011_rx_only_init+0xbc>
    f630:	e5933030 	ldr	r3, [r3, #48]	; 0x30
    f634:	e3130001 	tst	r3, #1, 0
    f638:	1a00001c 	bne	f6b0 <pl011_rx_only_init+0x94>
    f63c:	eb0003ce 	bl	1057c <dev_barrier>
    f640:	e3a01004 	mov	r1, #4, 0
    f644:	e3a0000f 	mov	r0, #15, 0
    f648:	eb0001a5 	bl	fce4 <gpio_set_function>
    f64c:	eb0003ca 	bl	1057c <dev_barrier>
    f650:	e59f1084 	ldr	r1, [pc, #132]	; f6dc <pl011_rx_only_init+0xc0>
    f654:	e59f0084 	ldr	r0, [pc, #132]	; f6e0 <pl011_rx_only_init+0xc4>
    f658:	ebffe271 	bl	8024 <PUT32>
    f65c:	e1a06204 	lsl	r6, r4, #4
    f660:	e1a01006 	mov	r1, r6
    f664:	e59f0078 	ldr	r0, [pc, #120]	; f6e4 <pl011_rx_only_init+0xc8>
    f668:	eb0006fe 	bl	11268 <__udivsi3>
    f66c:	e1a05000 	mov	r5, r0
    f670:	e1a01006 	mov	r1, r6
    f674:	e59f0068 	ldr	r0, [pc, #104]	; f6e4 <pl011_rx_only_init+0xc8>
    f678:	eb000737 	bl	1135c <__aeabi_uidivmod>
    f67c:	e3510000 	cmp	r1, #0, 0
    f680:	1a00000c 	bne	f6b8 <pl011_rx_only_init+0x9c>
    f684:	e59f304c 	ldr	r3, [pc, #76]	; f6d8 <pl011_rx_only_init+0xbc>
    f688:	e5835024 	str	r5, [r3, #36]	; 0x24
    f68c:	e3a02000 	mov	r2, #0, 0
    f690:	e5832028 	str	r2, [r3, #40]	; 0x28
    f694:	e3a02070 	mov	r2, #112, 0	; 0x70
    f698:	e583202c 	str	r2, [r3, #44]	; 0x2c
    f69c:	e59f2044 	ldr	r2, [pc, #68]	; f6e8 <pl011_rx_only_init+0xcc>
    f6a0:	e5832030 	str	r2, [r3, #48]	; 0x30
    f6a4:	eb0003b4 	bl	1057c <dev_barrier>
    f6a8:	e28dd008 	add	sp, sp, #8, 0
    f6ac:	e8bd8070 	pop	{r4, r5, r6, pc}
    f6b0:	ebffff98 	bl	f518 <pl011_disable>
    f6b4:	eaffffe0 	b	f63c <pl011_rx_only_init+0x20>
    f6b8:	e58d1004 	str	r1, [sp, #4]
    f6bc:	e58d4000 	str	r4, [sp]
    f6c0:	e59f3024 	ldr	r3, [pc, #36]	; f6ec <pl011_rx_only_init+0xd0>
    f6c4:	e59f2024 	ldr	r2, [pc, #36]	; f6f0 <pl011_rx_only_init+0xd4>
    f6c8:	e59f1024 	ldr	r1, [pc, #36]	; f6f4 <pl011_rx_only_init+0xd8>
    f6cc:	e59f0024 	ldr	r0, [pc, #36]	; f6f8 <pl011_rx_only_init+0xdc>
    f6d0:	eb00024b 	bl	10004 <printk>
    f6d4:	eb000384 	bl	104ec <clean_reboot>
    f6d8:	20201000 	.word	0x20201000
    f6dc:	000007f2 	.word	0x000007f2
    f6e0:	20201044 	.word	0x20201044
    f6e4:	02dc6c00 	.word	0x02dc6c00
    f6e8:	00000201 	.word	0x00000201
    f6ec:	00000126 	.word	0x00000126
    f6f0:	00013da0 	.word	0x00013da0
    f6f4:	00013d50 	.word	0x00013d50
    f6f8:	00013d60 	.word	0x00013d60

0000f6fc <pl011_can_get8>:
    f6fc:	e92d4010 	push	{r4, lr}
    f700:	eb00039d 	bl	1057c <dev_barrier>
    f704:	e59f3018 	ldr	r3, [pc, #24]	; f724 <pl011_can_get8+0x28>
    f708:	e5933018 	ldr	r3, [r3, #24]
    f70c:	e3130010 	tst	r3, #16, 0
    f710:	03a04001 	moveq	r4, #1, 0
    f714:	13a04000 	movne	r4, #0, 0
    f718:	eb000397 	bl	1057c <dev_barrier>
    f71c:	e1a00004 	mov	r0, r4
    f720:	e8bd8010 	pop	{r4, pc}
    f724:	20201000 	.word	0x20201000

0000f728 <pl011_can_put8>:
    f728:	e92d4010 	push	{r4, lr}
    f72c:	eb000392 	bl	1057c <dev_barrier>
    f730:	e59f3018 	ldr	r3, [pc, #24]	; f750 <pl011_can_put8+0x28>
    f734:	e5933018 	ldr	r3, [r3, #24]
    f738:	e3130020 	tst	r3, #32, 0
    f73c:	03a04001 	moveq	r4, #1, 0
    f740:	13a04000 	movne	r4, #0, 0
    f744:	eb00038c 	bl	1057c <dev_barrier>
    f748:	e1a00004 	mov	r0, r4
    f74c:	e8bd8010 	pop	{r4, pc}
    f750:	20201000 	.word	0x20201000

0000f754 <pl011_get8>:
    f754:	e92d4010 	push	{r4, lr}
    f758:	eb000387 	bl	1057c <dev_barrier>
    f75c:	ea000000 	b	f764 <pl011_get8+0x10>
    f760:	eb00039a 	bl	105d0 <rpi_wait>
    f764:	ebffffe4 	bl	f6fc <pl011_can_get8>
    f768:	e3500000 	cmp	r0, #0, 0
    f76c:	0afffffb 	beq	f760 <pl011_get8+0xc>
    f770:	e59f300c 	ldr	r3, [pc, #12]	; f784 <pl011_get8+0x30>
    f774:	e5934000 	ldr	r4, [r3]
    f778:	eb00037f 	bl	1057c <dev_barrier>
    f77c:	e6ef0074 	uxtb	r0, r4
    f780:	e8bd8010 	pop	{r4, pc}
    f784:	20201000 	.word	0x20201000

0000f788 <pl011_put8>:
    f788:	e92d4010 	push	{r4, lr}
    f78c:	e1a04000 	mov	r4, r0
    f790:	eb000379 	bl	1057c <dev_barrier>
    f794:	ea000000 	b	f79c <pl011_put8+0x14>
    f798:	eb00038c 	bl	105d0 <rpi_wait>
    f79c:	ebffffe1 	bl	f728 <pl011_can_put8>
    f7a0:	e3500000 	cmp	r0, #0, 0
    f7a4:	0afffffb 	beq	f798 <pl011_put8+0x10>
    f7a8:	e59f300c 	ldr	r3, [pc, #12]	; f7bc <pl011_put8+0x34>
    f7ac:	e5834000 	str	r4, [r3]
    f7b0:	eb000371 	bl	1057c <dev_barrier>
    f7b4:	e3a00001 	mov	r0, #1, 0
    f7b8:	e8bd8010 	pop	{r4, pc}
    f7bc:	20201000 	.word	0x20201000

0000f7c0 <pl011_putc>:
    f7c0:	e92d4010 	push	{r4, lr}
    f7c4:	e1a04000 	mov	r4, r0
    f7c8:	eb00036b 	bl	1057c <dev_barrier>
    f7cc:	e6ef0074 	uxtb	r0, r4
    f7d0:	ebffffec 	bl	f788 <pl011_put8>
    f7d4:	e1a04000 	mov	r4, r0
    f7d8:	eb000367 	bl	1057c <dev_barrier>
    f7dc:	e1a00004 	mov	r0, r4
    f7e0:	e8bd8010 	pop	{r4, pc}

0000f7e4 <pl011_has_data>:
    f7e4:	e92d4010 	push	{r4, lr}
    f7e8:	eb000363 	bl	1057c <dev_barrier>
    f7ec:	ebffffc2 	bl	f6fc <pl011_can_get8>
    f7f0:	e1a04000 	mov	r4, r0
    f7f4:	eb000360 	bl	1057c <dev_barrier>
    f7f8:	e1a00004 	mov	r0, r4
    f7fc:	e8bd8010 	pop	{r4, pc}

0000f800 <pl011_console_init>:
    f800:	e92d4010 	push	{r4, lr}
    f804:	e59f000c 	ldr	r0, [pc, #12]	; f818 <pl011_console_init+0x18>
    f808:	ebffff70 	bl	f5d0 <pl011_uart_init>
    f80c:	e59f0008 	ldr	r0, [pc, #8]	; f81c <pl011_console_init+0x1c>
    f810:	eb000308 	bl	10438 <rpi_putchar_set>
    f814:	e8bd8010 	pop	{r4, pc}
    f818:	0001c200 	.word	0x0001c200
    f81c:	0000f7c0 	.word	0x0000f7c0

0000f820 <using_staff_pl01>:
    f820:	e12fff1e 	bx	lr

0000f824 <kmalloc_heap_end>:
    f824:	e59f3004 	ldr	r3, [pc, #4]	; f830 <kmalloc_heap_end+0xc>
    f828:	e5930000 	ldr	r0, [r3]
    f82c:	e12fff1e 	bx	lr
    f830:	00014c34 	.word	0x00014c34

0000f834 <kmalloc_heap_start>:
    f834:	e59f3004 	ldr	r3, [pc, #4]	; f840 <kmalloc_heap_start+0xc>
    f838:	e5930004 	ldr	r0, [r3, #4]
    f83c:	e12fff1e 	bx	lr
    f840:	00014c34 	.word	0x00014c34

0000f844 <kmalloc_heap_ptr>:
    f844:	e59f3004 	ldr	r3, [pc, #4]	; f850 <kmalloc_heap_ptr+0xc>
    f848:	e5930008 	ldr	r0, [r3, #8]
    f84c:	e12fff1e 	bx	lr
    f850:	00014c34 	.word	0x00014c34

0000f854 <kmalloc_init_set_start>:
    f854:	e92d4030 	push	{r4, r5, lr}
    f858:	e24dd00c 	sub	sp, sp, #12, 0
    f85c:	e1a05001 	mov	r5, r1
    f860:	e3510201 	cmp	r1, #268435456	; 0x10000000
    f864:	8a000014 	bhi	f8bc <kmalloc_init_set_start+0x68>
    f868:	e1a04000 	mov	r4, r0
    f86c:	eb000326 	bl	1050c <program_end>
    f870:	e1540000 	cmp	r4, r0
    f874:	3a000017 	bcc	f8d8 <kmalloc_init_set_start+0x84>
    f878:	e3550000 	cmp	r5, #0, 0
    f87c:	0a00001b 	beq	f8f0 <kmalloc_init_set_start+0x9c>
    f880:	e59f30d0 	ldr	r3, [pc, #208]	; f958 <kmalloc_init_set_start+0x104>
    f884:	e5933004 	ldr	r3, [r3, #4]
    f888:	e1530004 	cmp	r3, r4
    f88c:	8a00001f 	bhi	f910 <kmalloc_init_set_start+0xbc>
    f890:	e59f30c0 	ldr	r3, [pc, #192]	; f958 <kmalloc_init_set_start+0x104>
    f894:	e5933008 	ldr	r3, [r3, #8]
    f898:	e1530004 	cmp	r3, r4
    f89c:	8a000023 	bhi	f930 <kmalloc_init_set_start+0xdc>
    f8a0:	e59f30b0 	ldr	r3, [pc, #176]	; f958 <kmalloc_init_set_start+0x104>
    f8a4:	e5834008 	str	r4, [r3, #8]
    f8a8:	e5834004 	str	r4, [r3, #4]
    f8ac:	e0844005 	add	r4, r4, r5
    f8b0:	e5834000 	str	r4, [r3]
    f8b4:	e28dd00c 	add	sp, sp, #12, 0
    f8b8:	e8bd8030 	pop	{r4, r5, pc}
    f8bc:	e58d1000 	str	r1, [sp]
    f8c0:	e3a0303c 	mov	r3, #60, 0	; 0x3c
    f8c4:	e59f2090 	ldr	r2, [pc, #144]	; f95c <kmalloc_init_set_start+0x108>
    f8c8:	e59f1090 	ldr	r1, [pc, #144]	; f960 <kmalloc_init_set_start+0x10c>
    f8cc:	e59f0090 	ldr	r0, [pc, #144]	; f964 <kmalloc_init_set_start+0x110>
    f8d0:	eb0001cb 	bl	10004 <printk>
    f8d4:	eb000304 	bl	104ec <clean_reboot>
    f8d8:	e3a03040 	mov	r3, #64, 0	; 0x40
    f8dc:	e59f2078 	ldr	r2, [pc, #120]	; f95c <kmalloc_init_set_start+0x108>
    f8e0:	e59f1078 	ldr	r1, [pc, #120]	; f960 <kmalloc_init_set_start+0x10c>
    f8e4:	e59f007c 	ldr	r0, [pc, #124]	; f968 <kmalloc_init_set_start+0x114>
    f8e8:	eb0001c5 	bl	10004 <printk>
    f8ec:	eb0002fe 	bl	104ec <clean_reboot>
    f8f0:	e59f3074 	ldr	r3, [pc, #116]	; f96c <kmalloc_init_set_start+0x118>
    f8f4:	e58d3000 	str	r3, [sp]
    f8f8:	e3a03042 	mov	r3, #66, 0	; 0x42
    f8fc:	e59f2058 	ldr	r2, [pc, #88]	; f95c <kmalloc_init_set_start+0x108>
    f900:	e59f1058 	ldr	r1, [pc, #88]	; f960 <kmalloc_init_set_start+0x10c>
    f904:	e59f0064 	ldr	r0, [pc, #100]	; f970 <kmalloc_init_set_start+0x11c>
    f908:	eb0001bd 	bl	10004 <printk>
    f90c:	eb0002f6 	bl	104ec <clean_reboot>
    f910:	e58d4004 	str	r4, [sp, #4]
    f914:	e58d3000 	str	r3, [sp]
    f918:	e3a03044 	mov	r3, #68, 0	; 0x44
    f91c:	e59f2038 	ldr	r2, [pc, #56]	; f95c <kmalloc_init_set_start+0x108>
    f920:	e59f1038 	ldr	r1, [pc, #56]	; f960 <kmalloc_init_set_start+0x10c>
    f924:	e59f0048 	ldr	r0, [pc, #72]	; f974 <kmalloc_init_set_start+0x120>
    f928:	eb0001b5 	bl	10004 <printk>
    f92c:	eb0002ee 	bl	104ec <clean_reboot>
    f930:	e59f3020 	ldr	r3, [pc, #32]	; f958 <kmalloc_init_set_start+0x104>
    f934:	e5933000 	ldr	r3, [r3]
    f938:	e58d3004 	str	r3, [sp, #4]
    f93c:	e58d4000 	str	r4, [sp]
    f940:	e3a03048 	mov	r3, #72, 0	; 0x48
    f944:	e59f2010 	ldr	r2, [pc, #16]	; f95c <kmalloc_init_set_start+0x108>
    f948:	e59f1010 	ldr	r1, [pc, #16]	; f960 <kmalloc_init_set_start+0x10c>
    f94c:	e59f0024 	ldr	r0, [pc, #36]	; f978 <kmalloc_init_set_start+0x124>
    f950:	eb0001ab 	bl	10004 <printk>
    f954:	eb0002e4 	bl	104ec <clean_reboot>
    f958:	00014c34 	.word	0x00014c34
    f95c:	00014014 	.word	0x00014014
    f960:	00013db4 	.word	0x00013db4
    f964:	00013dc4 	.word	0x00013dc4
    f968:	00013df4 	.word	0x00013df4
    f96c:	00013e1c 	.word	0x00013e1c
    f970:	00011458 	.word	0x00011458
    f974:	00013e28 	.word	0x00013e28
    f978:	00013e90 	.word	0x00013e90

0000f97c <kmalloc_notzero>:
    f97c:	e52de004 	push	{lr}		; (str lr, [sp, #-4]!)
    f980:	e24dd00c 	sub	sp, sp, #12, 0
    f984:	e3500000 	cmp	r0, #0, 0
    f988:	0a00000f 	beq	f9cc <kmalloc_notzero+0x50>
    f98c:	e2800007 	add	r0, r0, #7, 0
    f990:	e3c03007 	bic	r3, r0, #7, 0
    f994:	e59f20ac 	ldr	r2, [pc, #172]	; fa48 <kmalloc_notzero+0xcc>
    f998:	e5920008 	ldr	r0, [r2, #8]
    f99c:	e3100007 	tst	r0, #7, 0
    f9a0:	1a000011 	bne	f9ec <kmalloc_notzero+0x70>
    f9a4:	e3500000 	cmp	r0, #0, 0
    f9a8:	0a000017 	beq	fa0c <kmalloc_notzero+0x90>
    f9ac:	e0802003 	add	r2, r0, r3
    f9b0:	e59f1090 	ldr	r1, [pc, #144]	; fa48 <kmalloc_notzero+0xcc>
    f9b4:	e5812008 	str	r2, [r1, #8]
    f9b8:	e5911000 	ldr	r1, [r1]
    f9bc:	e1520001 	cmp	r2, r1
    f9c0:	8a000017 	bhi	fa24 <kmalloc_notzero+0xa8>
    f9c4:	e28dd00c 	add	sp, sp, #12, 0
    f9c8:	e49df004 	pop	{pc}		; (ldr pc, [sp], #4)
    f9cc:	e59f3078 	ldr	r3, [pc, #120]	; fa4c <kmalloc_notzero+0xd0>
    f9d0:	e58d3000 	str	r3, [sp]
    f9d4:	e3a03051 	mov	r3, #81, 0	; 0x51
    f9d8:	e59f2070 	ldr	r2, [pc, #112]	; fa50 <kmalloc_notzero+0xd4>
    f9dc:	e59f1070 	ldr	r1, [pc, #112]	; fa54 <kmalloc_notzero+0xd8>
    f9e0:	e59f0070 	ldr	r0, [pc, #112]	; fa58 <kmalloc_notzero+0xdc>
    f9e4:	eb000186 	bl	10004 <printk>
    f9e8:	eb0002bf 	bl	104ec <clean_reboot>
    f9ec:	e59f3068 	ldr	r3, [pc, #104]	; fa5c <kmalloc_notzero+0xe0>
    f9f0:	e58d3000 	str	r3, [sp]
    f9f4:	e3a03054 	mov	r3, #84, 0	; 0x54
    f9f8:	e59f2050 	ldr	r2, [pc, #80]	; fa50 <kmalloc_notzero+0xd4>
    f9fc:	e59f1050 	ldr	r1, [pc, #80]	; fa54 <kmalloc_notzero+0xd8>
    fa00:	e59f0050 	ldr	r0, [pc, #80]	; fa58 <kmalloc_notzero+0xdc>
    fa04:	eb00017e 	bl	10004 <printk>
    fa08:	eb0002b7 	bl	104ec <clean_reboot>
    fa0c:	e3a03058 	mov	r3, #88, 0	; 0x58
    fa10:	e59f2038 	ldr	r2, [pc, #56]	; fa50 <kmalloc_notzero+0xd4>
    fa14:	e59f1038 	ldr	r1, [pc, #56]	; fa54 <kmalloc_notzero+0xd8>
    fa18:	e59f0040 	ldr	r0, [pc, #64]	; fa60 <kmalloc_notzero+0xe4>
    fa1c:	eb000178 	bl	10004 <printk>
    fa20:	eb0002b1 	bl	104ec <clean_reboot>
    fa24:	e0422001 	sub	r2, r2, r1
    fa28:	e58d2004 	str	r2, [sp, #4]
    fa2c:	e58d3000 	str	r3, [sp]
    fa30:	e3a0305c 	mov	r3, #92, 0	; 0x5c
    fa34:	e59f2014 	ldr	r2, [pc, #20]	; fa50 <kmalloc_notzero+0xd4>
    fa38:	e59f1014 	ldr	r1, [pc, #20]	; fa54 <kmalloc_notzero+0xd8>
    fa3c:	e59f0020 	ldr	r0, [pc, #32]	; fa64 <kmalloc_notzero+0xe8>
    fa40:	eb00016f 	bl	10004 <printk>
    fa44:	eb0002a8 	bl	104ec <clean_reboot>
    fa48:	00014c34 	.word	0x00014c34
    fa4c:	00013e20 	.word	0x00013e20
    fa50:	0001402c 	.word	0x0001402c
    fa54:	00013db4 	.word	0x00013db4
    fa58:	00011458 	.word	0x00011458
    fa5c:	00013ed4 	.word	0x00013ed4
    fa60:	00013eec 	.word	0x00013eec
    fa64:	00013f18 	.word	0x00013f18

0000fa68 <kmalloc>:
    fa68:	e92d4030 	push	{r4, r5, lr}
    fa6c:	e24dd00c 	sub	sp, sp, #12, 0
    fa70:	e2504000 	subs	r4, r0, #0, 0
    fa74:	0a000008 	beq	fa9c <kmalloc+0x34>
    fa78:	e1a00004 	mov	r0, r4
    fa7c:	ebffffbe 	bl	f97c <kmalloc_notzero>
    fa80:	e1a05000 	mov	r5, r0
    fa84:	e1a02004 	mov	r2, r4
    fa88:	e3a01000 	mov	r1, #0, 0
    fa8c:	eb000121 	bl	ff18 <memset>
    fa90:	e1a00005 	mov	r0, r5
    fa94:	e28dd00c 	add	sp, sp, #12, 0
    fa98:	e8bd8030 	pop	{r4, r5, pc}
    fa9c:	e59f3018 	ldr	r3, [pc, #24]	; fabc <kmalloc+0x54>
    faa0:	e58d3000 	str	r3, [sp]
    faa4:	e3a03064 	mov	r3, #100, 0	; 0x64
    faa8:	e59f2010 	ldr	r2, [pc, #16]	; fac0 <kmalloc+0x58>
    faac:	e59f1010 	ldr	r1, [pc, #16]	; fac4 <kmalloc+0x5c>
    fab0:	e59f0010 	ldr	r0, [pc, #16]	; fac8 <kmalloc+0x60>
    fab4:	eb000152 	bl	10004 <printk>
    fab8:	eb00028b 	bl	104ec <clean_reboot>
    fabc:	00013e20 	.word	0x00013e20
    fac0:	0001403c 	.word	0x0001403c
    fac4:	00013db4 	.word	0x00013db4
    fac8:	00011458 	.word	0x00011458

0000facc <kmalloc_aligned>:
    facc:	e52de004 	push	{lr}		; (str lr, [sp, #-4]!)
    fad0:	e24dd00c 	sub	sp, sp, #12, 0
    fad4:	e3500000 	cmp	r0, #0, 0
    fad8:	0a000014 	beq	fb30 <kmalloc_aligned+0x64>
    fadc:	e2613000 	rsb	r3, r1, #0, 0
    fae0:	e1d13003 	bics	r3, r1, r3
    fae4:	1a000019 	bne	fb50 <kmalloc_aligned+0x84>
    fae8:	e3510008 	cmp	r1, #8, 0
    faec:	33a01008 	movcc	r1, #8, 0
    faf0:	e59f30b8 	ldr	r3, [pc, #184]	; fbb0 <kmalloc_aligned+0xe4>
    faf4:	e5932008 	ldr	r2, [r3, #8]
    faf8:	e2613000 	rsb	r3, r1, #0, 0
    fafc:	e1d1c003 	bics	ip, r1, r3
    fb00:	1a00001a 	bne	fb70 <kmalloc_aligned+0xa4>
    fb04:	e0822001 	add	r2, r2, r1
    fb08:	e2422001 	sub	r2, r2, #1, 0
    fb0c:	e0033002 	and	r3, r3, r2
    fb10:	e2411001 	sub	r1, r1, #1, 0
    fb14:	e1110003 	tst	r1, r3
    fb18:	1a00001c 	bne	fb90 <kmalloc_aligned+0xc4>
    fb1c:	e59f208c 	ldr	r2, [pc, #140]	; fbb0 <kmalloc_aligned+0xe4>
    fb20:	e5823008 	str	r3, [r2, #8]
    fb24:	ebffffcf 	bl	fa68 <kmalloc>
    fb28:	e28dd00c 	add	sp, sp, #12, 0
    fb2c:	e49df004 	pop	{pc}		; (ldr pc, [sp], #4)
    fb30:	e59f307c 	ldr	r3, [pc, #124]	; fbb4 <kmalloc_aligned+0xe8>
    fb34:	e58d3000 	str	r3, [sp]
    fb38:	e3a0306e 	mov	r3, #110, 0	; 0x6e
    fb3c:	e59f2074 	ldr	r2, [pc, #116]	; fbb8 <kmalloc_aligned+0xec>
    fb40:	e59f1074 	ldr	r1, [pc, #116]	; fbbc <kmalloc_aligned+0xf0>
    fb44:	e59f0074 	ldr	r0, [pc, #116]	; fbc0 <kmalloc_aligned+0xf4>
    fb48:	eb00012d 	bl	10004 <printk>
    fb4c:	eb000266 	bl	104ec <clean_reboot>
    fb50:	e59f306c 	ldr	r3, [pc, #108]	; fbc4 <kmalloc_aligned+0xf8>
    fb54:	e58d3000 	str	r3, [sp]
    fb58:	e3a0306f 	mov	r3, #111, 0	; 0x6f
    fb5c:	e59f2054 	ldr	r2, [pc, #84]	; fbb8 <kmalloc_aligned+0xec>
    fb60:	e59f1054 	ldr	r1, [pc, #84]	; fbbc <kmalloc_aligned+0xf0>
    fb64:	e59f005c 	ldr	r0, [pc, #92]	; fbc8 <kmalloc_aligned+0xfc>
    fb68:	eb000125 	bl	10004 <printk>
    fb6c:	eb00025e 	bl	104ec <clean_reboot>
    fb70:	e59f3054 	ldr	r3, [pc, #84]	; fbcc <kmalloc_aligned+0x100>
    fb74:	e58d3000 	str	r3, [sp]
    fb78:	e3a03011 	mov	r3, #17, 0
    fb7c:	e59f204c 	ldr	r2, [pc, #76]	; fbd0 <kmalloc_aligned+0x104>
    fb80:	e59f1034 	ldr	r1, [pc, #52]	; fbbc <kmalloc_aligned+0xf0>
    fb84:	e59f0034 	ldr	r0, [pc, #52]	; fbc0 <kmalloc_aligned+0xf4>
    fb88:	eb00011d 	bl	10004 <printk>
    fb8c:	eb000256 	bl	104ec <clean_reboot>
    fb90:	e59f303c 	ldr	r3, [pc, #60]	; fbd4 <kmalloc_aligned+0x108>
    fb94:	e58d3000 	str	r3, [sp]
    fb98:	e3a03076 	mov	r3, #118, 0	; 0x76
    fb9c:	e59f2014 	ldr	r2, [pc, #20]	; fbb8 <kmalloc_aligned+0xec>
    fba0:	e59f1014 	ldr	r1, [pc, #20]	; fbbc <kmalloc_aligned+0xf0>
    fba4:	e59f002c 	ldr	r0, [pc, #44]	; fbd8 <kmalloc_aligned+0x10c>
    fba8:	eb000115 	bl	10004 <printk>
    fbac:	eb00024e 	bl	104ec <clean_reboot>
    fbb0:	00014c34 	.word	0x00014c34
    fbb4:	00013e20 	.word	0x00013e20
    fbb8:	00014044 	.word	0x00014044
    fbbc:	00013db4 	.word	0x00013db4
    fbc0:	00011458 	.word	0x00011458
    fbc4:	00013fa0 	.word	0x00013fa0
    fbc8:	00013f60 	.word	0x00013f60
    fbcc:	00013fb4 	.word	0x00013fb4
    fbd0:	00014054 	.word	0x00014054
    fbd4:	00013ff8 	.word	0x00013ff8
    fbd8:	00013fc0 	.word	0x00013fc0

0000fbdc <kfree_all>:
    fbdc:	e59f3008 	ldr	r3, [pc, #8]	; fbec <kfree_all+0x10>
    fbe0:	e5932004 	ldr	r2, [r3, #4]
    fbe4:	e5832008 	str	r2, [r3, #8]
    fbe8:	e12fff1e 	bx	lr
    fbec:	00014c34 	.word	0x00014c34

0000fbf0 <gpio_set_on>:
    fbf0:	e92d4010 	push	{r4, lr}
    fbf4:	e1a04000 	mov	r4, r0
    fbf8:	e3500035 	cmp	r0, #53, 0	; 0x35
    fbfc:	8a000007 	bhi	fc20 <gpio_set_on+0x30>
    fc00:	e1a002a4 	lsr	r0, r4, #5
    fc04:	e204401f 	and	r4, r4, #31, 0
    fc08:	e3a01001 	mov	r1, #1, 0
    fc0c:	e1a01411 	lsl	r1, r1, r4
    fc10:	e59f3018 	ldr	r3, [pc, #24]	; fc30 <gpio_set_on+0x40>
    fc14:	e0830100 	add	r0, r3, r0, lsl #2
    fc18:	ebffe101 	bl	8024 <PUT32>
    fc1c:	e8bd8010 	pop	{r4, pc}
    fc20:	e1a01000 	mov	r1, r0
    fc24:	e59f0008 	ldr	r0, [pc, #8]	; fc34 <gpio_set_on+0x44>
    fc28:	eb000248 	bl	10550 <gpio_panic>
    fc2c:	eafffff3 	b	fc00 <gpio_set_on+0x10>
    fc30:	2020001c 	.word	0x2020001c
    fc34:	0001405c 	.word	0x0001405c

0000fc38 <gpio_set_off>:
    fc38:	e92d4010 	push	{r4, lr}
    fc3c:	e1a04000 	mov	r4, r0
    fc40:	e3500035 	cmp	r0, #53, 0	; 0x35
    fc44:	8a000007 	bhi	fc68 <gpio_set_off+0x30>
    fc48:	e1a002a4 	lsr	r0, r4, #5
    fc4c:	e204401f 	and	r4, r4, #31, 0
    fc50:	e3a01001 	mov	r1, #1, 0
    fc54:	e1a01411 	lsl	r1, r1, r4
    fc58:	e59f3018 	ldr	r3, [pc, #24]	; fc78 <gpio_set_off+0x40>
    fc5c:	e0830100 	add	r0, r3, r0, lsl #2
    fc60:	ebffe0ef 	bl	8024 <PUT32>
    fc64:	e8bd8010 	pop	{r4, pc}
    fc68:	e1a01000 	mov	r1, r0
    fc6c:	e59f0008 	ldr	r0, [pc, #8]	; fc7c <gpio_set_off+0x44>
    fc70:	eb000236 	bl	10550 <gpio_panic>
    fc74:	eafffff3 	b	fc48 <gpio_set_off+0x10>
    fc78:	20200028 	.word	0x20200028
    fc7c:	0001405c 	.word	0x0001405c

0000fc80 <gpio_write>:
    fc80:	e92d4010 	push	{r4, lr}
    fc84:	e3510000 	cmp	r1, #0, 0
    fc88:	0a000001 	beq	fc94 <gpio_write+0x14>
    fc8c:	ebffffd7 	bl	fbf0 <gpio_set_on>
    fc90:	e8bd8010 	pop	{r4, pc}
    fc94:	ebffffe7 	bl	fc38 <gpio_set_off>
    fc98:	e8bd8010 	pop	{r4, pc}

0000fc9c <gpio_read>:
    fc9c:	e92d4010 	push	{r4, lr}
    fca0:	e1a04000 	mov	r4, r0
    fca4:	e3500035 	cmp	r0, #53, 0	; 0x35
    fca8:	8a000007 	bhi	fccc <gpio_read+0x30>
    fcac:	e1a002a4 	lsr	r0, r4, #5
    fcb0:	e204401f 	and	r4, r4, #31, 0
    fcb4:	e59f3020 	ldr	r3, [pc, #32]	; fcdc <gpio_read+0x40>
    fcb8:	e0830100 	add	r0, r3, r0, lsl #2
    fcbc:	ebffe0da 	bl	802c <GET32>
    fcc0:	e1a00430 	lsr	r0, r0, r4
    fcc4:	e2000001 	and	r0, r0, #1, 0
    fcc8:	e8bd8010 	pop	{r4, pc}
    fccc:	e1a01000 	mov	r1, r0
    fcd0:	e59f0008 	ldr	r0, [pc, #8]	; fce0 <gpio_read+0x44>
    fcd4:	eb00021d 	bl	10550 <gpio_panic>
    fcd8:	eafffff3 	b	fcac <gpio_read+0x10>
    fcdc:	20200034 	.word	0x20200034
    fce0:	0001405c 	.word	0x0001405c

0000fce4 <gpio_set_function>:
    fce4:	e92d41f0 	push	{r4, r5, r6, r7, r8, lr}
    fce8:	e1a04000 	mov	r4, r0
    fcec:	e1a06001 	mov	r6, r1
    fcf0:	e3500035 	cmp	r0, #53, 0	; 0x35
    fcf4:	8a000012 	bhi	fd44 <gpio_set_function+0x60>
    fcf8:	e3d63007 	bics	r3, r6, #7, 0
    fcfc:	1a000014 	bne	fd54 <gpio_set_function+0x70>
    fd00:	e59f505c 	ldr	r5, [pc, #92]	; fd64 <gpio_set_function+0x80>
    fd04:	e0853495 	umull	r3, r5, r5, r4
    fd08:	e1a051a5 	lsr	r5, r5, #3
    fd0c:	e1a08105 	lsl	r8, r5, #2
    fd10:	e2887202 	add	r7, r8, #536870912	; 0x20000000
    fd14:	e2877602 	add	r7, r7, #2097152	; 0x200000
    fd18:	e1a00007 	mov	r0, r7
    fd1c:	ebffe0c2 	bl	802c <GET32>
    fd20:	e0885005 	add	r5, r8, r5
    fd24:	e0444085 	sub	r4, r4, r5, lsl #1
    fd28:	e0844084 	add	r4, r4, r4, lsl #1
    fd2c:	e3a01007 	mov	r1, #7, 0
    fd30:	e1c01411 	bic	r1, r0, r1, lsl r4
    fd34:	e1811416 	orr	r1, r1, r6, lsl r4
    fd38:	e1a00007 	mov	r0, r7
    fd3c:	ebffe0b8 	bl	8024 <PUT32>
    fd40:	e8bd81f0 	pop	{r4, r5, r6, r7, r8, pc}
    fd44:	e1a01000 	mov	r1, r0
    fd48:	e59f0018 	ldr	r0, [pc, #24]	; fd68 <gpio_set_function+0x84>
    fd4c:	eb0001ff 	bl	10550 <gpio_panic>
    fd50:	eaffffe8 	b	fcf8 <gpio_set_function+0x14>
    fd54:	e1a01006 	mov	r1, r6
    fd58:	e59f000c 	ldr	r0, [pc, #12]	; fd6c <gpio_set_function+0x88>
    fd5c:	eb0001fb 	bl	10550 <gpio_panic>
    fd60:	eaffffe6 	b	fd00 <gpio_set_function+0x1c>
    fd64:	cccccccd 	.word	0xcccccccd
    fd68:	0001405c 	.word	0x0001405c
    fd6c:	0001406c 	.word	0x0001406c

0000fd70 <gpio_set_output>:
    fd70:	e92d4010 	push	{r4, lr}
    fd74:	e3a01001 	mov	r1, #1, 0
    fd78:	ebffffd9 	bl	fce4 <gpio_set_function>
    fd7c:	e8bd8010 	pop	{r4, pc}

0000fd80 <gpio_set_input>:
    fd80:	e92d4010 	push	{r4, lr}
    fd84:	e3a01000 	mov	r1, #0, 0
    fd88:	ebffffd5 	bl	fce4 <gpio_set_function>
    fd8c:	e8bd8010 	pop	{r4, pc}

0000fd90 <memcmp>:
    fd90:	e52de004 	push	{lr}		; (str lr, [sp, #-4]!)
    fd94:	e1a0e000 	mov	lr, r0
    fd98:	e3a03000 	mov	r3, #0, 0
    fd9c:	e1530002 	cmp	r3, r2
    fda0:	2a000005 	bcs	fdbc <memcmp+0x2c>
    fda4:	e7dec003 	ldrb	ip, [lr, r3]
    fda8:	e7d10003 	ldrb	r0, [r1, r3]
    fdac:	e05c0000 	subs	r0, ip, r0
    fdb0:	149df004 	popne	{pc}		; (ldrne pc, [sp], #4)
    fdb4:	e2833001 	add	r3, r3, #1, 0
    fdb8:	eafffff7 	b	fd9c <memcmp+0xc>
    fdbc:	e3a00000 	mov	r0, #0, 0
    fdc0:	e49df004 	pop	{pc}		; (ldr pc, [sp], #4)

0000fdc4 <memcpy256>:
    fdc4:	e92d40f0 	push	{r4, r5, r6, r7, lr}
    fdc8:	e24dd00c 	sub	sp, sp, #12, 0
    fdcc:	e212401f 	ands	r4, r2, #31, 0
    fdd0:	01a06000 	moveq	r6, r0
    fdd4:	01a07001 	moveq	r7, r1
    fdd8:	01a052a2 	lsreq	r5, r2, #5
    fddc:	0a00000f 	beq	fe20 <memcpy256+0x5c>
    fde0:	e3a03020 	mov	r3, #32, 0
    fde4:	e58d3004 	str	r3, [sp, #4]
    fde8:	e58d2000 	str	r2, [sp]
    fdec:	e3a0300f 	mov	r3, #15, 0
    fdf0:	e59f2038 	ldr	r2, [pc, #56]	; fe30 <memcpy256+0x6c>
    fdf4:	e59f1038 	ldr	r1, [pc, #56]	; fe34 <memcpy256+0x70>
    fdf8:	e59f0038 	ldr	r0, [pc, #56]	; fe38 <memcpy256+0x74>
    fdfc:	eb000080 	bl	10004 <printk>
    fe00:	eb0001b9 	bl	104ec <clean_reboot>
    fe04:	e086c284 	add	ip, r6, r4, lsl #5
    fe08:	e087e284 	add	lr, r7, r4, lsl #5
    fe0c:	e8be000f 	ldm	lr!, {r0, r1, r2, r3}
    fe10:	e8ac000f 	stmia	ip!, {r0, r1, r2, r3}
    fe14:	e89e000f 	ldm	lr, {r0, r1, r2, r3}
    fe18:	e88c000f 	stm	ip, {r0, r1, r2, r3}
    fe1c:	e2844001 	add	r4, r4, #1, 0
    fe20:	e1540005 	cmp	r4, r5
    fe24:	3afffff6 	bcc	fe04 <memcpy256+0x40>
    fe28:	e28dd00c 	add	sp, sp, #12, 0
    fe2c:	e8bd80f0 	pop	{r4, r5, r6, r7, pc}
    fe30:	000140cc 	.word	0x000140cc
    fe34:	00014080 	.word	0x00014080
    fe38:	00014090 	.word	0x00014090

0000fe3c <memcpy>:
    fe3c:	e3100007 	tst	r0, #7, 0
    fe40:	1a00000f 	bne	fe84 <memcpy+0x48>
    fe44:	e3110007 	tst	r1, #7, 0
    fe48:	1a00000d 	bne	fe84 <memcpy+0x48>
    fe4c:	e2123007 	ands	r3, r2, #7, 0
    fe50:	1a00000b 	bne	fe84 <memcpy+0x48>
    fe54:	e1a021a2 	lsr	r2, r2, #3
    fe58:	e1530002 	cmp	r3, r2
    fe5c:	212fff1e 	bxcs	lr
    fe60:	e92d0030 	push	{r4, r5}
    fe64:	e1a0c183 	lsl	ip, r3, #3
    fe68:	e18140dc 	ldrd	r4, [r1, ip]
    fe6c:	e18040fc 	strd	r4, [r0, ip]
    fe70:	e2833001 	add	r3, r3, #1, 0
    fe74:	e1530002 	cmp	r3, r2
    fe78:	3afffff9 	bcc	fe64 <memcpy+0x28>
    fe7c:	e8bd0030 	pop	{r4, r5}
    fe80:	e12fff1e 	bx	lr
    fe84:	e2103003 	ands	r3, r0, #3, 0
    fe88:	1a000011 	bne	fed4 <memcpy+0x98>
    fe8c:	e211c003 	ands	ip, r1, #3, 0
    fe90:	1a00000c 	bne	fec8 <memcpy+0x8c>
    fe94:	e2123003 	ands	r3, r2, #3, 0
    fe98:	1a00000f 	bne	fedc <memcpy+0xa0>
    fe9c:	e1a02122 	lsr	r2, r2, #2
    fea0:	ea000002 	b	feb0 <memcpy+0x74>
    fea4:	e791c103 	ldr	ip, [r1, r3, lsl #2]
    fea8:	e780c103 	str	ip, [r0, r3, lsl #2]
    feac:	e2833001 	add	r3, r3, #1, 0
    feb0:	e1530002 	cmp	r3, r2
    feb4:	3afffffa 	bcc	fea4 <memcpy+0x68>
    feb8:	e12fff1e 	bx	lr
    febc:	e7d1c003 	ldrb	ip, [r1, r3]
    fec0:	e7c0c003 	strb	ip, [r0, r3]
    fec4:	e2833001 	add	r3, r3, #1, 0
    fec8:	e1530002 	cmp	r3, r2
    fecc:	3afffffa 	bcc	febc <memcpy+0x80>
    fed0:	e12fff1e 	bx	lr
    fed4:	e3a03000 	mov	r3, #0, 0
    fed8:	eafffffa 	b	fec8 <memcpy+0x8c>
    fedc:	e1a0300c 	mov	r3, ip
    fee0:	eafffff8 	b	fec8 <memcpy+0x8c>

0000fee4 <memcpy_end>:
    fee4:	e12fff1e 	bx	lr

0000fee8 <memiszero>:
    fee8:	e3a03000 	mov	r3, #0, 0
    feec:	e1530001 	cmp	r3, r1
    fef0:	2a000004 	bcs	ff08 <memiszero+0x20>
    fef4:	e7d02003 	ldrb	r2, [r0, r3]
    fef8:	e3520000 	cmp	r2, #0, 0
    fefc:	1a000003 	bne	ff10 <memiszero+0x28>
    ff00:	e2833001 	add	r3, r3, #1, 0
    ff04:	eafffff8 	b	feec <memiszero+0x4>
    ff08:	e3a00001 	mov	r0, #1, 0
    ff0c:	e12fff1e 	bx	lr
    ff10:	e3a00000 	mov	r0, #0, 0
    ff14:	e12fff1e 	bx	lr

0000ff18 <memset>:
    ff18:	e3520000 	cmp	r2, #0, 0
    ff1c:	012fff1e 	bxeq	lr
    ff20:	e3510000 	cmp	r1, #0, 0
    ff24:	1a000007 	bne	ff48 <memset+0x30>
    ff28:	e3100007 	tst	r0, #7, 0
    ff2c:	1a000001 	bne	ff38 <memset+0x20>
    ff30:	e3120007 	tst	r2, #7, 0
    ff34:	0a000011 	beq	ff80 <memset+0x68>
    ff38:	e3100003 	tst	r0, #3, 0
    ff3c:	1a000001 	bne	ff48 <memset+0x30>
    ff40:	e3120003 	tst	r2, #3, 0
    ff44:	0a000001 	beq	ff50 <memset+0x38>
    ff48:	e0802002 	add	r2, r0, r2
    ff4c:	ea000008 	b	ff74 <memset+0x5c>
    ff50:	e1a02122 	lsr	r2, r2, #2
    ff54:	ea000001 	b	ff60 <memset+0x48>
    ff58:	e4801004 	str	r1, [r0], #4
    ff5c:	e1a02003 	mov	r2, r3
    ff60:	e2423001 	sub	r3, r2, #1, 0
    ff64:	e3520000 	cmp	r2, #0, 0
    ff68:	1afffffa 	bne	ff58 <memset+0x40>
    ff6c:	e12fff1e 	bx	lr
    ff70:	e4c01001 	strb	r1, [r0], #1
    ff74:	e1500002 	cmp	r0, r2
    ff78:	3afffffc 	bcc	ff70 <memset+0x58>
    ff7c:	e12fff1e 	bx	lr
    ff80:	e1a021a2 	lsr	r2, r2, #3
    ff84:	e2423001 	sub	r3, r2, #1, 0
    ff88:	e3520000 	cmp	r2, #0, 0
    ff8c:	012fff1e 	bxeq	lr
    ff90:	e92d0030 	push	{r4, r5}
    ff94:	e1a04001 	mov	r4, r1
    ff98:	e1a05fc1 	asr	r5, r1, #31
    ff9c:	e0c040f8 	strd	r4, [r0], #8
    ffa0:	e1a02003 	mov	r2, r3
    ffa4:	e2433001 	sub	r3, r3, #1, 0
    ffa8:	e3520000 	cmp	r2, #0, 0
    ffac:	1afffff8 	bne	ff94 <memset+0x7c>
    ffb0:	e8bd0030 	pop	{r4, r5}
    ffb4:	e12fff1e 	bx	lr

0000ffb8 <our_crc32_inc>:
    ffb8:	e1e02002 	mvn	r2, r2
    ffbc:	e241c001 	sub	ip, r1, #1, 0
    ffc0:	e3510000 	cmp	r1, #0, 0
    ffc4:	0a000007 	beq	ffe8 <our_crc32_inc+0x30>
    ffc8:	e4d03001 	ldrb	r3, [r0], #1
    ffcc:	e0233002 	eor	r3, r3, r2
    ffd0:	e6ef3073 	uxtb	r3, r3
    ffd4:	e59f1014 	ldr	r1, [pc, #20]	; fff0 <our_crc32_inc+0x38>
    ffd8:	e7913103 	ldr	r3, [r1, r3, lsl #2]
    ffdc:	e0232422 	eor	r2, r3, r2, lsr #8
    ffe0:	e1a0100c 	mov	r1, ip
    ffe4:	eafffff4 	b	ffbc <our_crc32_inc+0x4>
    ffe8:	e1e00002 	mvn	r0, r2
    ffec:	e12fff1e 	bx	lr
    fff0:	000140d8 	.word	0x000140d8

0000fff4 <our_crc32>:
    fff4:	e92d4010 	push	{r4, lr}
    fff8:	e3a02000 	mov	r2, #0, 0
    fffc:	ebffffed 	bl	ffb8 <our_crc32_inc>
   10000:	e8bd8010 	pop	{r4, pc}

00010004 <printk>:
   10004:	e92d000f 	push	{r0, r1, r2, r3}
   10008:	e52de004 	push	{lr}		; (str lr, [sp, #-4]!)
   1000c:	e24dd00c 	sub	sp, sp, #12, 0
   10010:	e28d1014 	add	r1, sp, #20, 0
   10014:	e58d1004 	str	r1, [sp, #4]
   10018:	e59d0010 	ldr	r0, [sp, #16]
   1001c:	eb000047 	bl	10140 <vprintk>
   10020:	e28dd00c 	add	sp, sp, #12, 0
   10024:	e49de004 	pop	{lr}		; (ldr lr, [sp], #4)
   10028:	e28dd010 	add	sp, sp, #16, 0
   1002c:	e12fff1e 	bx	lr

00010030 <emit_val>:
   10030:	e92d4010 	push	{r4, lr}
   10034:	e24dd030 	sub	sp, sp, #48, 0	; 0x30
   10038:	e350000a 	cmp	r0, #10, 0
   1003c:	0a000014 	beq	10094 <emit_val+0x64>
   10040:	e3500010 	cmp	r0, #16, 0
   10044:	0a000022 	beq	100d4 <emit_val+0xa4>
   10048:	e3500002 	cmp	r0, #2, 0
   1004c:	0a000006 	beq	1006c <emit_val+0x3c>
   10050:	e58d0000 	str	r0, [sp]
   10054:	e3a0301b 	mov	r3, #27, 0
   10058:	e59f20c0 	ldr	r2, [pc, #192]	; 10120 <emit_val+0xf0>
   1005c:	e59f10c0 	ldr	r1, [pc, #192]	; 10124 <emit_val+0xf4>
   10060:	e59f00c0 	ldr	r0, [pc, #192]	; 10128 <emit_val+0xf8>
   10064:	ebffffe6 	bl	10004 <printk>
   10068:	eb00011f 	bl	104ec <clean_reboot>
   1006c:	e28d400c 	add	r4, sp, #12, 0
   10070:	e2012001 	and	r2, r1, #1, 0
   10074:	e59f00b0 	ldr	r0, [pc, #176]	; 1012c <emit_val+0xfc>
   10078:	e7d02002 	ldrb	r2, [r0, r2]
   1007c:	e5c42000 	strb	r2, [r4]
   10080:	e2844001 	add	r4, r4, #1, 0
   10084:	e3510001 	cmp	r1, #1, 0
   10088:	e1a010a1 	lsr	r1, r1, #1
   1008c:	8afffff7 	bhi	10070 <emit_val+0x40>
   10090:	ea00001d 	b	1010c <emit_val+0xdc>
   10094:	e28d400c 	add	r4, sp, #12, 0
   10098:	e59f3090 	ldr	r3, [pc, #144]	; 10130 <emit_val+0x100>
   1009c:	e0832193 	umull	r2, r3, r3, r1
   100a0:	e1a031a3 	lsr	r3, r3, #3
   100a4:	e1a00003 	mov	r0, r3
   100a8:	e0833103 	add	r3, r3, r3, lsl #2
   100ac:	e0413083 	sub	r3, r1, r3, lsl #1
   100b0:	e59fc07c 	ldr	ip, [pc, #124]	; 10134 <emit_val+0x104>
   100b4:	e7dcc003 	ldrb	ip, [ip, r3]
   100b8:	e5c4c000 	strb	ip, [r4]
   100bc:	e2844001 	add	r4, r4, #1, 0
   100c0:	e1a03001 	mov	r3, r1
   100c4:	e1a01000 	mov	r1, r0
   100c8:	e3530009 	cmp	r3, #9, 0
   100cc:	8afffff1 	bhi	10098 <emit_val+0x68>
   100d0:	ea00000d 	b	1010c <emit_val+0xdc>
   100d4:	e28d400c 	add	r4, sp, #12, 0
   100d8:	e201200f 	and	r2, r1, #15, 0
   100dc:	e59f0054 	ldr	r0, [pc, #84]	; 10138 <emit_val+0x108>
   100e0:	e7d02002 	ldrb	r2, [r0, r2]
   100e4:	e5c42000 	strb	r2, [r4]
   100e8:	e2844001 	add	r4, r4, #1, 0
   100ec:	e351000f 	cmp	r1, #15, 0
   100f0:	e1a01221 	lsr	r1, r1, #4
   100f4:	8afffff7 	bhi	100d8 <emit_val+0xa8>
   100f8:	ea000003 	b	1010c <emit_val+0xdc>
   100fc:	e59f3038 	ldr	r3, [pc, #56]	; 1013c <emit_val+0x10c>
   10100:	e5933000 	ldr	r3, [r3]
   10104:	e5740001 	ldrb	r0, [r4, #-1]!
   10108:	e12fff33 	blx	r3
   1010c:	e28d300c 	add	r3, sp, #12, 0
   10110:	e1540003 	cmp	r4, r3
   10114:	8afffff8 	bhi	100fc <emit_val+0xcc>
   10118:	e28dd030 	add	sp, sp, #48, 0	; 0x30
   1011c:	e8bd8010 	pop	{r4, pc}
   10120:	00014590 	.word	0x00014590
   10124:	000144d8 	.word	0x000144d8
   10128:	000144e8 	.word	0x000144e8
   1012c:	0001450c 	.word	0x0001450c
   10130:	cccccccd 	.word	0xcccccccd
   10134:	00014510 	.word	0x00014510
   10138:	0001451c 	.word	0x0001451c
   1013c:	00014c40 	.word	0x00014c40

00010140 <vprintk>:
   10140:	e92d4030 	push	{r4, r5, lr}
   10144:	e24dd014 	sub	sp, sp, #20, 0
   10148:	e1a04000 	mov	r4, r0
   1014c:	e58d100c 	str	r1, [sp, #12]
   10150:	ea000003 	b	10164 <vprintk+0x24>
   10154:	e59f32b0 	ldr	r3, [pc, #688]	; 1040c <vprintk+0x2cc>
   10158:	e5933000 	ldr	r3, [r3]
   1015c:	e12fff33 	blx	r3
   10160:	e2844001 	add	r4, r4, #1, 0
   10164:	e5d40000 	ldrb	r0, [r4]
   10168:	e3500000 	cmp	r0, #0, 0
   1016c:	0a0000a4 	beq	10404 <vprintk+0x2c4>
   10170:	e3500025 	cmp	r0, #37, 0	; 0x25
   10174:	1afffff6 	bne	10154 <vprintk+0x14>
   10178:	e2845001 	add	r5, r4, #1, 0
   1017c:	e5d42001 	ldrb	r2, [r4, #1]
   10180:	e2423058 	sub	r3, r2, #88, 0	; 0x58
   10184:	e3530020 	cmp	r3, #32, 0
   10188:	979ff103 	ldrls	pc, [pc, r3, lsl #2]
   1018c:	ea000095 	b	103e8 <vprintk+0x2a8>
   10190:	0001034c 	.word	0x0001034c
   10194:	000103e8 	.word	0x000103e8
   10198:	000103e8 	.word	0x000103e8
   1019c:	000103e8 	.word	0x000103e8
   101a0:	000103e8 	.word	0x000103e8
   101a4:	000103e8 	.word	0x000103e8
   101a8:	000103e8 	.word	0x000103e8
   101ac:	000103e8 	.word	0x000103e8
   101b0:	000103e8 	.word	0x000103e8
   101b4:	000103e8 	.word	0x000103e8
   101b8:	00010214 	.word	0x00010214
   101bc:	00010254 	.word	0x00010254
   101c0:	0001036c 	.word	0x0001036c
   101c4:	000103e8 	.word	0x000103e8
   101c8:	000103e8 	.word	0x000103e8
   101cc:	000103e8 	.word	0x000103e8
   101d0:	000103e8 	.word	0x000103e8
   101d4:	000103e8 	.word	0x000103e8
   101d8:	000103e8 	.word	0x000103e8
   101dc:	000103e8 	.word	0x000103e8
   101e0:	00010278 	.word	0x00010278
   101e4:	000103e8 	.word	0x000103e8
   101e8:	000103e8 	.word	0x000103e8
   101ec:	000103e8 	.word	0x000103e8
   101f0:	00010330 	.word	0x00010330
   101f4:	000103e8 	.word	0x000103e8
   101f8:	000103e8 	.word	0x000103e8
   101fc:	000103b0 	.word	0x000103b0
   10200:	000103e8 	.word	0x000103e8
   10204:	00010234 	.word	0x00010234
   10208:	000103e8 	.word	0x000103e8
   1020c:	000103e8 	.word	0x000103e8
   10210:	00010330 	.word	0x00010330
   10214:	e59d300c 	ldr	r3, [sp, #12]
   10218:	e2832004 	add	r2, r3, #4, 0
   1021c:	e58d200c 	str	r2, [sp, #12]
   10220:	e5931000 	ldr	r1, [r3]
   10224:	e3a00002 	mov	r0, #2, 0
   10228:	ebffff80 	bl	10030 <emit_val>
   1022c:	e1a04005 	mov	r4, r5
   10230:	eaffffca 	b	10160 <vprintk+0x20>
   10234:	e59d300c 	ldr	r3, [sp, #12]
   10238:	e2832004 	add	r2, r3, #4, 0
   1023c:	e58d200c 	str	r2, [sp, #12]
   10240:	e5931000 	ldr	r1, [r3]
   10244:	e3a0000a 	mov	r0, #10, 0
   10248:	ebffff78 	bl	10030 <emit_val>
   1024c:	e1a04005 	mov	r4, r5
   10250:	eaffffc2 	b	10160 <vprintk+0x20>
   10254:	e59f31b0 	ldr	r3, [pc, #432]	; 1040c <vprintk+0x2cc>
   10258:	e5932000 	ldr	r2, [r3]
   1025c:	e59d300c 	ldr	r3, [sp, #12]
   10260:	e2831004 	add	r1, r3, #4, 0
   10264:	e58d100c 	str	r1, [sp, #12]
   10268:	e5930000 	ldr	r0, [r3]
   1026c:	e12fff32 	blx	r2
   10270:	e1a04005 	mov	r4, r5
   10274:	eaffffb9 	b	10160 <vprintk+0x20>
   10278:	e2842002 	add	r2, r4, #2, 0
   1027c:	e5d43002 	ldrb	r3, [r4, #2]
   10280:	e353006c 	cmp	r3, #108, 0	; 0x6c
   10284:	1a000018 	bne	102ec <vprintk+0x1ac>
   10288:	e2845003 	add	r5, r4, #3, 0
   1028c:	e5d43003 	ldrb	r3, [r4, #3]
   10290:	e3530078 	cmp	r3, #120, 0	; 0x78
   10294:	1a00001b 	bne	10308 <vprintk+0x1c8>
   10298:	e59f416c 	ldr	r4, [pc, #364]	; 1040c <vprintk+0x2cc>
   1029c:	e5943000 	ldr	r3, [r4]
   102a0:	e3a00030 	mov	r0, #48, 0	; 0x30
   102a4:	e12fff33 	blx	r3
   102a8:	e5943000 	ldr	r3, [r4]
   102ac:	e3a00078 	mov	r0, #120, 0	; 0x78
   102b0:	e12fff33 	blx	r3
   102b4:	e59d300c 	ldr	r3, [sp, #12]
   102b8:	e2833007 	add	r3, r3, #7, 0
   102bc:	e3c33007 	bic	r3, r3, #7, 0
   102c0:	e2832008 	add	r2, r3, #8, 0
   102c4:	e58d200c 	str	r2, [sp, #12]
   102c8:	e5934000 	ldr	r4, [r3]
   102cc:	e5931004 	ldr	r1, [r3, #4]
   102d0:	e3510000 	cmp	r1, #0, 0
   102d4:	1a000012 	bne	10324 <vprintk+0x1e4>
   102d8:	e1a01004 	mov	r1, r4
   102dc:	e3a00010 	mov	r0, #16, 0
   102e0:	ebffff52 	bl	10030 <emit_val>
   102e4:	e1a04005 	mov	r4, r5
   102e8:	eaffff9c 	b	10160 <vprintk+0x20>
   102ec:	e58d2000 	str	r2, [sp]
   102f0:	e3a0303b 	mov	r3, #59, 0	; 0x3b
   102f4:	e59f2114 	ldr	r2, [pc, #276]	; 10410 <vprintk+0x2d0>
   102f8:	e59f1114 	ldr	r1, [pc, #276]	; 10414 <vprintk+0x2d4>
   102fc:	e59f0114 	ldr	r0, [pc, #276]	; 10418 <vprintk+0x2d8>
   10300:	ebffff3f 	bl	10004 <printk>
   10304:	eb000078 	bl	104ec <clean_reboot>
   10308:	e58d5000 	str	r5, [sp]
   1030c:	e3a0303e 	mov	r3, #62, 0	; 0x3e
   10310:	e59f20f8 	ldr	r2, [pc, #248]	; 10410 <vprintk+0x2d0>
   10314:	e59f10f8 	ldr	r1, [pc, #248]	; 10414 <vprintk+0x2d4>
   10318:	e59f00f8 	ldr	r0, [pc, #248]	; 10418 <vprintk+0x2d8>
   1031c:	ebffff38 	bl	10004 <printk>
   10320:	eb000071 	bl	104ec <clean_reboot>
   10324:	e3a00010 	mov	r0, #16, 0
   10328:	ebffff40 	bl	10030 <emit_val>
   1032c:	eaffffe9 	b	102d8 <vprintk+0x198>
   10330:	e59f40d4 	ldr	r4, [pc, #212]	; 1040c <vprintk+0x2cc>
   10334:	e5943000 	ldr	r3, [r4]
   10338:	e3a00030 	mov	r0, #48, 0	; 0x30
   1033c:	e12fff33 	blx	r3
   10340:	e5943000 	ldr	r3, [r4]
   10344:	e3a00078 	mov	r0, #120, 0	; 0x78
   10348:	e12fff33 	blx	r3
   1034c:	e59d300c 	ldr	r3, [sp, #12]
   10350:	e2832004 	add	r2, r3, #4, 0
   10354:	e58d200c 	str	r2, [sp, #12]
   10358:	e5931000 	ldr	r1, [r3]
   1035c:	e3a00010 	mov	r0, #16, 0
   10360:	ebffff32 	bl	10030 <emit_val>
   10364:	e1a04005 	mov	r4, r5
   10368:	eaffff7c 	b	10160 <vprintk+0x20>
   1036c:	e59d300c 	ldr	r3, [sp, #12]
   10370:	e2832004 	add	r2, r3, #4, 0
   10374:	e58d200c 	str	r2, [sp, #12]
   10378:	e5934000 	ldr	r4, [r3]
   1037c:	e3540000 	cmp	r4, #0, 0
   10380:	ba000004 	blt	10398 <vprintk+0x258>
   10384:	e1a01004 	mov	r1, r4
   10388:	e3a0000a 	mov	r0, #10, 0
   1038c:	ebffff27 	bl	10030 <emit_val>
   10390:	e1a04005 	mov	r4, r5
   10394:	eaffff71 	b	10160 <vprintk+0x20>
   10398:	e59f306c 	ldr	r3, [pc, #108]	; 1040c <vprintk+0x2cc>
   1039c:	e5933000 	ldr	r3, [r3]
   103a0:	e3a0002d 	mov	r0, #45, 0	; 0x2d
   103a4:	e12fff33 	blx	r3
   103a8:	e2644000 	rsb	r4, r4, #0, 0
   103ac:	eafffff4 	b	10384 <vprintk+0x244>
   103b0:	e59d300c 	ldr	r3, [sp, #12]
   103b4:	e2832004 	add	r2, r3, #4, 0
   103b8:	e58d200c 	str	r2, [sp, #12]
   103bc:	e5934000 	ldr	r4, [r3]
   103c0:	e5d40000 	ldrb	r0, [r4]
   103c4:	e3500000 	cmp	r0, #0, 0
   103c8:	0a000004 	beq	103e0 <vprintk+0x2a0>
   103cc:	e59f3038 	ldr	r3, [pc, #56]	; 1040c <vprintk+0x2cc>
   103d0:	e5933000 	ldr	r3, [r3]
   103d4:	e12fff33 	blx	r3
   103d8:	e2844001 	add	r4, r4, #1, 0
   103dc:	eafffff7 	b	103c0 <vprintk+0x280>
   103e0:	e1a04005 	mov	r4, r5
   103e4:	eaffff5d 	b	10160 <vprintk+0x20>
   103e8:	e58d2000 	str	r2, [sp]
   103ec:	e3a03063 	mov	r3, #99, 0	; 0x63
   103f0:	e59f2018 	ldr	r2, [pc, #24]	; 10410 <vprintk+0x2d0>
   103f4:	e59f1018 	ldr	r1, [pc, #24]	; 10414 <vprintk+0x2d4>
   103f8:	e59f001c 	ldr	r0, [pc, #28]	; 1041c <vprintk+0x2dc>
   103fc:	ebffff00 	bl	10004 <printk>
   10400:	eb000039 	bl	104ec <clean_reboot>
   10404:	e28dd014 	add	sp, sp, #20, 0
   10408:	e8bd8030 	pop	{r4, r5, pc}
   1040c:	00014c40 	.word	0x00014c40
   10410:	0001459c 	.word	0x0001459c
   10414:	000144d8 	.word	0x000144d8
   10418:	00014530 	.word	0x00014530
   1041c:	00014568 	.word	0x00014568

00010420 <default_putchar>:
   10420:	e92d4010 	push	{r4, lr}
   10424:	e1a04000 	mov	r4, r0
   10428:	e6ef0070 	uxtb	r0, r0
   1042c:	eb0002cb 	bl	10f60 <uart_put8>
   10430:	e1a00004 	mov	r0, r4
   10434:	e8bd8010 	pop	{r4, pc}

00010438 <rpi_putchar_set>:
   10438:	e59f300c 	ldr	r3, [pc, #12]	; 1044c <rpi_putchar_set+0x14>
   1043c:	e5932000 	ldr	r2, [r3]
   10440:	e5830000 	str	r0, [r3]
   10444:	e1a00002 	mov	r0, r2
   10448:	e12fff1e 	bx	lr
   1044c:	00014c40 	.word	0x00014c40

00010450 <strcat>:
   10450:	e1a02000 	mov	r2, r0
   10454:	e1a03002 	mov	r3, r2
   10458:	e2822001 	add	r2, r2, #1, 0
   1045c:	e5d3c000 	ldrb	ip, [r3]
   10460:	e35c0000 	cmp	ip, #0, 0
   10464:	1afffffa 	bne	10454 <strcat+0x4>
   10468:	e2433001 	sub	r3, r3, #1, 0
   1046c:	e5d12000 	ldrb	r2, [r1]
   10470:	e2811001 	add	r1, r1, #1, 0
   10474:	e5e32001 	strb	r2, [r3, #1]!
   10478:	e3520000 	cmp	r2, #0, 0
   1047c:	1afffffa 	bne	1046c <strcat+0x1c>
   10480:	e12fff1e 	bx	lr

00010484 <strcmp>:
   10484:	e5d03000 	ldrb	r3, [r0]
   10488:	e3530000 	cmp	r3, #0, 0
   1048c:	0a000004 	beq	104a4 <strcmp+0x20>
   10490:	e5d12000 	ldrb	r2, [r1]
   10494:	e1530002 	cmp	r3, r2
   10498:	02800001 	addeq	r0, r0, #1, 0
   1049c:	02811001 	addeq	r1, r1, #1, 0
   104a0:	0afffff7 	beq	10484 <strcmp>
   104a4:	e5d10000 	ldrb	r0, [r1]
   104a8:	e0430000 	sub	r0, r3, r0
   104ac:	e12fff1e 	bx	lr

000104b0 <strcpy>:
   104b0:	e1a0c000 	mov	ip, r0
   104b4:	e5d12000 	ldrb	r2, [r1]
   104b8:	e2811001 	add	r1, r1, #1, 0
   104bc:	e5cc2000 	strb	r2, [ip]
   104c0:	e28cc001 	add	ip, ip, #1, 0
   104c4:	e3520000 	cmp	r2, #0, 0
   104c8:	1afffff9 	bne	104b4 <strcpy+0x4>
   104cc:	e12fff1e 	bx	lr

000104d0 <strlen>:
   104d0:	e1a02000 	mov	r2, r0
   104d4:	e3a00000 	mov	r0, #0, 0
   104d8:	e7d23000 	ldrb	r3, [r2, r0]
   104dc:	e3530000 	cmp	r3, #0, 0
   104e0:	012fff1e 	bxeq	lr
   104e4:	e2800001 	add	r0, r0, #1, 0
   104e8:	eafffffa 	b	104d8 <strlen+0x8>

000104ec <clean_reboot>:
   104ec:	e92d4010 	push	{r4, lr}
   104f0:	e59f0010 	ldr	r0, [pc, #16]	; 10508 <clean_reboot+0x1c>
   104f4:	eb0002ec 	bl	110ac <putk>
   104f8:	eb0002d3 	bl	1104c <uart_flush_tx>
   104fc:	e3a0000a 	mov	r0, #10, 0
   10500:	eb000048 	bl	10628 <delay_ms>
   10504:	eb000022 	bl	10594 <rpi_reboot>
   10508:	000145a4 	.word	0x000145a4

0001050c <program_end>:
   1050c:	e59f0000 	ldr	r0, [pc]	; 10514 <program_end+0x8>
   10510:	e12fff1e 	bx	lr
   10514:	000151b8 	.word	0x000151b8

00010518 <_cstart>:
   10518:	e92d4010 	push	{r4, lr}
   1051c:	e59f3024 	ldr	r3, [pc, #36]	; 10548 <_cstart+0x30>
   10520:	e59f2024 	ldr	r2, [pc, #36]	; 1054c <_cstart+0x34>
   10524:	e1530002 	cmp	r3, r2
   10528:	33a02000 	movcc	r2, #0, 0
   1052c:	34c32001 	strbcc	r2, [r3], #1
   10530:	3afffffa 	bcc	10520 <_cstart+0x8>
   10534:	eb000246 	bl	10e54 <uart_init>
   10538:	e3a03001 	mov	r3, #1, 0
   1053c:	ee0f3f1c 	mcr	15, 0, r3, cr15, cr12, {0}
   10540:	ebffdefe 	bl	8140 <notmain>
   10544:	ebffffe8 	bl	104ec <clean_reboot>
   10548:	00014c48 	.word	0x00014c48
   1054c:	000151b8 	.word	0x000151b8

00010550 <gpio_panic>:
   10550:	e92d000f 	push	{r0, r1, r2, r3}
   10554:	e92d4010 	push	{r4, lr}
   10558:	e3a03005 	mov	r3, #5, 0
   1055c:	e59f200c 	ldr	r2, [pc, #12]	; 10570 <gpio_panic+0x20>
   10560:	e59f100c 	ldr	r1, [pc, #12]	; 10574 <gpio_panic+0x24>
   10564:	e59f000c 	ldr	r0, [pc, #12]	; 10578 <gpio_panic+0x28>
   10568:	ebfffea5 	bl	10004 <printk>
   1056c:	ebffffde 	bl	104ec <clean_reboot>
   10570:	000145f0 	.word	0x000145f0
   10574:	000145b0 	.word	0x000145b0
   10578:	000145cc 	.word	0x000145cc

0001057c <dev_barrier>:
   1057c:	ea000002 	b	1058c <dsb>

00010580 <dmb>:
   10580:	e3a00000 	mov	r0, #0, 0
   10584:	ee070fba 	mcr	15, 0, r0, cr7, cr10, {5}
   10588:	e12fff1e 	bx	lr

0001058c <dsb>:
   1058c:	ee070f9a 	mcr	15, 0, r0, cr7, cr10, {4}
   10590:	e12fff1e 	bx	lr

00010594 <rpi_reboot>:
   10594:	e92d4010 	push	{r4, lr}
   10598:	eb0002ab 	bl	1104c <uart_flush_tx>
   1059c:	e3a0000a 	mov	r0, #10, 0
   105a0:	eb000020 	bl	10628 <delay_ms>
   105a4:	e59f1014 	ldr	r1, [pc, #20]	; 105c0 <rpi_reboot+0x2c>
   105a8:	e59f0014 	ldr	r0, [pc, #20]	; 105c4 <rpi_reboot+0x30>
   105ac:	ebffde9c 	bl	8024 <PUT32>
   105b0:	e59f1010 	ldr	r1, [pc, #16]	; 105c8 <rpi_reboot+0x34>
   105b4:	e59f0010 	ldr	r0, [pc, #16]	; 105cc <rpi_reboot+0x38>
   105b8:	ebffde99 	bl	8024 <PUT32>
   105bc:	eafffffe 	b	105bc <rpi_reboot+0x28>
   105c0:	5a000001 	.word	0x5a000001
   105c4:	20100024 	.word	0x20100024
   105c8:	5a000020 	.word	0x5a000020
   105cc:	2010001c 	.word	0x2010001c

000105d0 <rpi_wait>:
   105d0:	e12fff1e 	bx	lr

000105d4 <timer_get_usec_raw>:
   105d4:	e92d4010 	push	{r4, lr}
   105d8:	e59f0004 	ldr	r0, [pc, #4]	; 105e4 <timer_get_usec_raw+0x10>
   105dc:	ebffde92 	bl	802c <GET32>
   105e0:	e8bd8010 	pop	{r4, pc}
   105e4:	20003004 	.word	0x20003004

000105e8 <timer_get_usec>:
   105e8:	e92d4010 	push	{r4, lr}
   105ec:	ebffffe2 	bl	1057c <dev_barrier>
   105f0:	ebfffff7 	bl	105d4 <timer_get_usec_raw>
   105f4:	e1a04000 	mov	r4, r0
   105f8:	ebffffdf 	bl	1057c <dev_barrier>
   105fc:	e1a00004 	mov	r0, r4
   10600:	e8bd8010 	pop	{r4, pc}

00010604 <delay_us>:
   10604:	e92d4070 	push	{r4, r5, r6, lr}
   10608:	e1a05000 	mov	r5, r0
   1060c:	ebfffff5 	bl	105e8 <timer_get_usec>
   10610:	e1a04000 	mov	r4, r0
   10614:	ebfffff3 	bl	105e8 <timer_get_usec>
   10618:	e0400004 	sub	r0, r0, r4
   1061c:	e1500005 	cmp	r0, r5
   10620:	3afffffb 	bcc	10614 <delay_us+0x10>
   10624:	e8bd8070 	pop	{r4, r5, r6, pc}

00010628 <delay_ms>:
   10628:	e92d4010 	push	{r4, lr}
   1062c:	e0603280 	rsb	r3, r0, r0, lsl #5
   10630:	e0800103 	add	r0, r0, r3, lsl #2
   10634:	e1a00180 	lsl	r0, r0, #3
   10638:	ebfffff1 	bl	10604 <delay_us>
   1063c:	e8bd8010 	pop	{r4, pc}

00010640 <delay_sec>:
   10640:	e92d4010 	push	{r4, lr}
   10644:	e0603280 	rsb	r3, r0, r0, lsl #5
   10648:	e0800103 	add	r0, r0, r3, lsl #2
   1064c:	e1a00180 	lsl	r0, r0, #3
   10650:	ebfffff4 	bl	10628 <delay_ms>
   10654:	e8bd8010 	pop	{r4, pc}

00010658 <unhandled_reset>:
   10658:	e24ee004 	sub	lr, lr, #4, 0
   1065c:	e3a0d409 	mov	sp, #150994944	; 0x9000000
   10660:	e92d5fff 	push	{r0, r1, r2, r3, r4, r5, r6, r7, r8, r9, sl, fp, ip, lr}
   10664:	e1a0000e 	mov	r0, lr
   10668:	eb0002d8 	bl	111d0 <reset_vector>
   1066c:	e8bd5fff 	pop	{r0, r1, r2, r3, r4, r5, r6, r7, r8, r9, sl, fp, ip, lr}
   10670:	e1b0f00e 	movs	pc, lr

00010674 <unhandled_undefined_instruction>:
   10674:	e24ee004 	sub	lr, lr, #4, 0
   10678:	e3a0d409 	mov	sp, #150994944	; 0x9000000
   1067c:	e92d5fff 	push	{r0, r1, r2, r3, r4, r5, r6, r7, r8, r9, sl, fp, ip, lr}
   10680:	e1a0000e 	mov	r0, lr
   10684:	eb0002e9 	bl	11230 <undefined_instruction_vector>
   10688:	e8bd5fff 	pop	{r0, r1, r2, r3, r4, r5, r6, r7, r8, r9, sl, fp, ip, lr}
   1068c:	e1b0f00e 	movs	pc, lr

00010690 <unhandled_prefetch_abort>:
   10690:	e24ee004 	sub	lr, lr, #4, 0
   10694:	e3a0d409 	mov	sp, #150994944	; 0x9000000
   10698:	e92d5fff 	push	{r0, r1, r2, r3, r4, r5, r6, r7, r8, r9, sl, fp, ip, lr}
   1069c:	e1a0000e 	mov	r0, lr
   106a0:	eb0002be 	bl	111a0 <prefetch_abort_vector>
   106a4:	e8bd5fff 	pop	{r0, r1, r2, r3, r4, r5, r6, r7, r8, r9, sl, fp, ip, lr}
   106a8:	e1b0f00e 	movs	pc, lr

000106ac <unhandled_data_abort>:
   106ac:	e24ee008 	sub	lr, lr, #8, 0
   106b0:	e3a0d409 	mov	sp, #150994944	; 0x9000000
   106b4:	e92d5fff 	push	{r0, r1, r2, r3, r4, r5, r6, r7, r8, r9, sl, fp, ip, lr}
   106b8:	e1a0000e 	mov	r0, lr
   106bc:	eb000287 	bl	110e0 <data_abort_vector>
   106c0:	e8bd5fff 	pop	{r0, r1, r2, r3, r4, r5, r6, r7, r8, r9, sl, fp, ip, lr}
   106c4:	e1b0f00e 	movs	pc, lr

000106c8 <unhandled_interrupt>:
   106c8:	e24ee004 	sub	lr, lr, #4, 0
   106cc:	e3a0d409 	mov	sp, #150994944	; 0x9000000
   106d0:	e92d5fff 	push	{r0, r1, r2, r3, r4, r5, r6, r7, r8, r9, sl, fp, ip, lr}
   106d4:	e1a0000e 	mov	r0, lr
   106d8:	eb0002a4 	bl	11170 <int_vector>
   106dc:	e8bd5fff 	pop	{r0, r1, r2, r3, r4, r5, r6, r7, r8, r9, sl, fp, ip, lr}
   106e0:	e1b0f00e 	movs	pc, lr

000106e4 <unhandled_swi>:
   106e4:	e24ee004 	sub	lr, lr, #4, 0
   106e8:	e3a0d409 	mov	sp, #150994944	; 0x9000000
   106ec:	e92d5fff 	push	{r0, r1, r2, r3, r4, r5, r6, r7, r8, r9, sl, fp, ip, lr}
   106f0:	e1a0000e 	mov	r0, lr
   106f4:	eb0002c1 	bl	11200 <syscall_vector>
   106f8:	e8bd5fff 	pop	{r0, r1, r2, r3, r4, r5, r6, r7, r8, r9, sl, fp, ip, lr}
   106fc:	e1b0f00e 	movs	pc, lr

00010700 <unhandled_fiq>:
   10700:	e24ee004 	sub	lr, lr, #4, 0
   10704:	e3a0d409 	mov	sp, #150994944	; 0x9000000
   10708:	e92d5fff 	push	{r0, r1, r2, r3, r4, r5, r6, r7, r8, r9, sl, fp, ip, lr}
   1070c:	e1a0000e 	mov	r0, lr
   10710:	eb00028a 	bl	11140 <fiq_vector>
   10714:	e8bd5fff 	pop	{r0, r1, r2, r3, r4, r5, r6, r7, r8, r9, sl, fp, ip, lr}
   10718:	e1b0f00e 	movs	pc, lr

0001071c <gpio_set_pud>:
   1071c:	e92d4030 	push	{r4, r5, lr}
   10720:	e24dd00c 	sub	sp, sp, #12, 0
   10724:	e3500035 	cmp	r0, #53, 0	; 0x35
   10728:	8a000022 	bhi	107b8 <gpio_set_pud+0x9c>
   1072c:	e1a04000 	mov	r4, r0
   10730:	e1a05001 	mov	r5, r1
   10734:	e3510003 	cmp	r1, #3, 0
   10738:	8a000026 	bhi	107d8 <gpio_set_pud+0xbc>
   1073c:	e3510002 	cmp	r1, #2, 0
   10740:	8a00002c 	bhi	107f8 <gpio_set_pud+0xdc>
   10744:	ebffff8c 	bl	1057c <dev_barrier>
   10748:	e1a01005 	mov	r1, r5
   1074c:	e59f00c4 	ldr	r0, [pc, #196]	; 10818 <gpio_set_pud+0xfc>
   10750:	ebffde33 	bl	8024 <PUT32>
   10754:	e3a00096 	mov	r0, #150, 0	; 0x96
   10758:	ebffffa9 	bl	10604 <delay_us>
   1075c:	e354001f 	cmp	r4, #31, 0
   10760:	8a00002a 	bhi	10810 <gpio_set_pud+0xf4>
   10764:	e59f50b0 	ldr	r5, [pc, #176]	; 1081c <gpio_set_pud+0x100>
   10768:	e204401f 	and	r4, r4, #31, 0
   1076c:	e3a01001 	mov	r1, #1, 0
   10770:	e1a01411 	lsl	r1, r1, r4
   10774:	e1a00005 	mov	r0, r5
   10778:	ebffde29 	bl	8024 <PUT32>
   1077c:	e3a00096 	mov	r0, #150, 0	; 0x96
   10780:	ebffff9f 	bl	10604 <delay_us>
   10784:	e3a01000 	mov	r1, #0, 0
   10788:	e59f0088 	ldr	r0, [pc, #136]	; 10818 <gpio_set_pud+0xfc>
   1078c:	ebffde24 	bl	8024 <PUT32>
   10790:	e3a00096 	mov	r0, #150, 0	; 0x96
   10794:	ebffff9a 	bl	10604 <delay_us>
   10798:	e3a01000 	mov	r1, #0, 0
   1079c:	e1a00005 	mov	r0, r5
   107a0:	ebffde1f 	bl	8024 <PUT32>
   107a4:	e3a00096 	mov	r0, #150, 0	; 0x96
   107a8:	ebffff95 	bl	10604 <delay_us>
   107ac:	ebffff72 	bl	1057c <dev_barrier>
   107b0:	e28dd00c 	add	sp, sp, #12, 0
   107b4:	e8bd8030 	pop	{r4, r5, pc}
   107b8:	e59f3060 	ldr	r3, [pc, #96]	; 10820 <gpio_set_pud+0x104>
   107bc:	e58d3000 	str	r3, [sp]
   107c0:	e3a03015 	mov	r3, #21, 0
   107c4:	e59f2058 	ldr	r2, [pc, #88]	; 10824 <gpio_set_pud+0x108>
   107c8:	e59f1058 	ldr	r1, [pc, #88]	; 10828 <gpio_set_pud+0x10c>
   107cc:	e59f0058 	ldr	r0, [pc, #88]	; 1082c <gpio_set_pud+0x110>
   107d0:	ebfffe0b 	bl	10004 <printk>
   107d4:	ebffff44 	bl	104ec <clean_reboot>
   107d8:	e59f3050 	ldr	r3, [pc, #80]	; 10830 <gpio_set_pud+0x114>
   107dc:	e58d3000 	str	r3, [sp]
   107e0:	e3a03016 	mov	r3, #22, 0
   107e4:	e59f2038 	ldr	r2, [pc, #56]	; 10824 <gpio_set_pud+0x108>
   107e8:	e59f1038 	ldr	r1, [pc, #56]	; 10828 <gpio_set_pud+0x10c>
   107ec:	e59f0040 	ldr	r0, [pc, #64]	; 10834 <gpio_set_pud+0x118>
   107f0:	ebfffe03 	bl	10004 <printk>
   107f4:	ebffff3c 	bl	104ec <clean_reboot>
   107f8:	e3a03019 	mov	r3, #25, 0
   107fc:	e59f2020 	ldr	r2, [pc, #32]	; 10824 <gpio_set_pud+0x108>
   10800:	e59f1020 	ldr	r1, [pc, #32]	; 10828 <gpio_set_pud+0x10c>
   10804:	e59f002c 	ldr	r0, [pc, #44]	; 10838 <gpio_set_pud+0x11c>
   10808:	ebfffdfd 	bl	10004 <printk>
   1080c:	ebffff36 	bl	104ec <clean_reboot>
   10810:	e59f5024 	ldr	r5, [pc, #36]	; 1083c <gpio_set_pud+0x120>
   10814:	eaffffd3 	b	10768 <gpio_set_pud+0x4c>
   10818:	20200094 	.word	0x20200094
   1081c:	20200098 	.word	0x20200098
   10820:	00014640 	.word	0x00014640
   10824:	000146a4 	.word	0x000146a4
   10828:	000145fc 	.word	0x000145fc
   1082c:	00014608 	.word	0x00014608
   10830:	00014684 	.word	0x00014684
   10834:	0001464c 	.word	0x0001464c
   10838:	0001468c 	.word	0x0001468c
   1083c:	2020009c 	.word	0x2020009c

00010840 <gpio_set_pullup>:
   10840:	e92d4010 	push	{r4, lr}
   10844:	e3a01002 	mov	r1, #2, 0
   10848:	ebffffb3 	bl	1071c <gpio_set_pud>
   1084c:	e8bd8010 	pop	{r4, pc}

00010850 <gpio_set_pulldown>:
   10850:	e92d4010 	push	{r4, lr}
   10854:	e3a01001 	mov	r1, #1, 0
   10858:	ebffffaf 	bl	1071c <gpio_set_pud>
   1085c:	e8bd8010 	pop	{r4, pc}

00010860 <gpio_set_pud_off>:
   10860:	e92d4010 	push	{r4, lr}
   10864:	e3a01000 	mov	r1, #0, 0
   10868:	ebffffab 	bl	1071c <gpio_set_pud>
   1086c:	e8bd8010 	pop	{r4, pc}

00010870 <gpio_int_set>:
   10870:	e351001f 	cmp	r1, #31, 0
   10874:	812fff1e 	bxhi	lr
   10878:	e92d4070 	push	{r4, r5, r6, lr}
   1087c:	e1a05000 	mov	r5, r0
   10880:	e1a04001 	mov	r4, r1
   10884:	ebffff3c 	bl	1057c <dev_barrier>
   10888:	e3a01001 	mov	r1, #1, 0
   1088c:	e1a04411 	lsl	r4, r1, r4
   10890:	e1a00005 	mov	r0, r5
   10894:	ebffdde4 	bl	802c <GET32>
   10898:	e1841000 	orr	r1, r4, r0
   1089c:	e1a00005 	mov	r0, r5
   108a0:	ebffdddf 	bl	8024 <PUT32>
   108a4:	ebffff34 	bl	1057c <dev_barrier>
   108a8:	e3a01802 	mov	r1, #131072	; 0x20000
   108ac:	e59f0008 	ldr	r0, [pc, #8]	; 108bc <gpio_int_set+0x4c>
   108b0:	ebffdddb 	bl	8024 <PUT32>
   108b4:	ebffff30 	bl	1057c <dev_barrier>
   108b8:	e8bd8070 	pop	{r4, r5, r6, pc}
   108bc:	2000b214 	.word	0x2000b214

000108c0 <gpio_has_interrupt>:
   108c0:	e92d4010 	push	{r4, lr}
   108c4:	e59f000c 	ldr	r0, [pc, #12]	; 108d8 <gpio_has_interrupt+0x18>
   108c8:	ebffddd7 	bl	802c <GET32>
   108cc:	e1a008a0 	lsr	r0, r0, #17
   108d0:	e2000001 	and	r0, r0, #1, 0
   108d4:	e8bd8010 	pop	{r4, pc}
   108d8:	2000b208 	.word	0x2000b208

000108dc <gpio_fiq_set>:
   108dc:	e92d4030 	push	{r4, r5, lr}
   108e0:	e24dd00c 	sub	sp, sp, #12, 0
   108e4:	e1a04001 	mov	r4, r1
   108e8:	e2413001 	sub	r3, r1, #1, 0
   108ec:	e353001e 	cmp	r3, #30, 0
   108f0:	8a00000f 	bhi	10934 <gpio_fiq_set+0x58>
   108f4:	e1a05000 	mov	r5, r0
   108f8:	ebffff1f 	bl	1057c <dev_barrier>
   108fc:	e3a01001 	mov	r1, #1, 0
   10900:	e1a04411 	lsl	r4, r1, r4
   10904:	e1a00005 	mov	r0, r5
   10908:	ebffddc7 	bl	802c <GET32>
   1090c:	e1841000 	orr	r1, r4, r0
   10910:	e1a00005 	mov	r0, r5
   10914:	ebffddc2 	bl	8024 <PUT32>
   10918:	ebffff17 	bl	1057c <dev_barrier>
   1091c:	e3a010b1 	mov	r1, #177, 0	; 0xb1
   10920:	e59f0028 	ldr	r0, [pc, #40]	; 10950 <gpio_fiq_set+0x74>
   10924:	ebffddbe 	bl	8024 <PUT32>
   10928:	ebffff13 	bl	1057c <dev_barrier>
   1092c:	e28dd00c 	add	sp, sp, #12, 0
   10930:	e8bd8030 	pop	{r4, r5, pc}
   10934:	e58d1000 	str	r1, [sp]
   10938:	e3a03049 	mov	r3, #73, 0	; 0x49
   1093c:	e59f2010 	ldr	r2, [pc, #16]	; 10954 <gpio_fiq_set+0x78>
   10940:	e59f1010 	ldr	r1, [pc, #16]	; 10958 <gpio_fiq_set+0x7c>
   10944:	e59f0010 	ldr	r0, [pc, #16]	; 1095c <gpio_fiq_set+0x80>
   10948:	ebfffdad 	bl	10004 <printk>
   1094c:	ebfffee6 	bl	104ec <clean_reboot>
   10950:	2000b20c 	.word	0x2000b20c
   10954:	00014728 	.word	0x00014728
   10958:	000146b4 	.word	0x000146b4
   1095c:	000146c0 	.word	0x000146c0

00010960 <gpio_int_rising_edge>:
   10960:	e52de004 	push	{lr}		; (str lr, [sp, #-4]!)
   10964:	e24dd00c 	sub	sp, sp, #12, 0
   10968:	e1a01000 	mov	r1, r0
   1096c:	e2403001 	sub	r3, r0, #1, 0
   10970:	e353001e 	cmp	r3, #30, 0
   10974:	8a000003 	bhi	10988 <gpio_int_rising_edge+0x28>
   10978:	e59f0024 	ldr	r0, [pc, #36]	; 109a4 <gpio_int_rising_edge+0x44>
   1097c:	ebffffbb 	bl	10870 <gpio_int_set>
   10980:	e28dd00c 	add	sp, sp, #12, 0
   10984:	e49df004 	pop	{pc}		; (ldr pc, [sp], #4)
   10988:	e58d0000 	str	r0, [sp]
   1098c:	e3a0305e 	mov	r3, #94, 0	; 0x5e
   10990:	e59f2010 	ldr	r2, [pc, #16]	; 109a8 <gpio_int_rising_edge+0x48>
   10994:	e59f1010 	ldr	r1, [pc, #16]	; 109ac <gpio_int_rising_edge+0x4c>
   10998:	e59f0010 	ldr	r0, [pc, #16]	; 109b0 <gpio_int_rising_edge+0x50>
   1099c:	ebfffd98 	bl	10004 <printk>
   109a0:	ebfffed1 	bl	104ec <clean_reboot>
   109a4:	2020004c 	.word	0x2020004c
   109a8:	00014738 	.word	0x00014738
   109ac:	000146b4 	.word	0x000146b4
   109b0:	000146c0 	.word	0x000146c0

000109b4 <gpio_fiq_rising_edge>:
   109b4:	e52de004 	push	{lr}		; (str lr, [sp, #-4]!)
   109b8:	e24dd00c 	sub	sp, sp, #12, 0
   109bc:	e2403001 	sub	r3, r0, #1, 0
   109c0:	e353001e 	cmp	r3, #30, 0
   109c4:	8a000004 	bhi	109dc <gpio_fiq_rising_edge+0x28>
   109c8:	e1a01000 	mov	r1, r0
   109cc:	e59f0028 	ldr	r0, [pc, #40]	; 109fc <gpio_fiq_rising_edge+0x48>
   109d0:	ebffffc1 	bl	108dc <gpio_fiq_set>
   109d4:	e28dd00c 	add	sp, sp, #12, 0
   109d8:	e49df004 	pop	{pc}		; (ldr pc, [sp], #4)
   109dc:	e59f301c 	ldr	r3, [pc, #28]	; 10a00 <gpio_fiq_rising_edge+0x4c>
   109e0:	e58d3000 	str	r3, [sp]
   109e4:	e3a03062 	mov	r3, #98, 0	; 0x62
   109e8:	e59f2014 	ldr	r2, [pc, #20]	; 10a04 <gpio_fiq_rising_edge+0x50>
   109ec:	e59f1014 	ldr	r1, [pc, #20]	; 10a08 <gpio_fiq_rising_edge+0x54>
   109f0:	e59f0014 	ldr	r0, [pc, #20]	; 10a0c <gpio_fiq_rising_edge+0x58>
   109f4:	ebfffd82 	bl	10004 <printk>
   109f8:	ebfffebb 	bl	104ec <clean_reboot>
   109fc:	2020004c 	.word	0x2020004c
   10a00:	000146dc 	.word	0x000146dc
   10a04:	00014750 	.word	0x00014750
   10a08:	000146b4 	.word	0x000146b4
   10a0c:	00011458 	.word	0x00011458

00010a10 <gpio_int_falling_edge>:
   10a10:	e92d4010 	push	{r4, lr}
   10a14:	e2403001 	sub	r3, r0, #1, 0
   10a18:	e353001e 	cmp	r3, #30, 0
   10a1c:	8a000003 	bhi	10a30 <gpio_int_falling_edge+0x20>
   10a20:	e1a01000 	mov	r1, r0
   10a24:	e59f001c 	ldr	r0, [pc, #28]	; 10a48 <gpio_int_falling_edge+0x38>
   10a28:	ebffff90 	bl	10870 <gpio_int_set>
   10a2c:	e8bd8010 	pop	{r4, pc}
   10a30:	e3a0306d 	mov	r3, #109, 0	; 0x6d
   10a34:	e59f2010 	ldr	r2, [pc, #16]	; 10a4c <gpio_int_falling_edge+0x3c>
   10a38:	e59f1010 	ldr	r1, [pc, #16]	; 10a50 <gpio_int_falling_edge+0x40>
   10a3c:	e59f0010 	ldr	r0, [pc, #16]	; 10a54 <gpio_int_falling_edge+0x44>
   10a40:	ebfffd6f 	bl	10004 <printk>
   10a44:	ebfffea8 	bl	104ec <clean_reboot>
   10a48:	20200058 	.word	0x20200058
   10a4c:	00014768 	.word	0x00014768
   10a50:	000146b4 	.word	0x000146b4
   10a54:	000146ec 	.word	0x000146ec

00010a58 <gpio_fiq_falling_edge>:
   10a58:	e52de004 	push	{lr}		; (str lr, [sp, #-4]!)
   10a5c:	e24dd00c 	sub	sp, sp, #12, 0
   10a60:	e2403001 	sub	r3, r0, #1, 0
   10a64:	e353001e 	cmp	r3, #30, 0
   10a68:	8a000004 	bhi	10a80 <gpio_fiq_falling_edge+0x28>
   10a6c:	e1a01000 	mov	r1, r0
   10a70:	e59f0028 	ldr	r0, [pc, #40]	; 10aa0 <gpio_fiq_falling_edge+0x48>
   10a74:	ebffff98 	bl	108dc <gpio_fiq_set>
   10a78:	e28dd00c 	add	sp, sp, #12, 0
   10a7c:	e49df004 	pop	{pc}		; (ldr pc, [sp], #4)
   10a80:	e59f301c 	ldr	r3, [pc, #28]	; 10aa4 <gpio_fiq_falling_edge+0x4c>
   10a84:	e58d3000 	str	r3, [sp]
   10a88:	e3a03071 	mov	r3, #113, 0	; 0x71
   10a8c:	e59f2014 	ldr	r2, [pc, #20]	; 10aa8 <gpio_fiq_falling_edge+0x50>
   10a90:	e59f1014 	ldr	r1, [pc, #20]	; 10aac <gpio_fiq_falling_edge+0x54>
   10a94:	e59f0014 	ldr	r0, [pc, #20]	; 10ab0 <gpio_fiq_falling_edge+0x58>
   10a98:	ebfffd59 	bl	10004 <printk>
   10a9c:	ebfffe92 	bl	104ec <clean_reboot>
   10aa0:	20200058 	.word	0x20200058
   10aa4:	000146dc 	.word	0x000146dc
   10aa8:	00014780 	.word	0x00014780
   10aac:	000146b4 	.word	0x000146b4
   10ab0:	00011458 	.word	0x00011458

00010ab4 <gpio_int_async_falling_edge>:
   10ab4:	e92d4010 	push	{r4, lr}
   10ab8:	e2403001 	sub	r3, r0, #1, 0
   10abc:	e353001e 	cmp	r3, #30, 0
   10ac0:	8a000003 	bhi	10ad4 <gpio_int_async_falling_edge+0x20>
   10ac4:	e1a01000 	mov	r1, r0
   10ac8:	e59f001c 	ldr	r0, [pc, #28]	; 10aec <gpio_int_async_falling_edge+0x38>
   10acc:	ebffff67 	bl	10870 <gpio_int_set>
   10ad0:	e8bd8010 	pop	{r4, pc}
   10ad4:	e3a03077 	mov	r3, #119, 0	; 0x77
   10ad8:	e59f2010 	ldr	r2, [pc, #16]	; 10af0 <gpio_int_async_falling_edge+0x3c>
   10adc:	e59f1010 	ldr	r1, [pc, #16]	; 10af4 <gpio_int_async_falling_edge+0x40>
   10ae0:	e59f0010 	ldr	r0, [pc, #16]	; 10af8 <gpio_int_async_falling_edge+0x44>
   10ae4:	ebfffd46 	bl	10004 <printk>
   10ae8:	ebfffe7f 	bl	104ec <clean_reboot>
   10aec:	20200088 	.word	0x20200088
   10af0:	00014798 	.word	0x00014798
   10af4:	000146b4 	.word	0x000146b4
   10af8:	000146ec 	.word	0x000146ec

00010afc <gpio_int_async_rising_edge>:
   10afc:	e92d4010 	push	{r4, lr}
   10b00:	e2403001 	sub	r3, r0, #1, 0
   10b04:	e353001e 	cmp	r3, #30, 0
   10b08:	8a000003 	bhi	10b1c <gpio_int_async_rising_edge+0x20>
   10b0c:	e1a01000 	mov	r1, r0
   10b10:	e59f001c 	ldr	r0, [pc, #28]	; 10b34 <gpio_int_async_rising_edge+0x38>
   10b14:	ebffff55 	bl	10870 <gpio_int_set>
   10b18:	e8bd8010 	pop	{r4, pc}
   10b1c:	e3a0307e 	mov	r3, #126, 0	; 0x7e
   10b20:	e59f2010 	ldr	r2, [pc, #16]	; 10b38 <gpio_int_async_rising_edge+0x3c>
   10b24:	e59f1010 	ldr	r1, [pc, #16]	; 10b3c <gpio_int_async_rising_edge+0x40>
   10b28:	e59f0010 	ldr	r0, [pc, #16]	; 10b40 <gpio_int_async_rising_edge+0x44>
   10b2c:	ebfffd34 	bl	10004 <printk>
   10b30:	ebfffe6d 	bl	104ec <clean_reboot>
   10b34:	2020007c 	.word	0x2020007c
   10b38:	000147b4 	.word	0x000147b4
   10b3c:	000146b4 	.word	0x000146b4
   10b40:	000146ec 	.word	0x000146ec

00010b44 <gpio_int_low_detect>:
   10b44:	e92d4010 	push	{r4, lr}
   10b48:	e2403001 	sub	r3, r0, #1, 0
   10b4c:	e353001e 	cmp	r3, #30, 0
   10b50:	8a000003 	bhi	10b64 <gpio_int_low_detect+0x20>
   10b54:	e1a01000 	mov	r1, r0
   10b58:	e59f001c 	ldr	r0, [pc, #28]	; 10b7c <gpio_int_low_detect+0x38>
   10b5c:	ebffff43 	bl	10870 <gpio_int_set>
   10b60:	e8bd8010 	pop	{r4, pc}
   10b64:	e3a03087 	mov	r3, #135, 0	; 0x87
   10b68:	e59f2010 	ldr	r2, [pc, #16]	; 10b80 <gpio_int_low_detect+0x3c>
   10b6c:	e59f1010 	ldr	r1, [pc, #16]	; 10b84 <gpio_int_low_detect+0x40>
   10b70:	e59f0010 	ldr	r0, [pc, #16]	; 10b88 <gpio_int_low_detect+0x44>
   10b74:	ebfffd22 	bl	10004 <printk>
   10b78:	ebfffe5b 	bl	104ec <clean_reboot>
   10b7c:	20200070 	.word	0x20200070
   10b80:	000147d0 	.word	0x000147d0
   10b84:	000146b4 	.word	0x000146b4
   10b88:	000146ec 	.word	0x000146ec

00010b8c <gpio_int_high_detect>:
   10b8c:	e92d4010 	push	{r4, lr}
   10b90:	e2403001 	sub	r3, r0, #1, 0
   10b94:	e353001e 	cmp	r3, #30, 0
   10b98:	8a000003 	bhi	10bac <gpio_int_high_detect+0x20>
   10b9c:	e1a01000 	mov	r1, r0
   10ba0:	e59f001c 	ldr	r0, [pc, #28]	; 10bc4 <gpio_int_high_detect+0x38>
   10ba4:	ebffff31 	bl	10870 <gpio_int_set>
   10ba8:	e8bd8010 	pop	{r4, pc}
   10bac:	e3a03090 	mov	r3, #144, 0	; 0x90
   10bb0:	e59f2010 	ldr	r2, [pc, #16]	; 10bc8 <gpio_int_high_detect+0x3c>
   10bb4:	e59f1010 	ldr	r1, [pc, #16]	; 10bcc <gpio_int_high_detect+0x40>
   10bb8:	e59f0010 	ldr	r0, [pc, #16]	; 10bd0 <gpio_int_high_detect+0x44>
   10bbc:	ebfffd10 	bl	10004 <printk>
   10bc0:	ebfffe49 	bl	104ec <clean_reboot>
   10bc4:	20200064 	.word	0x20200064
   10bc8:	000147e4 	.word	0x000147e4
   10bcc:	000146b4 	.word	0x000146b4
   10bd0:	000146ec 	.word	0x000146ec

00010bd4 <gpio_fiq_async_falling_edge>:
   10bd4:	e92d4010 	push	{r4, lr}
   10bd8:	e2403001 	sub	r3, r0, #1, 0
   10bdc:	e353001e 	cmp	r3, #30, 0
   10be0:	8a000003 	bhi	10bf4 <gpio_fiq_async_falling_edge+0x20>
   10be4:	e1a01000 	mov	r1, r0
   10be8:	e59f001c 	ldr	r0, [pc, #28]	; 10c0c <gpio_fiq_async_falling_edge+0x38>
   10bec:	ebffff3a 	bl	108dc <gpio_fiq_set>
   10bf0:	e8bd8010 	pop	{r4, pc}
   10bf4:	e3a03099 	mov	r3, #153, 0	; 0x99
   10bf8:	e59f2010 	ldr	r2, [pc, #16]	; 10c10 <gpio_fiq_async_falling_edge+0x3c>
   10bfc:	e59f1010 	ldr	r1, [pc, #16]	; 10c14 <gpio_fiq_async_falling_edge+0x40>
   10c00:	e59f0010 	ldr	r0, [pc, #16]	; 10c18 <gpio_fiq_async_falling_edge+0x44>
   10c04:	ebfffcfe 	bl	10004 <printk>
   10c08:	ebfffe37 	bl	104ec <clean_reboot>
   10c0c:	20200088 	.word	0x20200088
   10c10:	000147fc 	.word	0x000147fc
   10c14:	000146b4 	.word	0x000146b4
   10c18:	000146ec 	.word	0x000146ec

00010c1c <gpio_fiq_low_detect>:
   10c1c:	e92d4010 	push	{r4, lr}
   10c20:	e2403001 	sub	r3, r0, #1, 0
   10c24:	e353001e 	cmp	r3, #30, 0
   10c28:	8a000003 	bhi	10c3c <gpio_fiq_low_detect+0x20>
   10c2c:	e1a01000 	mov	r1, r0
   10c30:	e59f001c 	ldr	r0, [pc, #28]	; 10c54 <gpio_fiq_low_detect+0x38>
   10c34:	ebffff28 	bl	108dc <gpio_fiq_set>
   10c38:	e8bd8010 	pop	{r4, pc}
   10c3c:	e3a030a2 	mov	r3, #162, 0	; 0xa2
   10c40:	e59f2010 	ldr	r2, [pc, #16]	; 10c58 <gpio_fiq_low_detect+0x3c>
   10c44:	e59f1010 	ldr	r1, [pc, #16]	; 10c5c <gpio_fiq_low_detect+0x40>
   10c48:	e59f0010 	ldr	r0, [pc, #16]	; 10c60 <gpio_fiq_low_detect+0x44>
   10c4c:	ebfffcec 	bl	10004 <printk>
   10c50:	ebfffe25 	bl	104ec <clean_reboot>
   10c54:	20200070 	.word	0x20200070
   10c58:	00014818 	.word	0x00014818
   10c5c:	000146b4 	.word	0x000146b4
   10c60:	000146ec 	.word	0x000146ec

00010c64 <gpio_fiq_high_detect>:
   10c64:	e92d4010 	push	{r4, lr}
   10c68:	e2403001 	sub	r3, r0, #1, 0
   10c6c:	e353001e 	cmp	r3, #30, 0
   10c70:	8a000003 	bhi	10c84 <gpio_fiq_high_detect+0x20>
   10c74:	e1a01000 	mov	r1, r0
   10c78:	e59f001c 	ldr	r0, [pc, #28]	; 10c9c <gpio_fiq_high_detect+0x38>
   10c7c:	ebffff16 	bl	108dc <gpio_fiq_set>
   10c80:	e8bd8010 	pop	{r4, pc}
   10c84:	e3a030ab 	mov	r3, #171, 0	; 0xab
   10c88:	e59f2010 	ldr	r2, [pc, #16]	; 10ca0 <gpio_fiq_high_detect+0x3c>
   10c8c:	e59f1010 	ldr	r1, [pc, #16]	; 10ca4 <gpio_fiq_high_detect+0x40>
   10c90:	e59f0010 	ldr	r0, [pc, #16]	; 10ca8 <gpio_fiq_high_detect+0x44>
   10c94:	ebfffcda 	bl	10004 <printk>
   10c98:	ebfffe13 	bl	104ec <clean_reboot>
   10c9c:	20200064 	.word	0x20200064
   10ca0:	0001482c 	.word	0x0001482c
   10ca4:	000146b4 	.word	0x000146b4
   10ca8:	000146ec 	.word	0x000146ec

00010cac <gpio_fiq_async_rising_edge>:
   10cac:	e92d4010 	push	{r4, lr}
   10cb0:	e2403001 	sub	r3, r0, #1, 0
   10cb4:	e353001e 	cmp	r3, #30, 0
   10cb8:	8a000003 	bhi	10ccc <gpio_fiq_async_rising_edge+0x20>
   10cbc:	e1a01000 	mov	r1, r0
   10cc0:	e59f001c 	ldr	r0, [pc, #28]	; 10ce4 <gpio_fiq_async_rising_edge+0x38>
   10cc4:	ebffff04 	bl	108dc <gpio_fiq_set>
   10cc8:	e8bd8010 	pop	{r4, pc}
   10ccc:	e3a030b3 	mov	r3, #179, 0	; 0xb3
   10cd0:	e59f2010 	ldr	r2, [pc, #16]	; 10ce8 <gpio_fiq_async_rising_edge+0x3c>
   10cd4:	e59f1010 	ldr	r1, [pc, #16]	; 10cec <gpio_fiq_async_rising_edge+0x40>
   10cd8:	e59f0010 	ldr	r0, [pc, #16]	; 10cf0 <gpio_fiq_async_rising_edge+0x44>
   10cdc:	ebfffcc8 	bl	10004 <printk>
   10ce0:	ebfffe01 	bl	104ec <clean_reboot>
   10ce4:	2020007c 	.word	0x2020007c
   10ce8:	00014844 	.word	0x00014844
   10cec:	000146b4 	.word	0x000146b4
   10cf0:	000146ec 	.word	0x000146ec

00010cf4 <gpio_enable_hi_int>:
   10cf4:	e52de004 	push	{lr}		; (str lr, [sp, #-4]!)
   10cf8:	e24dd00c 	sub	sp, sp, #12, 0
   10cfc:	e1a01000 	mov	r1, r0
   10d00:	e2403001 	sub	r3, r0, #1, 0
   10d04:	e353001e 	cmp	r3, #30, 0
   10d08:	8a000003 	bhi	10d1c <gpio_enable_hi_int+0x28>
   10d0c:	e59f0024 	ldr	r0, [pc, #36]	; 10d38 <gpio_enable_hi_int+0x44>
   10d10:	ebfffed6 	bl	10870 <gpio_int_set>
   10d14:	e28dd00c 	add	sp, sp, #12, 0
   10d18:	e49df004 	pop	{pc}		; (ldr pc, [sp], #4)
   10d1c:	e58d0000 	str	r0, [sp]
   10d20:	e3a030bd 	mov	r3, #189, 0	; 0xbd
   10d24:	e59f2010 	ldr	r2, [pc, #16]	; 10d3c <gpio_enable_hi_int+0x48>
   10d28:	e59f1010 	ldr	r1, [pc, #16]	; 10d40 <gpio_enable_hi_int+0x4c>
   10d2c:	e59f0010 	ldr	r0, [pc, #16]	; 10d44 <gpio_enable_hi_int+0x50>
   10d30:	ebfffcb3 	bl	10004 <printk>
   10d34:	ebfffdec 	bl	104ec <clean_reboot>
   10d38:	20200064 	.word	0x20200064
   10d3c:	00014860 	.word	0x00014860
   10d40:	000146b4 	.word	0x000146b4
   10d44:	00014704 	.word	0x00014704

00010d48 <gpio_enable_lo_int>:
   10d48:	e52de004 	push	{lr}		; (str lr, [sp, #-4]!)
   10d4c:	e24dd00c 	sub	sp, sp, #12, 0
   10d50:	e1a01000 	mov	r1, r0
   10d54:	e2403001 	sub	r3, r0, #1, 0
   10d58:	e353001e 	cmp	r3, #30, 0
   10d5c:	8a000003 	bhi	10d70 <gpio_enable_lo_int+0x28>
   10d60:	e59f0024 	ldr	r0, [pc, #36]	; 10d8c <gpio_enable_lo_int+0x44>
   10d64:	ebfffec1 	bl	10870 <gpio_int_set>
   10d68:	e28dd00c 	add	sp, sp, #12, 0
   10d6c:	e49df004 	pop	{pc}		; (ldr pc, [sp], #4)
   10d70:	e58d0000 	str	r0, [sp]
   10d74:	e3a030c3 	mov	r3, #195, 0	; 0xc3
   10d78:	e59f2010 	ldr	r2, [pc, #16]	; 10d90 <gpio_enable_lo_int+0x48>
   10d7c:	e59f1010 	ldr	r1, [pc, #16]	; 10d94 <gpio_enable_lo_int+0x4c>
   10d80:	e59f0010 	ldr	r0, [pc, #16]	; 10d98 <gpio_enable_lo_int+0x50>
   10d84:	ebfffc9e 	bl	10004 <printk>
   10d88:	ebfffdd7 	bl	104ec <clean_reboot>
   10d8c:	20200070 	.word	0x20200070
   10d90:	00014874 	.word	0x00014874
   10d94:	000146b4 	.word	0x000146b4
   10d98:	00014704 	.word	0x00014704

00010d9c <gpio_event_detected>:
   10d9c:	e92d4010 	push	{r4, lr}
   10da0:	e2403001 	sub	r3, r0, #1, 0
   10da4:	e353001e 	cmp	r3, #30, 0
   10da8:	8a000008 	bhi	10dd0 <gpio_event_detected+0x34>
   10dac:	e1a04000 	mov	r4, r0
   10db0:	ebfffdf1 	bl	1057c <dev_barrier>
   10db4:	e59f002c 	ldr	r0, [pc, #44]	; 10de8 <gpio_event_detected+0x4c>
   10db8:	ebffdc9b 	bl	802c <GET32>
   10dbc:	e1a04430 	lsr	r4, r0, r4
   10dc0:	e2044001 	and	r4, r4, #1, 0
   10dc4:	ebfffdec 	bl	1057c <dev_barrier>
   10dc8:	e1a00004 	mov	r0, r4
   10dcc:	e8bd8010 	pop	{r4, pc}
   10dd0:	e3a030cd 	mov	r3, #205, 0	; 0xcd
   10dd4:	e59f2010 	ldr	r2, [pc, #16]	; 10dec <gpio_event_detected+0x50>
   10dd8:	e59f1010 	ldr	r1, [pc, #16]	; 10df0 <gpio_event_detected+0x54>
   10ddc:	e59f0010 	ldr	r0, [pc, #16]	; 10df4 <gpio_event_detected+0x58>
   10de0:	ebfffc87 	bl	10004 <printk>
   10de4:	ebfffdc0 	bl	104ec <clean_reboot>
   10de8:	20200040 	.word	0x20200040
   10dec:	00014888 	.word	0x00014888
   10df0:	000146b4 	.word	0x000146b4
   10df4:	000146ec 	.word	0x000146ec

00010df8 <gpio_event_clear>:
   10df8:	e92d4010 	push	{r4, lr}
   10dfc:	e2403001 	sub	r3, r0, #1, 0
   10e00:	e353001e 	cmp	r3, #30, 0
   10e04:	8a000007 	bhi	10e28 <gpio_event_clear+0x30>
   10e08:	e1a04000 	mov	r4, r0
   10e0c:	ebfffdda 	bl	1057c <dev_barrier>
   10e10:	e3a01001 	mov	r1, #1, 0
   10e14:	e1a01411 	lsl	r1, r1, r4
   10e18:	e59f0020 	ldr	r0, [pc, #32]	; 10e40 <gpio_event_clear+0x48>
   10e1c:	ebffdc80 	bl	8024 <PUT32>
   10e20:	ebfffdd5 	bl	1057c <dev_barrier>
   10e24:	e8bd8010 	pop	{r4, pc}
   10e28:	e3a030d7 	mov	r3, #215, 0	; 0xd7
   10e2c:	e59f2010 	ldr	r2, [pc, #16]	; 10e44 <gpio_event_clear+0x4c>
   10e30:	e59f1010 	ldr	r1, [pc, #16]	; 10e48 <gpio_event_clear+0x50>
   10e34:	e59f0010 	ldr	r0, [pc, #16]	; 10e4c <gpio_event_clear+0x54>
   10e38:	ebfffc71 	bl	10004 <printk>
   10e3c:	ebfffdaa 	bl	104ec <clean_reboot>
   10e40:	20200040 	.word	0x20200040
   10e44:	0001489c 	.word	0x0001489c
   10e48:	000146b4 	.word	0x000146b4
   10e4c:	000146ec 	.word	0x000146ec

00010e50 <using_staff_gpio_int>:
   10e50:	e12fff1e 	bx	lr

00010e54 <uart_init>:
   10e54:	e92d4070 	push	{r4, r5, r6, lr}
   10e58:	ebfffdc7 	bl	1057c <dev_barrier>
   10e5c:	e3a01002 	mov	r1, #2, 0
   10e60:	e3a0000e 	mov	r0, #14, 0
   10e64:	ebfffb9e 	bl	fce4 <gpio_set_function>
   10e68:	e3a01002 	mov	r1, #2, 0
   10e6c:	e3a0000f 	mov	r0, #15, 0
   10e70:	ebfffb9b 	bl	fce4 <gpio_set_function>
   10e74:	ebfffdc0 	bl	1057c <dev_barrier>
   10e78:	e59f409c 	ldr	r4, [pc, #156]	; 10f1c <uart_init+0xc8>
   10e7c:	e1a00004 	mov	r0, r4
   10e80:	ebffdc69 	bl	802c <GET32>
   10e84:	e3801001 	orr	r1, r0, #1, 0
   10e88:	e1a00004 	mov	r0, r4
   10e8c:	ebffdc64 	bl	8024 <PUT32>
   10e90:	ebfffdb9 	bl	1057c <dev_barrier>
   10e94:	e284405c 	add	r4, r4, #92, 0	; 0x5c
   10e98:	e1a00004 	mov	r0, r4
   10e9c:	ebffdc62 	bl	802c <GET32>
   10ea0:	e3c01003 	bic	r1, r0, #3, 0
   10ea4:	e1a00004 	mov	r0, r4
   10ea8:	ebffdc5d 	bl	8024 <PUT32>
   10eac:	e59f506c 	ldr	r5, [pc, #108]	; 10f20 <uart_init+0xcc>
   10eb0:	e1a00005 	mov	r0, r5
   10eb4:	ebffdc5c 	bl	802c <GET32>
   10eb8:	e3801006 	orr	r1, r0, #6, 0
   10ebc:	e1a00005 	mov	r0, r5
   10ec0:	ebffdc57 	bl	8024 <PUT32>
   10ec4:	e2455004 	sub	r5, r5, #4, 0
   10ec8:	e1a00005 	mov	r0, r5
   10ecc:	ebffdc56 	bl	802c <GET32>
   10ed0:	e3c01003 	bic	r1, r0, #3, 0
   10ed4:	e1a00005 	mov	r0, r5
   10ed8:	ebffdc51 	bl	8024 <PUT32>
   10edc:	e2855008 	add	r5, r5, #8, 0
   10ee0:	e1a00005 	mov	r0, r5
   10ee4:	ebffdc50 	bl	802c <GET32>
   10ee8:	e3801003 	orr	r1, r0, #3, 0
   10eec:	e1a00005 	mov	r0, r5
   10ef0:	ebffdc4b 	bl	8024 <PUT32>
   10ef4:	e59f1028 	ldr	r1, [pc, #40]	; 10f24 <uart_init+0xd0>
   10ef8:	e59f0028 	ldr	r0, [pc, #40]	; 10f28 <uart_init+0xd4>
   10efc:	ebffdc48 	bl	8024 <PUT32>
   10f00:	e1a00004 	mov	r0, r4
   10f04:	ebffdc48 	bl	802c <GET32>
   10f08:	e3801003 	orr	r1, r0, #3, 0
   10f0c:	e1a00004 	mov	r0, r4
   10f10:	ebffdc43 	bl	8024 <PUT32>
   10f14:	ebfffd98 	bl	1057c <dev_barrier>
   10f18:	e8bd8070 	pop	{r4, r5, r6, pc}
   10f1c:	20215004 	.word	0x20215004
   10f20:	20215048 	.word	0x20215048
   10f24:	000001b1 	.word	0x000001b1
   10f28:	20215068 	.word	0x20215068

00010f2c <uart_can_put8>:
   10f2c:	e92d4010 	push	{r4, lr}
   10f30:	ebfffd91 	bl	1057c <dev_barrier>
   10f34:	e59f0020 	ldr	r0, [pc, #32]	; 10f5c <uart_can_put8+0x30>
   10f38:	ebffdc3b 	bl	802c <GET32>
   10f3c:	e3100020 	tst	r0, #32, 0
   10f40:	1a000002 	bne	10f50 <uart_can_put8+0x24>
   10f44:	ebfffd8c 	bl	1057c <dev_barrier>
   10f48:	e3a00001 	mov	r0, #1, 0
   10f4c:	e8bd8010 	pop	{r4, pc}
   10f50:	ebfffd89 	bl	1057c <dev_barrier>
   10f54:	e3a00000 	mov	r0, #0, 0
   10f58:	e8bd8010 	pop	{r4, pc}
   10f5c:	20215064 	.word	0x20215064

00010f60 <uart_put8>:
   10f60:	e92d4010 	push	{r4, lr}
   10f64:	e1a04000 	mov	r4, r0
   10f68:	ebfffd83 	bl	1057c <dev_barrier>
   10f6c:	ebffffee 	bl	10f2c <uart_can_put8>
   10f70:	e3500000 	cmp	r0, #0, 0
   10f74:	0afffffc 	beq	10f6c <uart_put8+0xc>
   10f78:	e1a01004 	mov	r1, r4
   10f7c:	e59f000c 	ldr	r0, [pc, #12]	; 10f90 <uart_put8+0x30>
   10f80:	ebffdc27 	bl	8024 <PUT32>
   10f84:	ebfffd7c 	bl	1057c <dev_barrier>
   10f88:	e3a00001 	mov	r0, #1, 0
   10f8c:	e8bd8010 	pop	{r4, pc}
   10f90:	20215040 	.word	0x20215040

00010f94 <uart_has_data>:
   10f94:	e92d4010 	push	{r4, lr}
   10f98:	ebfffd77 	bl	1057c <dev_barrier>
   10f9c:	e59f0020 	ldr	r0, [pc, #32]	; 10fc4 <uart_has_data+0x30>
   10fa0:	ebffdc21 	bl	802c <GET32>
   10fa4:	e310080f 	tst	r0, #983040	; 0xf0000
   10fa8:	1a000002 	bne	10fb8 <uart_has_data+0x24>
   10fac:	ebfffd72 	bl	1057c <dev_barrier>
   10fb0:	e3a00000 	mov	r0, #0, 0
   10fb4:	e8bd8010 	pop	{r4, pc}
   10fb8:	ebfffd6f 	bl	1057c <dev_barrier>
   10fbc:	e3a00001 	mov	r0, #1, 0
   10fc0:	e8bd8010 	pop	{r4, pc}
   10fc4:	20215064 	.word	0x20215064

00010fc8 <uart_get8>:
   10fc8:	e92d4010 	push	{r4, lr}
   10fcc:	ebfffd6a 	bl	1057c <dev_barrier>
   10fd0:	ebffffef 	bl	10f94 <uart_has_data>
   10fd4:	e3500000 	cmp	r0, #0, 0
   10fd8:	0afffffc 	beq	10fd0 <uart_get8+0x8>
   10fdc:	e59f0010 	ldr	r0, [pc, #16]	; 10ff4 <uart_get8+0x2c>
   10fe0:	ebffdc11 	bl	802c <GET32>
   10fe4:	e1a04000 	mov	r4, r0
   10fe8:	ebfffd63 	bl	1057c <dev_barrier>
   10fec:	e6ef0074 	uxtb	r0, r4
   10ff0:	e8bd8010 	pop	{r4, pc}
   10ff4:	20215040 	.word	0x20215040

00010ff8 <uart_get8_async>:
   10ff8:	e92d4010 	push	{r4, lr}
   10ffc:	ebffffe4 	bl	10f94 <uart_has_data>
   11000:	e3500000 	cmp	r0, #0, 0
   11004:	0a000001 	beq	11010 <uart_get8_async+0x18>
   11008:	ebffffee 	bl	10fc8 <uart_get8>
   1100c:	e8bd8010 	pop	{r4, pc}
   11010:	e3e00000 	mvn	r0, #0, 0
   11014:	e8bd8010 	pop	{r4, pc}

00011018 <uart_tx_is_empty>:
   11018:	e92d4010 	push	{r4, lr}
   1101c:	ebfffd56 	bl	1057c <dev_barrier>
   11020:	e59f0020 	ldr	r0, [pc, #32]	; 11048 <uart_tx_is_empty+0x30>
   11024:	ebffdc00 	bl	802c <GET32>
   11028:	e3100040 	tst	r0, #64, 0	; 0x40
   1102c:	0a000002 	beq	1103c <uart_tx_is_empty+0x24>
   11030:	ebfffd51 	bl	1057c <dev_barrier>
   11034:	e3a00001 	mov	r0, #1, 0
   11038:	e8bd8010 	pop	{r4, pc}
   1103c:	ebfffd4e 	bl	1057c <dev_barrier>
   11040:	e3a00000 	mov	r0, #0, 0
   11044:	e8bd8010 	pop	{r4, pc}
   11048:	20215054 	.word	0x20215054

0001104c <uart_flush_tx>:
   1104c:	e92d4010 	push	{r4, lr}
   11050:	ebfffff0 	bl	11018 <uart_tx_is_empty>
   11054:	e3500000 	cmp	r0, #0, 0
   11058:	18bd8010 	popne	{r4, pc}
   1105c:	ebfffd5b 	bl	105d0 <rpi_wait>
   11060:	eafffffa 	b	11050 <uart_flush_tx+0x4>

00011064 <uart_disable>:
   11064:	e92d4010 	push	{r4, lr}
   11068:	ebfffd43 	bl	1057c <dev_barrier>
   1106c:	ebfffff6 	bl	1104c <uart_flush_tx>
   11070:	e59f4030 	ldr	r4, [pc, #48]	; 110a8 <uart_disable+0x44>
   11074:	e1a00004 	mov	r0, r4
   11078:	ebffdbeb 	bl	802c <GET32>
   1107c:	e3c01003 	bic	r1, r0, #3, 0
   11080:	e1a00004 	mov	r0, r4
   11084:	ebffdbe6 	bl	8024 <PUT32>
   11088:	e244405c 	sub	r4, r4, #92, 0	; 0x5c
   1108c:	e1a00004 	mov	r0, r4
   11090:	ebffdbe5 	bl	802c <GET32>
   11094:	e3c01001 	bic	r1, r0, #1, 0
   11098:	e1a00004 	mov	r0, r4
   1109c:	ebffdbe0 	bl	8024 <PUT32>
   110a0:	ebfffd35 	bl	1057c <dev_barrier>
   110a4:	e8bd8010 	pop	{r4, pc}
   110a8:	20215060 	.word	0x20215060

000110ac <putk>:
   110ac:	e92d4010 	push	{r4, lr}
   110b0:	e1a04000 	mov	r4, r0
   110b4:	e5d40000 	ldrb	r0, [r4]
   110b8:	e3500000 	cmp	r0, #0, 0
   110bc:	0a000004 	beq	110d4 <putk+0x28>
   110c0:	e59f3014 	ldr	r3, [pc, #20]	; 110dc <putk+0x30>
   110c4:	e5933000 	ldr	r3, [r3]
   110c8:	e12fff33 	blx	r3
   110cc:	e2844001 	add	r4, r4, #1, 0
   110d0:	eafffff7 	b	110b4 <putk+0x8>
   110d4:	e3a00001 	mov	r0, #1, 0
   110d8:	e8bd8010 	pop	{r4, pc}
   110dc:	00014c40 	.word	0x00014c40

000110e0 <data_abort_vector>:
   110e0:	e52de004 	push	{lr}		; (str lr, [sp, #-4]!)
   110e4:	e24dd00c 	sub	sp, sp, #12, 0
   110e8:	e58d0000 	str	r0, [sp]
   110ec:	e3a03003 	mov	r3, #3, 0
   110f0:	e59f200c 	ldr	r2, [pc, #12]	; 11104 <data_abort_vector+0x24>
   110f4:	e59f100c 	ldr	r1, [pc, #12]	; 11108 <data_abort_vector+0x28>
   110f8:	e59f000c 	ldr	r0, [pc, #12]	; 1110c <data_abort_vector+0x2c>
   110fc:	ebfffbc0 	bl	10004 <printk>
   11100:	ebfffcf9 	bl	104ec <clean_reboot>
   11104:	0001490c 	.word	0x0001490c
   11108:	000148b0 	.word	0x000148b0
   1110c:	000148dc 	.word	0x000148dc

00011110 <fast_interrupt_vector>:
   11110:	e52de004 	push	{lr}		; (str lr, [sp, #-4]!)
   11114:	e24dd00c 	sub	sp, sp, #12, 0
   11118:	e58d0000 	str	r0, [sp]
   1111c:	e3a03003 	mov	r3, #3, 0
   11120:	e59f200c 	ldr	r2, [pc, #12]	; 11134 <fast_interrupt_vector+0x24>
   11124:	e59f100c 	ldr	r1, [pc, #12]	; 11138 <fast_interrupt_vector+0x28>
   11128:	e59f000c 	ldr	r0, [pc, #12]	; 1113c <fast_interrupt_vector+0x2c>
   1112c:	ebfffbb4 	bl	10004 <printk>
   11130:	ebfffced 	bl	104ec <clean_reboot>
   11134:	00014978 	.word	0x00014978
   11138:	00014920 	.word	0x00014920
   1113c:	00014944 	.word	0x00014944

00011140 <fiq_vector>:
   11140:	e52de004 	push	{lr}		; (str lr, [sp, #-4]!)
   11144:	e24dd00c 	sub	sp, sp, #12, 0
   11148:	e58d0000 	str	r0, [sp]
   1114c:	e3a03006 	mov	r3, #6, 0
   11150:	e59f200c 	ldr	r2, [pc, #12]	; 11164 <fiq_vector+0x24>
   11154:	e59f100c 	ldr	r1, [pc, #12]	; 11168 <fiq_vector+0x28>
   11158:	e59f000c 	ldr	r0, [pc, #12]	; 1116c <fiq_vector+0x2c>
   1115c:	ebfffba8 	bl	10004 <printk>
   11160:	ebfffce1 	bl	104ec <clean_reboot>
   11164:	00014990 	.word	0x00014990
   11168:	00014920 	.word	0x00014920
   1116c:	00014944 	.word	0x00014944

00011170 <int_vector>:
   11170:	e52de004 	push	{lr}		; (str lr, [sp, #-4]!)
   11174:	e24dd00c 	sub	sp, sp, #12, 0
   11178:	e58d0000 	str	r0, [sp]
   1117c:	e3a03003 	mov	r3, #3, 0
   11180:	e59f200c 	ldr	r2, [pc, #12]	; 11194 <int_vector+0x24>
   11184:	e59f100c 	ldr	r1, [pc, #12]	; 11198 <int_vector+0x28>
   11188:	e59f000c 	ldr	r0, [pc, #12]	; 1119c <int_vector+0x2c>
   1118c:	ebfffb9c 	bl	10004 <printk>
   11190:	ebfffcd5 	bl	104ec <clean_reboot>
   11194:	000149ec 	.word	0x000149ec
   11198:	0001499c 	.word	0x0001499c
   1119c:	000149c0 	.word	0x000149c0

000111a0 <prefetch_abort_vector>:
   111a0:	e52de004 	push	{lr}		; (str lr, [sp, #-4]!)
   111a4:	e24dd00c 	sub	sp, sp, #12, 0
   111a8:	e58d0000 	str	r0, [sp]
   111ac:	e3a03003 	mov	r3, #3, 0
   111b0:	e59f200c 	ldr	r2, [pc, #12]	; 111c4 <prefetch_abort_vector+0x24>
   111b4:	e59f100c 	ldr	r1, [pc, #12]	; 111c8 <prefetch_abort_vector+0x28>
   111b8:	e59f000c 	ldr	r0, [pc, #12]	; 111cc <prefetch_abort_vector+0x2c>
   111bc:	ebfffb90 	bl	10004 <printk>
   111c0:	ebfffcc9 	bl	104ec <clean_reboot>
   111c4:	00014a50 	.word	0x00014a50
   111c8:	000149f8 	.word	0x000149f8
   111cc:	00014a20 	.word	0x00014a20

000111d0 <reset_vector>:
   111d0:	e52de004 	push	{lr}		; (str lr, [sp, #-4]!)
   111d4:	e24dd00c 	sub	sp, sp, #12, 0
   111d8:	e58d0000 	str	r0, [sp]
   111dc:	e3a03003 	mov	r3, #3, 0
   111e0:	e59f200c 	ldr	r2, [pc, #12]	; 111f4 <reset_vector+0x24>
   111e4:	e59f100c 	ldr	r1, [pc, #12]	; 111f8 <reset_vector+0x28>
   111e8:	e59f000c 	ldr	r0, [pc, #12]	; 111fc <reset_vector+0x2c>
   111ec:	ebfffb84 	bl	10004 <printk>
   111f0:	ebfffcbd 	bl	104ec <clean_reboot>
   111f4:	00014ac0 	.word	0x00014ac0
   111f8:	00014a68 	.word	0x00014a68
   111fc:	00014a8c 	.word	0x00014a8c

00011200 <syscall_vector>:
   11200:	e52de004 	push	{lr}		; (str lr, [sp, #-4]!)
   11204:	e24dd00c 	sub	sp, sp, #12, 0
   11208:	e58d0000 	str	r0, [sp]
   1120c:	e3a03003 	mov	r3, #3, 0
   11210:	e59f200c 	ldr	r2, [pc, #12]	; 11224 <syscall_vector+0x24>
   11214:	e59f100c 	ldr	r1, [pc, #12]	; 11228 <syscall_vector+0x28>
   11218:	e59f000c 	ldr	r0, [pc, #12]	; 1122c <syscall_vector+0x2c>
   1121c:	ebfffb78 	bl	10004 <printk>
   11220:	ebfffcb1 	bl	104ec <clean_reboot>
   11224:	00014b24 	.word	0x00014b24
   11228:	00014ad0 	.word	0x00014ad0
   1122c:	00014af4 	.word	0x00014af4

00011230 <undefined_instruction_vector>:
   11230:	e52de004 	push	{lr}		; (str lr, [sp, #-4]!)
   11234:	e24dd00c 	sub	sp, sp, #12, 0
   11238:	e5903000 	ldr	r3, [r0]
   1123c:	e58d3004 	str	r3, [sp, #4]
   11240:	e58d0000 	str	r0, [sp]
   11244:	e3a03003 	mov	r3, #3, 0
   11248:	e59f200c 	ldr	r2, [pc, #12]	; 1125c <undefined_instruction_vector+0x2c>
   1124c:	e59f100c 	ldr	r1, [pc, #12]	; 11260 <undefined_instruction_vector+0x30>
   11250:	e59f000c 	ldr	r0, [pc, #12]	; 11264 <undefined_instruction_vector+0x34>
   11254:	ebfffb6a 	bl	10004 <printk>
   11258:	ebfffca3 	bl	104ec <clean_reboot>
   1125c:	00014bac 	.word	0x00014bac
   11260:	00014b34 	.word	0x00014b34
   11264:	00014b64 	.word	0x00014b64

00011268 <__udivsi3>:
   11268:	e2512001 	subs	r2, r1, #1, 0
   1126c:	012fff1e 	bxeq	lr
   11270:	3a000036 	bcc	11350 <__udivsi3+0xe8>
   11274:	e1500001 	cmp	r0, r1
   11278:	9a000022 	bls	11308 <__udivsi3+0xa0>
   1127c:	e1110002 	tst	r1, r2
   11280:	0a000023 	beq	11314 <__udivsi3+0xac>
   11284:	e311020e 	tst	r1, #-536870912	; 0xe0000000
   11288:	01a01181 	lsleq	r1, r1, #3
   1128c:	03a03008 	moveq	r3, #8, 0
   11290:	13a03001 	movne	r3, #1, 0
   11294:	e3510201 	cmp	r1, #268435456	; 0x10000000
   11298:	31510000 	cmpcc	r1, r0
   1129c:	31a01201 	lslcc	r1, r1, #4
   112a0:	31a03203 	lslcc	r3, r3, #4
   112a4:	3afffffa 	bcc	11294 <__udivsi3+0x2c>
   112a8:	e3510102 	cmp	r1, #-2147483648	; 0x80000000
   112ac:	31510000 	cmpcc	r1, r0
   112b0:	31a01081 	lslcc	r1, r1, #1
   112b4:	31a03083 	lslcc	r3, r3, #1
   112b8:	3afffffa 	bcc	112a8 <__udivsi3+0x40>
   112bc:	e3a02000 	mov	r2, #0, 0
   112c0:	e1500001 	cmp	r0, r1
   112c4:	20400001 	subcs	r0, r0, r1
   112c8:	21822003 	orrcs	r2, r2, r3
   112cc:	e15000a1 	cmp	r0, r1, lsr #1
   112d0:	204000a1 	subcs	r0, r0, r1, lsr #1
   112d4:	218220a3 	orrcs	r2, r2, r3, lsr #1
   112d8:	e1500121 	cmp	r0, r1, lsr #2
   112dc:	20400121 	subcs	r0, r0, r1, lsr #2
   112e0:	21822123 	orrcs	r2, r2, r3, lsr #2
   112e4:	e15001a1 	cmp	r0, r1, lsr #3
   112e8:	204001a1 	subcs	r0, r0, r1, lsr #3
   112ec:	218221a3 	orrcs	r2, r2, r3, lsr #3
   112f0:	e3500000 	cmp	r0, #0, 0
   112f4:	11b03223 	lsrsne	r3, r3, #4
   112f8:	11a01221 	lsrne	r1, r1, #4
   112fc:	1affffef 	bne	112c0 <__udivsi3+0x58>
   11300:	e1a00002 	mov	r0, r2
   11304:	e12fff1e 	bx	lr
   11308:	03a00001 	moveq	r0, #1, 0
   1130c:	13a00000 	movne	r0, #0, 0
   11310:	e12fff1e 	bx	lr
   11314:	e3510801 	cmp	r1, #65536	; 0x10000
   11318:	21a01821 	lsrcs	r1, r1, #16
   1131c:	23a02010 	movcs	r2, #16, 0
   11320:	33a02000 	movcc	r2, #0, 0
   11324:	e3510c01 	cmp	r1, #256	; 0x100
   11328:	21a01421 	lsrcs	r1, r1, #8
   1132c:	22822008 	addcs	r2, r2, #8, 0
   11330:	e3510010 	cmp	r1, #16, 0
   11334:	21a01221 	lsrcs	r1, r1, #4
   11338:	22822004 	addcs	r2, r2, #4, 0
   1133c:	e3510004 	cmp	r1, #4, 0
   11340:	82822003 	addhi	r2, r2, #3, 0
   11344:	908220a1 	addls	r2, r2, r1, lsr #1
   11348:	e1a00230 	lsr	r0, r0, r2
   1134c:	e12fff1e 	bx	lr
   11350:	e3500000 	cmp	r0, #0, 0
   11354:	13e00000 	mvnne	r0, #0, 0
   11358:	ea000007 	b	1137c <__aeabi_idiv0>

0001135c <__aeabi_uidivmod>:
   1135c:	e3510000 	cmp	r1, #0, 0
   11360:	0afffffa 	beq	11350 <__udivsi3+0xe8>
   11364:	e92d4003 	push	{r0, r1, lr}
   11368:	ebffffbe 	bl	11268 <__udivsi3>
   1136c:	e8bd4006 	pop	{r1, r2, lr}
   11370:	e0030092 	mul	r3, r2, r0
   11374:	e0411003 	sub	r1, r1, r3
   11378:	e12fff1e 	bx	lr

0001137c <__aeabi_idiv0>:
   1137c:	e12fff1e 	bx	lr
